L251 LINKER/LOCATER V4.66.93.0                                                          07/12/2024  21:17:14  PAGE 1


L251 LINKER/LOCATER V4.66.93.0, INVOKED BY:
D:\KEIL5\KEIL5_MDK\KEIL5_MDK_32\C251\BIN\L251.EXE .\Out_File\board.obj, .\Out_File\common.obj, .\Out_File\SEEKFREE_PRINT
>> F.obj, .\Out_File\zf_adc.obj, .\Out_File\zf_delay.obj, .\Out_File\zf_eeprom.obj, .\Out_File\zf_exti.obj, .\Out_File\z
>> f_gpio.obj, .\Out_File\zf_iic.obj, .\Out_File\zf_nvic.obj, .\Out_File\zf_pwm.obj, .\Out_File\zf_spi.obj, .\Out_File\z
>> f_tim.obj, .\Out_File\zf_uart.obj, .\Out_File\zf_fifo.obj, .\Out_File\SEEKFREE_18TFT.obj, .\Out_File\SEEKFREE_ABSOLUT
>> E_ENCODER.obj, .\Out_File\SEEKFREE_FONT.obj, .\Out_File\SEEKFREE_IIC.obj, .\Out_File\SEEKFREE_MPU6050.obj, .\Out_File
>> \SEEKFREE_OLED.obj, .\Out_File\SEEKFREE_AT24C02.obj, .\Out_File\SEEKFREE_BLUETOOTH_CH9141.obj, .\Out_File\SEEKFREE_IC
>> M20602.obj, .\Out_File\SEEKFREE_IPS114_SPI.obj, .\Out_File\SEEKFREE_TSL1401.obj, .\Out_File\SEEKFREE_VIRSCO.obj, .\Ou
>> t_File\SEEKFREE_WIRELESS.obj, .\Out_File\SEEKFREE_WIRELESS_CH573.obj, .\Out_File\isr.obj, .\Out_File\main.obj, .\Out_
>> File\motor.obj, .\Out_File\ADC.obj, .\Out_File\PID.obj, .\Out_File\MPU6050.obj, .\Out_File\TOF.obj, .\Out_File\Elemen
>> t.obj, .\Out_File\Buzzer.obj, .\Out_File\Key.obj, .\Out_File\UI.obj, .\Out_File\HCSR04.obj TO .\Out_File\SEEKFREE PRI
>> NT (.\Out_File\SEEKFREE.map) CASE DISABLEWARNING (16, 57) REMOVEUNUSED CLASSES (EDATA (0X0-0XFFF), HDATA (0X0-0XFFF))
>> 


CPU MODE:     251 SOURCE MODE
INTR FRAME:   2 BYTES SAVED ON INTERRUPT
MEMORY MODEL: XSMALL WITH FLOATING POINT ARITHMETIC


INPUT MODULES INCLUDED:
  .\Out_File\board.obj (board)
         COMMENT TYPE 0: C251 V5.60.0
  .\Out_File\common.obj (common)
         COMMENT TYPE 0: C251 V5.60.0
  .\Out_File\SEEKFREE_PRINTF.obj (SEEKFREE_PRINTF)
         COMMENT TYPE 0: C251 V5.60.0
  .\Out_File\zf_adc.obj (zf_adc)
         COMMENT TYPE 0: C251 V5.60.0
  .\Out_File\zf_delay.obj (zf_delay)
         COMMENT TYPE 0: C251 V5.60.0
  .\Out_File\zf_eeprom.obj (zf_eeprom)
         COMMENT TYPE 0: C251 V5.60.0
  .\Out_File\zf_exti.obj (zf_exti)
         COMMENT TYPE 0: C251 V5.60.0
  .\Out_File\zf_gpio.obj (zf_gpio)
         COMMENT TYPE 0: C251 V5.60.0
  .\Out_File\zf_iic.obj (zf_iic)
         COMMENT TYPE 0: C251 V5.60.0
  .\Out_File\zf_nvic.obj (zf_nvic)
         COMMENT TYPE 0: C251 V5.60.0
  .\Out_File\zf_pwm.obj (zf_pwm)
         COMMENT TYPE 0: C251 V5.60.0
  .\Out_File\zf_spi.obj (zf_spi)
         COMMENT TYPE 0: C251 V5.60.0
  .\Out_File\zf_tim.obj (zf_tim)
         COMMENT TYPE 0: C251 V5.60.0
  .\Out_File\zf_uart.obj (zf_uart)
         COMMENT TYPE 0: C251 V5.60.0
  .\Out_File\zf_fifo.obj (zf_fifo)
         COMMENT TYPE 0: C251 V5.60.0
  .\Out_File\SEEKFREE_18TFT.obj (SEEKFREE_18TFT)
         COMMENT TYPE 0: C251 V5.60.0
  .\Out_File\SEEKFREE_ABSOLUTE_ENCODER.obj (SEEKFREE_ABSOLUTE_ENCODER)
         COMMENT TYPE 0: C251 V5.60.0
  .\Out_File\SEEKFREE_FONT.obj (SEEKFREE_FONT)
         COMMENT TYPE 0: C251 V5.60.0
  .\Out_File\SEEKFREE_IIC.obj (SEEKFREE_IIC)
         COMMENT TYPE 0: C251 V5.60.0
  .\Out_File\SEEKFREE_MPU6050.obj (SEEKFREE_MPU6050)
         COMMENT TYPE 0: C251 V5.60.0
  .\Out_File\SEEKFREE_OLED.obj (SEEKFREE_OLED)
         COMMENT TYPE 0: C251 V5.60.0
  .\Out_File\SEEKFREE_AT24C02.obj (SEEKFREE_AT24C02)
         COMMENT TYPE 0: C251 V5.60.0
  .\Out_File\SEEKFREE_BLUETOOTH_CH9141.obj (SEEKFREE_BLUETOOTH_CH9141)
L251 LINKER/LOCATER V4.66.93.0                                                        07/12/2024  21:17:14  PAGE 2


         COMMENT TYPE 0: C251 V5.60.0
  .\Out_File\SEEKFREE_ICM20602.obj (SEEKFREE_ICM20602)
         COMMENT TYPE 0: C251 V5.60.0
  .\Out_File\SEEKFREE_IPS114_SPI.obj (SEEKFREE_IPS114_SPI)
         COMMENT TYPE 0: C251 V5.60.0
  .\Out_File\SEEKFREE_TSL1401.obj (SEEKFREE_TSL1401)
         COMMENT TYPE 0: C251 V5.60.0
  .\Out_File\SEEKFREE_VIRSCO.obj (SEEKFREE_VIRSCO)
         COMMENT TYPE 0: C251 V5.60.0
  .\Out_File\SEEKFREE_WIRELESS.obj (SEEKFREE_WIRELESS)
         COMMENT TYPE 0: C251 V5.60.0
  .\Out_File\SEEKFREE_WIRELESS_CH573.obj (SEEKFREE_WIRELESS_CH573)
         COMMENT TYPE 0: C251 V5.60.0
  .\Out_File\isr.obj (isr)
         COMMENT TYPE 0: C251 V5.60.0
  .\Out_File\main.obj (main)
         COMMENT TYPE 0: C251 V5.60.0
  .\Out_File\motor.obj (motor)
         COMMENT TYPE 0: C251 V5.60.0
  .\Out_File\ADC.obj (ADC)
         COMMENT TYPE 0: C251 V5.60.0
  .\Out_File\PID.obj (PID)
         COMMENT TYPE 0: C251 V5.60.0
  .\Out_File\MPU6050.obj (MPU6050)
         COMMENT TYPE 0: C251 V5.60.0
  .\Out_File\TOF.obj (TOF)
         COMMENT TYPE 0: C251 V5.60.0
  .\Out_File\Element.obj (Element)
         COMMENT TYPE 0: C251 V5.60.0
  .\Out_File\Buzzer.obj (Buzzer)
         COMMENT TYPE 0: C251 V5.60.0
  .\Out_File\Key.obj (Key)
         COMMENT TYPE 0: C251 V5.60.0
  .\Out_File\UI.obj (UI)
         COMMENT TYPE 0: C251 V5.60.0
  .\Out_File\HCSR04.obj (HCSR04)
         COMMENT TYPE 0: C251 V5.60.0
  D:\KEIL5\KEIL5_MDK\KEIL5_MDK_32\C251\LIB\C2SFPXS.LIB (?C?FPADD)
         COMMENT TYPE 0: A251 V4.69.6.0
  D:\KEIL5\KEIL5_MDK\KEIL5_MDK_32\C251\LIB\C2SFPXS.LIB (?C?FPMUL)
         COMMENT TYPE 0: A251 V4.69.6.0
  D:\KEIL5\KEIL5_MDK\KEIL5_MDK_32\C251\LIB\C2SFPXS.LIB (?C?FPDIV)
         COMMENT TYPE 0: A251 V4.69.6.0
  D:\KEIL5\KEIL5_MDK\KEIL5_MDK_32\C251\LIB\C2SFPXS.LIB (?C?FPCMP)
         COMMENT TYPE 0: A251 V4.69.6.0
  D:\KEIL5\KEIL5_MDK\KEIL5_MDK_32\C251\LIB\C2SFPXS.LIB (?C?FPNEG)
         COMMENT TYPE 0: A251 V4.69.6.0
  D:\KEIL5\KEIL5_MDK\KEIL5_MDK_32\C251\LIB\C2SFPXS.LIB (?C?FCAST)
         COMMENT TYPE 0: A251 V4.69.6.0
  D:\KEIL5\KEIL5_MDK\KEIL5_MDK_32\C251\LIB\C2SFPXS.LIB (?C?CASTF)
         COMMENT TYPE 0: A251 V4.69.6.0
  D:\KEIL5\KEIL5_MDK\KEIL5_MDK_32\C251\LIB\C2SFPXS.LIB (PRINTF)
         COMMENT TYPE 0: A251 V4.69.6.0
  D:\KEIL5\KEIL5_MDK\KEIL5_MDK_32\C251\LIB\C2SFPXS.LIB (SQRT?_)
         COMMENT TYPE 0: A251 V4.69.6.0
  D:\KEIL5\KEIL5_MDK\KEIL5_MDK_32\C251\LIB\C2SFPXS.LIB (ASIN?_)
         COMMENT TYPE 0: A251 V4.69.6.0
  D:\KEIL5\KEIL5_MDK\KEIL5_MDK_32\C251\LIB\C2SFPXS.LIB (atan2)
         COMMENT TYPE 0: C251 V5.58.7
  D:\KEIL5\KEIL5_MDK\KEIL5_MDK_32\C251\LIB\C2SFPXS.LIB (?C?FPGETOPN)
         COMMENT TYPE 0: A251 V4.69.6.0
  D:\KEIL5\KEIL5_MDK\KEIL5_MDK_32\C251\LIB\C2SFPXS.LIB (?C?PRNFMT)
         COMMENT TYPE 0: A251 V4.69.6.0
  D:\KEIL5\KEIL5_MDK\KEIL5_MDK_32\C251\LIB\C2SFPXS.LIB (ATAN?_)
         COMMENT TYPE 0: A251 V4.69.6.0
L251 LINKER/LOCATER V4.66.93.0                                                        07/12/2024  21:17:14  PAGE 3


  D:\KEIL5\KEIL5_MDK\KEIL5_MDK_32\C251\LIB\C2SFPXS.LIB (?C?FPCONVERT)
         COMMENT TYPE 0: A251 V4.69.6.0
  D:\KEIL5\KEIL5_MDK\KEIL5_MDK_32\C251\LIB\C2SFPXS.LIB (?C?FPSERIES)
         COMMENT TYPE 0: A251 V4.69.6.0
  D:\KEIL5\KEIL5_MDK\KEIL5_MDK_32\C251\LIB\C2SFPXS.LIB (?C?FTNPWR)
         COMMENT TYPE 0: A251 V4.69.6.0
  D:\KEIL5\KEIL5_MDK\KEIL5_MDK_32\C251\LIB\C2SXS.LIB (?C_START)
         COMMENT TYPE 0: A251 V4.69.6.0
  D:\KEIL5\KEIL5_MDK\KEIL5_MDK_32\C251\LIB\C2SXS.LIB (?C?INITEDATA)
         COMMENT TYPE 0: A251 V4.69.6.0
  D:\KEIL5\KEIL5_MDK\KEIL5_MDK_32\C251\LIB\C2SXS.LIB (?C?SIDIV)
         COMMENT TYPE 0: A251 V4.69.6.0
  D:\KEIL5\KEIL5_MDK\KEIL5_MDK_32\C251\LIB\C2SXS.LIB (?C?LMUL)
         COMMENT TYPE 0: A251 V4.69.6.0
  D:\KEIL5\KEIL5_MDK\KEIL5_MDK_32\C251\LIB\C2SXS.LIB (?C?LIMUL)
         COMMENT TYPE 0: A251 V4.69.6.0
  D:\KEIL5\KEIL5_MDK\KEIL5_MDK_32\C251\LIB\C2SXS.LIB (?C?ULDIV)
         COMMENT TYPE 0: A251 V4.69.6.0
  D:\KEIL5\KEIL5_MDK\KEIL5_MDK_32\C251\LIB\C2SXS.LIB (?C?SLDIV)
         COMMENT TYPE 0: A251 V4.69.6.0
  D:\KEIL5\KEIL5_MDK\KEIL5_MDK_32\C251\LIB\C2SXS.LIB (ABS)
         COMMENT TYPE 0: C251 V5.58.7
  D:\KEIL5\KEIL5_MDK\KEIL5_MDK_32\C251\LIB\C2SXS.LIB (STRCPY?_)
         COMMENT TYPE 0: A251 V4.69.6.0
  D:\KEIL5\KEIL5_MDK\KEIL5_MDK_32\C251\LIB\C2SXS.LIB (memcpy)
         COMMENT TYPE 0: C251 V5.58.7
  D:\KEIL5\KEIL5_MDK\KEIL5_MDK_32\C251\LIB\C2SXS.LIB (memset)
         COMMENT TYPE 0: C251 V5.58.7
  D:\KEIL5\KEIL5_MDK\KEIL5_MDK_32\C251\LIB\C2SXS.LIB (?C?INITEDATA_END)
         COMMENT TYPE 0: A251 V4.69.6.0


ACTIVE MEMORY CLASSES OF MODULE:  .\Out_File\SEEKFREE (board)

BASE        START       END         USED      MEMORY CLASS
==========================================================
000000H     000000H     000FFFH     00085EH   EDATA
000000H     000000H     000FFFH               HDATA
FF0000H     FF0000H     FFFFFFH     006C78H   CODE
000000H     FF0000H     FFFFFFH     0002D2H   HCONST
FF0000H     FF0000H     FFFFFFH     000004H   CONST
000000H     000000H     00007FH     000008H   DATA


MEMORY MAP OF MODULE:  .\Out_File\SEEKFREE (board)


START     STOP      LENGTH    ALIGN  RELOC    MEMORY CLASS   SEGMENT NAME
=========================================================================
000000H   000007H   000008H   ---    AT..     DATA           "REG BANK 0"
000008H   00013CH   000135H   BYTE   UNIT     EDATA          ?ED?UI
00013DH   00023DH   000101H   BYTE   UNIT     EDATA          ?ED?SEEKFREE_TSL1401
00023EH   000320H   0000E3H   BYTE   UNIT     EDATA          ?ED?PID
000321H   0003EDH   0000CDH   BYTE   UNIT     EDATA          ?ED?ZF_UART
0003EEH   000490H   0000A3H   BYTE   UNIT     EDATA          _EDATA_GROUP_
000491H   0004FBH   00006BH   BYTE   UNIT     EDATA          ?ED?MPU6050
0004FCH   00055DH   000062H   BYTE   UNIT     EDATA          ?ED?ISR
00055EH   0005B2H   000055H   BYTE   UNIT     EDATA          ?ED?SEEKFREE_BLUETOOTH_CH9141
0005B3H   000607H   000055H   BYTE   UNIT     EDATA          ?ED?SEEKFREE_WIRELESS
000608H   00065CH   000055H   BYTE   UNIT     EDATA          ?ED?SEEKFREE_WIRELESS_CH573
00065DH   0006ACH   000050H   BYTE   UNIT     EDATA          ?ED?ADC
0006ADH   0006DFH   000033H   BYTE   UNIT     EDATA          ?ED?MAIN
0006E0H   000708H   000029H   BYTE   UNIT     EDATA          ?ED?ELEMENT
000709H   00071CH   000014H   BYTE   UNIT     EDATA          ?ED?MOTOR
00071DH   00072AH   00000EH   BYTE   UNIT     EDATA          ?ED?HCSR04
L251 LINKER/LOCATER V4.66.93.0                                                        07/12/2024  21:17:14  PAGE 4


00072BH   000736H   00000CH   BYTE   UNIT     EDATA          ?ED?SEEKFREE_MPU6050
000737H   000742H   00000CH   BYTE   UNIT     EDATA          ?ED?SEEKFREE_ICM20602
000743H   00074CH   00000AH   BYTE   UNIT     EDATA          ?ED?SEEKFREE_VIRSCO
00074DH   000753H   000007H   BYTE   UNIT     EDATA          ?ED?SEEKFREE_IIC
000754H   000757H   000004H   BYTE   UNIT     EDATA          ?ED?BOARD
000758H   00075BH   000004H   BYTE   UNIT     EDATA          ?ED?ZF_DELAY
00075CH   00075EH   000003H   BYTE   UNIT     EDATA          ?ED?TOF
00075FH   000761H   000003H   BYTE   UNIT     EDATA          ?ED?KEY
000762H   000763H   000002H   BYTE   UNIT     EDATA          ?ED?COMMON
000764H   000765H   000002H   BYTE   UNIT     EDATA          ?ED?BUZZER
000766H   000865H   000100H   BYTE   UNIT     EDATA          ?STACK
000866H   FEFFFFH   FEF79AH   ---    ---      **GAP**
FF0000H   FF0002H   000003H   ---    OFFS..   CODE           ?CO?start251?4
FF0003H   FF0005H   000003H   ---    OFFS..   CODE           ?PR?IV?0
FF0006H   FF000AH   000005H   BYTE   INSEG    CODE           ?PR?I2C_SDA_READ?MPU6050
FF000BH   FF000DH   000003H   ---    OFFS..   CODE           ?PR?IV?1
FF000EH   FF0010H   000003H   BYTE   INSEG    CODE           ?PR?ENABLEGLOBALIRQ?BOARD
FF0011H   FF0011H   000001H   BYTE   INSEG    CODE           ?PR?INT1_ISR?ISR
FF0012H   FF0012H   000001H   BYTE   INSEG    CODE           ?PR?TM0_ISR?ISR
FF0013H   FF0015H   000003H   ---    OFFS..   CODE           ?PR?IV?2
FF0016H   FF0018H   000003H   BYTE   INSEG    CODE           ?PR?DISABLEGLOBALIRQ?BOARD
FF0019H   FF0019H   000001H   BYTE   INSEG    CODE           ?PR?TM1_ISR?ISR
FF001AH   FF001AH   000001H   ---    ---      **GAP**
FF001BH   FF001DH   000003H   ---    OFFS..   CODE           ?PR?IV?3
FF001EH   FF0020H   000003H   BYTE   INSEG    CODE           ?PR?I2C_SDA_H?MPU6050
FF0021H   FF0022H   000002H   ---    ---      **GAP**
FF0023H   FF0025H   000003H   ---    OFFS..   CODE           ?PR?IV?4
FF0026H   FF0042H   00001DH   BYTE   INSEG    CODE           ?PR?GETFIFOCOUNT?MPU6050
FF0043H   FF0045H   000003H   ---    OFFS..   CODE           ?PR?IV?8
FF0046H   FF0052H   00000DH   BYTE   INSEG    CODE           ?PR?MPU_READ_BITS?MPU6050
FF0053H   FF0055H   000003H   ---    OFFS..   CODE           ?PR?IV?10
FF0056H   FF0058H   000003H   BYTE   INSEG    CODE           ?PR?I2C_SDA_L?MPU6050
FF0059H   FF005AH   000002H   ---    ---      **GAP**
FF005BH   FF005DH   000003H   ---    OFFS..   CODE           ?PR?IV?11
FF005EH   FF0060H   000003H   BYTE   INSEG    CODE           ?PR?I2C_SCL_H?MPU6050
FF0061H   FF0062H   000002H   ---    ---      **GAP**
FF0063H   FF0065H   000003H   ---    OFFS..   CODE           ?PR?IV?12
FF0066H   FF0081H   00001CH   BYTE   INSEG    CODE           ?PR?VL53L0X_SCCB_WAITACK?TOF
FF0082H   FF0082H   000001H   ---    ---      **GAP**
FF0083H   FF0085H   000003H   ---    OFFS..   CODE           ?PR?IV?16
FF0086H   FF0088H   000003H   BYTE   INSEG    CODE           ?PR?I2C_SCL_L?MPU6050
FF0089H   FF008AH   000002H   ---    ---      **GAP**
FF008BH   FF008DH   000003H   ---    OFFS..   CODE           ?PR?IV?17
FF008EH   FF0091H   000004H   BYTE   UNIT     CONST          ?CO?PRINTF
FF0092H   FF0092H   000001H   ---    ---      **GAP**
FF0093H   FF0095H   000003H   ---    OFFS..   CODE           ?PR?IV?18
FF0096H   FF009AH   000005H   ---    ---      **GAP**
FF009BH   FF009DH   000003H   ---    OFFS..   CODE           ?PR?IV?19
FF009EH   FF00A2H   000005H   ---    ---      **GAP**
FF00A3H   FF00A5H   000003H   ---    OFFS..   CODE           ?PR?IV?20
FF00A6H   FF0EADH   000E08H   BYTE   UNIT     CODE           ?CO?SEEKFREE_FONT
FF0EAEH   FF1A25H   000B78H   BYTE   UNIT     CODE           ?C?LIB_CODE
FF1A26H   FF229DH   000878H   BYTE   UNIT     CODE           ?CO?MPU6050
FF229EH   FF289FH   000602H   BYTE   INSEG    CODE           ?PR?VL53L0X_INIT?TOF
FF28A0H   FF2D99H   0004FAH   BYTE   INSEG    CODE           ?PR?ZF_SPRINTF?SEEKFREE_PRINTF
FF2D9AH   FF3190H   0003F7H   BYTE   INSEG    CODE           ?PR?GPIO_MODE?ZF_GPIO
FF3191H   FF350CH   00037CH   BYTE   INSEG    CODE           ?PR?TM4_ISR?ISR
FF350DH   FF37F0H   0002E4H   BYTE   INSEG    CODE           ?PR?PWM_INIT?ZF_PWM
FF37F1H   FF3A91H   0002A1H   BYTE   INSEG    CODE           ?PR?PWM_SET_GPIO?ZF_PWM
FF3A92H   FF3D2BH   00029AH   BYTE   INSEG    CODE           ?PR?MPU6050_REFRESH_DMP?MPU6050
FF3D2CH   FF3F57H   00022CH   BYTE   INSEG    CODE           ?PR?DMPINITIALIZE?MPU6050
FF3F58H   FF4155H   0001FEH   BYTE   INSEG    CODE           ?PR?ELEM_CIRCLE?ELEMENT
FF4156H   FF4314H   0001BFH   BYTE   INSEG    CODE           ?PR?UART_INIT?ZF_UART
FF4315H   FF44B9H   0001A5H   BYTE   INSEG    CODE           ?PR?MAIN?MAIN
FF44BAH   FF464FH   000196H   BYTE   INSEG    CODE           ?PR?PID_INCREMENTAL_CALC?PID
L251 LINKER/LOCATER V4.66.93.0                                                        07/12/2024  21:17:14  PAGE 5


FF4650H   FF47CBH   00017CH   BYTE   INSEG    CODE           ?PR?VL53L0X_GET_SPAD_INFO?TOF
FF47CCH   FF4916H   00014BH   BYTE   INSEG    CODE           ?PR?ADC_GETVALUE?ADC
FF4917H   FF4A4DH   000137H   BYTE   INSEG    CODE           ?PR?GET_RATIO?ISR
FF4A4EH   FF4B4AH   0000FDH   BYTE   INSEG    CODE           ?PR?ELEM_BARRIER?ELEMENT
FF4B4BH   FF4C46H   0000FCH   BYTE   INSEG    CODE           ?PR?INIT_ALL?MAIN
FF4C47H   FF4D3EH   0000F8H   BYTE   INSEG    CODE           ?PR?OLED_PRINTF_FLOAT?SEEKFREE_OLED
FF4D3FH   FF4E2EH   0000F0H   BYTE   INSEG    CODE           ?PR?VALUE_NAME_INIT?UI
FF4E2FH   FF4F16H   0000E8H   BYTE   INSEG    CODE           ?PR?OLED_P8X16STR?SEEKFREE_OLED
FF4F17H   FF4FFAH   0000E4H   BYTE   INSEG    CODE           ?PR?VL53L0X_SET_MEASUREMENT_TIMING_BUDGET?TOF
FF4FFBH   FF50DAH   0000E0H   BYTE   INSEG    CODE           ?PR?FIFO_WRITE_BUFFER?ZF_FIFO
FF50DBH   FF51B5H   0000DBH   BYTE   INSEG    CODE           ?PR?VL53L0X_GET_SEQUENCE_STEP_TIMEOUTS?TOF
FF51B6H   FF527CH   0000C7H   BYTE   INSEG    CODE           ?PR?RIGHT_SETSPEED?MOTOR
FF527DH   FF5343H   0000C7H   BYTE   INSEG    CODE           ?PR?LEFT_SETSPEED?MOTOR
FF5344H   FF5401H   0000BEH   BYTE   INSEG    CODE           ?PR?GET_SPEED?MOTOR
FF5402H   FF54B9H   0000B8H   BYTE   INSEG    CODE           ?PR?PWM_DUTY?ZF_PWM
FF54BAH   FF5563H   0000AAH   BYTE   INSEG    CODE           ?PR?PID_CALCULATE?PID
FF5564H   FF5609H   0000A6H   BYTE   INSEG    CODE           ?PR?LOADCFGUPD?MPU6050
FF560AH   FF56ACH   0000A3H   BYTE   INSEG    CODE           ?PR?OLED_INIT?SEEKFREE_OLED
FF56ADH   FF5747H   00009BH   BYTE   INSEG    CODE           ?PR?REFRESH_VALUE?UI
FF5748H   FF57DBH   000094H   BYTE   INSEG    CODE           ?PR?PIT_TIMER_MS?ZF_TIM
FF57DCH   FF586DH   000092H   BYTE   INSEG    CODE           ?PR?NUMBER_CONVERSION_ASCII?SEEKFREE_PRINTF
FF586EH   FF58FAH   00008DH   BYTE   INSEG    CODE           ?PR?PID_INCREMENTAL_INIT?PID
FF58FBH   FF5985H   00008BH   BYTE   INSEG    CODE           ?PR?XDMPUPDATES?MPU6050
FF5986H   FF5A06H   000081H   BYTE   INSEG    CODE           ?PR?BOARD_INIT?BOARD
FF5A07H   FF5A87H   000081H   BYTE   INSEG    CODE           ?PR?LOADFIRMWARE?MPU6050
FF5A88H   FF5B04H   00007DH   BYTE   INSEG    CODE           ?PR?I2C_WRITE_BITS?MPU6050
FF5B05H   FF5B7EH   00007AH   BYTE   INSEG    CODE           ?PR?I2C_MEM_READ?MPU6050
FF5B7FH   FF5BF7H   000079H   BYTE   INSEG    CODE           ?PR?SPEED_GAIN?MAIN
FF5BF8H   FF5C6EH   000077H   BYTE   INSEG    CODE           ?PR?VL53L0X_PERFORM_SINGLE_REF_CALIBRATION?TOF
FF5C6FH   FF5CE4H   000076H   BYTE   INSEG    CODE           ?PR?GETKEY_VALUE?KEY
FF5CE5H   FF5D57H   000073H   BYTE   INSEG    CODE           ?PR?VL53L0X_GET_MEASUREMENT_TIMING_BUDGET?TOF
FF5D58H   FF5DC4H   00006DH   BYTE   INSEG    CODE           ?PR?VL53L0X_GET_DISTANCE?TOF
FF5DC5H   FF5E2FH   00006BH   BYTE   INSEG    CODE           ?PR?I2C_READ_BITS?MPU6050
FF5E30H   FF5E98H   000069H   BYTE   INSEG    CODE           ?PR?UART4_ISR?ISR
FF5E99H   FF5EF8H   000060H   BYTE   INSEG    CODE           ?PR?PID_INIT?PID
FF5EF9H   FF5F57H   00005FH   BYTE   INSEG    CODE           ?PR?I2C_MEM_WRITE?MPU6050
FF5F58H   FF5FB5H   00005EH   BYTE   INSEG    CODE           ?PR?ADC_INIT?ZF_ADC
FF5FB6H   FF6011H   00005CH   BYTE   INSEG    CODE           ?PR?I2C_WRITE_BIT?MPU6050
FF6012H   FF6069H   000058H   BYTE   INSEG    CODE           ?PR?MPU_GET_GYROSCOPE?MPU6050
FF606AH   FF60C1H   000058H   BYTE   INSEG    CODE           ?PR?VL53L0X_GET_SEQUENCE_STEP_ENABLES?TOF
FF60C2H   FF6115H   000054H   BYTE   INSEG    CODE           ?PR?UART_PUTCHAR?ZF_UART
FF6116H   FF6169H   000054H   BYTE   INSEG    CODE           ?PR?VL53L0X_SIMIIC_READ_REGS?TOF
FF616AH   FF61BDH   000054H   BYTE   INSEG    CODE           ?PR?VL53L0X_SIMIIC_READ_REGS_1?TOF
FF61BEH   FF620EH   000051H   BYTE   INSEG    CODE           ?PR?CTIMER_COUNT_CLEAN?ZF_TIM
FF620FH   FF625BH   00004DH   BYTE   INSEG    CODE           ?PR?CTIMER_COUNT_READ?ZF_TIM
FF625CH   FF62A8H   00004DH   BYTE   INSEG    CODE           ?PR?VL53L0X_GET_VCSEL_PULSE_PERIOD?TOF
FF62A9H   FF62F2H   00004AH   BYTE   INSEG    CODE           ?PR?CTIMER_COUNT_INIT?ZF_TIM
FF62F3H   FF6337H   000045H   BYTE   INSEG    CODE           ?PR?ATAN2?_?ATAN2
FF6338H   FF637BH   000044H   BYTE   INSEG    CODE           ?PR?MOTOR_INIT?MOTOR
FF637CH   FF63BEH   000043H   BYTE   INSEG    CODE           ?PR?OLED_SHOW?UI
FF63BFH   FF6400H   000042H   BYTE   INSEG    CODE           ?PR?FIFO_HEAD_OFFSET?ZF_FIFO
FF6401H   FF6442H   000042H   BYTE   INSEG    CODE           ?PR?OLED_ALL_STATIC_STATE?UI
FF6443H   FF6483H   000041H   BYTE   INSEG    CODE           ?PR?ELEM_UP_DOWN?ELEMENT
FF6484H   FF6496H   000013H   BYTE   UNIT     CODE           ?C_C51STARTUP
FF6497H   FF64BFH   000029H   BYTE   UNIT     CODE           ?C_C51STARTUP?2
FF64C0H   FF64C2H   000003H   BYTE   UNIT     CODE           ?C_C51STARTUP?3
FF64C3H   FF6500H   00003EH   BYTE   INSEG    CODE           ?PR?PRINTF_REVERSE_ORDER?SEEKFREE_PRINTF
FF6501H   FF653EH   00003EH   BYTE   INSEG    CODE           ?PR?VL53L0X_TIMEOUT_MCLKS_TO_MICROSECONDS?TOF
FF653FH   FF657BH   00003DH   BYTE   INSEG    CODE           ?PR?UART1_ISR?ISR
FF657CH   FF65B7H   00003CH   BYTE   INSEG    CODE           ?PR?VL53L0X_TIMEOUT_MICROSECONDS_TO_MCLKS?TOF
FF65B8H   FF65F2H   00003BH   BYTE   INSEG    CODE           ?PR?VL53L0X_READ_CH?TOF
FF65F3H   FF662BH   000039H   BYTE   INSEG    CODE           ?PR?DELAY_INIT?ZF_DELAY
FF662CH   FF6662H   000037H   BYTE   INSEG    CODE           ?PR?I2C_READ_BYTE?MPU6050
FF6663H   FF6697H   000035H   BYTE   INSEG    CODE           ?PR?VL53L0X_SIMIIC_WRITE_DATS?TOF
FF6698H   FF66CBH   000034H   BYTE   INSEG    CODE           ?PR?VL53L0X_ENCODE_TIMEOUT?TOF
L251 LINKER/LOCATER V4.66.93.0                                                        07/12/2024  21:17:14  PAGE 6


FF66CCH   FF66FEH   000033H   BYTE   INSEG    CODE           ?PR?OLED_FILL?SEEKFREE_OLED
FF66FFH   FF6731H   000033H   BYTE   INSEG    CODE           ?PR?I2C_READ_BIT?MPU6050
FF6732H   FF6764H   000033H   BYTE   INSEG    CODE           ?PR?I2C_WRITE_BYTE?MPU6050
FF6765H   FF6797H   000033H   BYTE   INSEG    CODE           ?PR?INITMPU6050?MPU6050
FF6798H   FF67C5H   00002EH   BYTE   INSEG    CODE           ?PR?ADC_ONCE?ZF_ADC
FF67C6H   FF67F3H   00002EH   BYTE   INSEG    CODE           ?PR?VL53L0X_SEND_CH?TOF
FF67F4H   FF681EH   00002BH   BYTE   INSEG    CODE           ?PR?FILTER_WINDOW?MAIN
FF681FH   FF6849H   00002BH   BYTE   INSEG    CODE           ?PR?LIMIT_OUT?MOTOR
FF684AH   FF6874H   00002BH   BYTE   INSEG    CODE           ?PR?ADC_INITALL?ADC
FF6875H   FF689EH   00002AH   BYTE   INSEG    CODE           ?PR?I2C_WAIT_ACK?MPU6050
FF689FH   FF68C7H   000029H   BYTE   INSEG    CODE           ?PR?OLED_WRCMD?SEEKFREE_OLED
FF68C8H   FF68F0H   000029H   BYTE   INSEG    CODE           ?PR?OLED_WRDAT?SEEKFREE_OLED
FF68F1H   FF6919H   000029H   BYTE   INSEG    CODE           ?PR?VL53L0X_SIMIIC_READ_REG?TOF
FF691AH   FF6940H   000027H   BYTE   INSEG    CODE           ?PR?VL53L0X_SET_SIGNAL_RATE_LIMIT?TOF
FF6941H   FF6965H   000025H   BYTE   INSEG    CODE           ?PR?MEMCPY?_?MEMCPY
FF6966H   FF6989H   000024H   BYTE   INSEG    CODE           ?PR?KEY_INIT?KEY
FF698AH   FF69ACH   000023H   BYTE   INSEG    CODE           ?PR?OLED_SET_POS?SEEKFREE_OLED
FF69ADH   FF69CFH   000023H   BYTE   INSEG    CODE           ?PR?MPU6050_DMP_INIT?MPU6050
FF69D0H   FF69F1H   000022H   BYTE   INSEG    CODE           ?PR?VL53L0X_SIMIIC_WRITE_REG?TOF
FF69F2H   FF6A11H   000020H   BYTE   INSEG    CODE           ?PR?GETDEVICEID?MPU6050
FF6A12H   FF6A31H   000020H   BYTE   INSEG    CODE           ?PR?VL53L0X_SIMIIC_SENDACK?TOF
FF6A32H   FF6A4FH   00001EH   BYTE   INSEG    CODE           ?PR?UART2_ISR?ISR
FF6A50H   FF6A6DH   00001EH   BYTE   INSEG    CODE           ?PR?UART3_ISR?ISR
FF6A6EH   FF6A87H   00001AH   BYTE   INSEG    CODE           ?PR?MEMSET?_?MEMSET
FF6A88H   FF6AA0H   000019H   BYTE   INSEG    CODE           ?PR?BLUETOOTH_CH9141_UART_CALLBACK?SEEKFREE_BLUETOOTH_CH91
                                                             -41
FF6AA1H   FF6AB9H   000019H   BYTE   INSEG    CODE           ?PR?WIRELESS_UART_CALLBACK?SEEKFREE_WIRELESS
FF6ABAH   FF6AD2H   000019H   BYTE   INSEG    CODE           ?PR?WIRELESS_CH573_CALLBACK?SEEKFREE_WIRELESS_CH573
FF6AD3H   FF6AE9H   000017H   BYTE   INSEG    CODE           ?PR?DELAY_MS?ZF_DELAY
FF6AEAH   FF6AFEH   000015H   BYTE   INSEG    CODE           ?PR?I2C_ACK?MPU6050
FF6AFFH   FF6B13H   000015H   BYTE   INSEG    CODE           ?PR?MPU_WRITE_BYTE?MPU6050
FF6B14H   FF6B27H   000014H   BYTE   INSEG    CODE           ?PR?MPU_DELAY_MS?MPU6050
FF6B28H   FF6B3AH   000013H   BYTE   UNIT     CODE           ?PR?STRCPY?_
FF6B3BH   FF6B4CH   000012H   BYTE   INSEG    CODE           ?PR?I2C_NACK?MPU6050
FF6B4DH   FF6B5EH   000012H   BYTE   INSEG    CODE           ?PR?I2C_START?MPU6050
FF6B5FH   FF6B6FH   000011H   BYTE   INSEG    CODE           ?PR?NUM2ABS?MOTOR
FF6B70H   FF6B80H   000011H   BYTE   INSEG    CODE           ?PR?VL53L0X_SIMIIC_STOP?TOF
FF6B81H   FF6B91H   000011H   BYTE   INSEG    CODE           ?PR?BUZZER_INIT?BUZZER
FF6B92H   FF6BA1H   000010H   BYTE   INSEG    CODE           ?PR?VL53L0X_DECODE_TIMEOUT?TOF
FF6BA2H   FF6BB1H   000010H   BYTE   INSEG    CODE           ?PR?ABS?_?ABS
FF6BB2H   FF6BC0H   00000FH   BYTE   INSEG    CODE           ?PR?I2C_STOP?MPU6050
FF6BC1H   FF6BCFH   00000FH   BYTE   INSEG    CODE           ?PR?READDMP?MPU6050
FF6BD0H   FF6BDEH   00000FH   BYTE   INSEG    CODE           ?PR?VL53L0X_SIMIIC_START?TOF
FF6BDFH   FF6BECH   00000EH   BYTE   INSEG    CODE           ?PR?PUTCHAR?BOARD
FF6BEDH   FF6BF9H   00000DH   BYTE   INSEG    CODE           ?PR?MPU_WRITE_BITS?MPU6050
FF6BFAH   FF6C06H   00000DH   BYTE   INSEG    CODE           ?PR?MPU_WRITE_BIT?MPU6050
FF6C07H   FF6C13H   00000DH   BYTE   INSEG    CODE           ?PR?VL53L0X_SIMIIC_DELAY?TOF
FF6C14H   FF6C1EH   00000BH   BYTE   INSEG    CODE           ?PR?MPU_READ_LEN?MPU6050
FF6C1FH   FF6C29H   00000BH   BYTE   INSEG    CODE           ?PR?I2C_TIMEOUT_DELAY?MPU6050
FF6C2AH   FF6C34H   00000BH   BYTE   INSEG    CODE           ?PR?MPU_WRITE_LEN?MPU6050
FF6C35H   FF6C3FH   00000BH   BYTE   INSEG    CODE           ?PR?I2C_DELAY?MPU6050
FF6C40H   FF6C49H   00000AH   BYTE   INSEG    CODE           ?PR?DELAY1MS?MPU6050
FF6C4AH   FF6C52H   000009H   BYTE   INSEG    CODE           ?PR?MPU_READ_BIT?MPU6050
FF6C53H   FF6C5BH   000009H   BYTE   INSEG    CODE           ?PR?UI_INIT?UI
FF6C5CH   FF6C63H   000008H   BYTE   INSEG    CODE           ?PR?INT2_ISR?ISR
FF6C64H   FF6C6BH   000008H   BYTE   INSEG    CODE           ?PR?INT3_ISR?ISR
FF6C6CH   FF6C73H   000008H   BYTE   INSEG    CODE           ?PR?INT4_ISR?ISR
FF6C74H   FF6C7BH   000008H   BYTE   INSEG    CODE           ?PR?TM2_ISR?ISR
FF6C7CH   FF6C83H   000008H   BYTE   INSEG    CODE           ?PR?TM3_ISR?ISR
FF6C84H   FF6C8AH   000007H   BYTE   INSEG    CODE           ?PR?INT0_ISR?ISR
FF6C8BH   FF6C90H   000006H   BYTE   INSEG    CODE           ?PR?UI_SHOW?UI
FF6C91H   FF6E4CH   0001BCH   BYTE   UNIT     HCONST         ?C_INITEDATA
FF6E4DH   FF6EBEH   000072H   BYTE   UNIT     HCONST         ?HC?UI
FF6EBFH   FF6F16H   000058H   BYTE   UNIT     HCONST         ?HC?ZF_PWM
FF6F17H   FF6F36H   000020H   BYTE   UNIT     HCONST         ?HC?MAIN
L251 LINKER/LOCATER V4.66.93.0                                                        07/12/2024  21:17:14  PAGE 7


FF6F37H   FF6F4CH   000016H   BYTE   UNIT     HCONST         ?HC?TOF
FF6F4DH   FF6F56H   00000AH   BYTE   UNIT     HCONST         ?HC?SEEKFREE_OLED
FF6F57H   FF6F5CH   000006H   BYTE   UNIT     HCONST         ?HC?SEEKFREE_18TFT
FF6F5DH   FF6F62H   000006H   BYTE   UNIT     HCONST         ?HC?SEEKFREE_IPS114_SPI

* * * * * * * * *   R E M O V E D     S E G M E N T S   * * * * * * * *
   *DEL*:           000019H   BYTE   INSEG    CODE           ?PR?DELAY_US?ZF_DELAY
   *DEL*:           000016H   BYTE   INSEG    CODE           ?PR?IAP_SET_TPS?ZF_EEPROM
   *DEL*:           000015H   BYTE   INSEG    CODE           ?PR?EEPROM_TRIG?ZF_EEPROM
   *DEL*:           00000EH   BYTE   INSEG    CODE           ?PR?IAP_ERASE_PAGE?ZF_EEPROM
   *DEL*:           000004H   BYTE   INSEG    CODE           ?PR?IAP_IDLE?ZF_EEPROM
   *DEL*:           000047H   BYTE   INSEG    CODE           ?PR?IAP_READ_BYTES?ZF_EEPROM
   *DEL*:           00006DH   BYTE   INSEG    CODE           ?PR?EXTERN_IAP_WRITE_BYTES?ZF_EEPROM
   *DEL*:           000006H   BYTE   INSEG    CODE           ?PR?IAP_INIT?ZF_EEPROM
   *DEL*:           000047H   BYTE   INSEG    CODE           ?PR?IAP_WRITE_BYTES?ZF_EEPROM
   *DEL*:           00000CH   BYTE   INSEG    CODE           ?PR?IAP_GET_CMD_STATE?ZF_EEPROM
   *DEL*:           000004H   BYTE   UNIT     EDATA          ?ED?IAP_READ_BYTES?ZF_EEPROM
   *DEL*:           000004H   BYTE   UNIT     EDATA          ?ED?IAP_WRITE_BYTES?ZF_EEPROM
   *DEL*:           000204H   BYTE   UNIT     EDATA          ?ED?EXTERN_IAP_WRITE_BYTES?ZF_EEPROM
   *DEL*:           00003EH   BYTE   INSEG    CODE           ?PR?EXIT_INIT?ZF_EXTI
   *DEL*:           00006EH   BYTE   INSEG    CODE           ?PR?GPIO_PULL_SET?ZF_GPIO
   *DEL*:           000017H   BYTE   INSEG    CODE           ?PR?SEND_DATA?ZF_IIC
   *DEL*:           00002FH   BYTE   INSEG    CODE           ?PR?IIC_CHANGE_PIN?ZF_IIC
   *DEL*:           00001CH   BYTE   INSEG    CODE           ?PR?RECV_DATA?ZF_IIC
   *DEL*:           000010H   BYTE   INSEG    CODE           ?PR?START?ZF_IIC
   *DEL*:           000045H   BYTE   INSEG    CODE           ?PR?WAIT?ZF_IIC
   *DEL*:           000018H   BYTE   INSEG    CODE           ?PR?SEND_ACK?ZF_IIC
   *DEL*:           000010H   BYTE   INSEG    CODE           ?PR?RECV_ACK?ZF_IIC
   *DEL*:           000010H   BYTE   INSEG    CODE           ?PR?STOP?ZF_IIC
   *DEL*:           000019H   BYTE   INSEG    CODE           ?PR?SEND_NAK?ZF_IIC
   *DEL*:           00005EH   BYTE   INSEG    CODE           ?PR?IIC_INIT?ZF_IIC
   *DEL*:           000075H   BYTE   INSEG    CODE           ?PR?IIC_READ_REG?ZF_IIC
   *DEL*:           00009CH   BYTE   INSEG    CODE           ?PR?IIC_READ_REG_BYTES?ZF_IIC
   *DEL*:           000060H   BYTE   INSEG    CODE           ?PR?IIC_WRITE_REG?ZF_IIC
   *DEL*:           000015H   BYTE   INSEG    CODE           ?PR?IIC_DELAY_US?ZF_IIC
   *DEL*:           000004H   BYTE   UNIT     EDATA          ?ED?IIC_INIT?ZF_IIC
   *DEL*:           000004H   BYTE   UNIT     EDATA          ?ED?IIC_READ_REG?ZF_IIC
   *DEL*:           000003H   BYTE   UNIT     EDATA          ?ED?IIC_READ_REG_BYTES?ZF_IIC
   *DEL*:           00006CH   BYTE   INSEG    CODE           ?PR?NVIC_SETPRIORITY?ZF_NVIC
   *DEL*:           000121H   BYTE   INSEG    CODE           ?PR?PWM_FREQ?ZF_PWM
   *DEL*:           000004H   BYTE   UNIT     EDATA          ?ED?PWM_FREQ?ZF_PWM
   *DEL*:           00001DH   BYTE   INSEG    CODE           ?PR?SPI_CHANGE_MODE?ZF_SPI
   *DEL*:           0000AEH   BYTE   INSEG    CODE           ?PR?SPI_CHANGE_PIN?ZF_SPI
   *DEL*:           0000DFH   BYTE   INSEG    CODE           ?PR?SPI_INIT?ZF_SPI
   *DEL*:           00000EH   BYTE   INSEG    CODE           ?PR?SPI_MOSI?ZF_SPI
   *DEL*:           000004H   BYTE   UNIT     EDATA          ?ED?SPI_INIT?ZF_SPI
   *DEL*:           00009DH   BYTE   INSEG    CODE           ?PR?PIT_TIMER_US?ZF_TIM
   *DEL*:           00002DH   BYTE   INSEG    CODE           ?PR?UART_PUTBUFF?ZF_UART
   *DEL*:           00001EH   BYTE   INSEG    CODE           ?PR?UART_PUTSTR?ZF_UART
   *DEL*:           000004H   BYTE   UNIT     EDATA          ?ED?UART_PUTBUFF?ZF_UART
   *DEL*:           000002H   BYTE   UNIT     EDATA          ?ED?UART_PUTSTR?ZF_UART
   *DEL*:           000113H   BYTE   INSEG    CODE           ?PR?FIFO_READ_BUFFER?ZF_FIFO
   *DEL*:           000025H   BYTE   INSEG    CODE           ?PR?FIFO_CLEAR?ZF_FIFO
   *DEL*:           000046H   BYTE   INSEG    CODE           ?PR?FIFO_END_OFFSET?ZF_FIFO
   *DEL*:           000015H   BYTE   INSEG    CODE           ?PR?FIFO_USED?ZF_FIFO
   *DEL*:           000043H   BYTE   INSEG    CODE           ?PR?FIFO_INIT?ZF_FIFO
   *DEL*:           000004H   BYTE   UNIT     EDATA          ?ED?FIFO_INIT?ZF_FIFO
   *DEL*:           00000FH   BYTE   UNIT     EDATA          ?ED?FIFO_READ_BUFFER?ZF_FIFO
   *DEL*:           00008BH   BYTE   INSEG    CODE           ?PR?LCD_SHOWUINT16?SEEKFREE_18TFT
   *DEL*:           000082H   BYTE   INSEG    CODE           ?PR?LCD_SHOWINT32_SIMSPI?SEEKFREE_18TFT
   *DEL*:           0000DDH   BYTE   INSEG    CODE           ?PR?LCD_SHOWINT16_SIMSPI?SEEKFREE_18TFT
   *DEL*:           000082H   BYTE   INSEG    CODE           ?PR?LCD_SHOWINT32?SEEKFREE_18TFT
   *DEL*:           0000DDH   BYTE   INSEG    CODE           ?PR?LCD_SHOWINT16?SEEKFREE_18TFT
   *DEL*:           00002BH   BYTE   INSEG    CODE           ?PR?LCD_CLEAR_SIMSPI?SEEKFREE_18TFT
   *DEL*:           00002BH   BYTE   INSEG    CODE           ?PR?LCD_CLEAR?SEEKFREE_18TFT
L251 LINKER/LOCATER V4.66.93.0                                                        07/12/2024  21:17:14  PAGE 8


   *DEL*:           00004EH   BYTE   INSEG    CODE           ?PR?LCD_SHOWSTR_SIMSPI?SEEKFREE_18TFT
   *DEL*:           00004EH   BYTE   INSEG    CODE           ?PR?LCD_SHOWSTR?SEEKFREE_18TFT
   *DEL*:           000029H   BYTE   INSEG    CODE           ?PR?LCD_WRITEINDEX_SIMSPI?SEEKFREE_18TFT
   *DEL*:           000029H   BYTE   INSEG    CODE           ?PR?LCD_WRITEDATA_SIMSPI?SEEKFREE_18TFT
   *DEL*:           00000AH   BYTE   INSEG    CODE           ?PR?LCD_WRITEINDEX?SEEKFREE_18TFT
   *DEL*:           00000AH   BYTE   INSEG    CODE           ?PR?LCD_WRITEDATA?SEEKFREE_18TFT
   *DEL*:           00002CH   BYTE   INSEG    CODE           ?PR?LCD_WRITEDATA_16BIT_SIMSPI?SEEKFREE_18TFT
   *DEL*:           00004CH   BYTE   INSEG    CODE           ?PR?LCD_SET_REGION_SIMSPI?SEEKFREE_18TFT
   *DEL*:           0001F1H   BYTE   INSEG    CODE           ?PR?LCD_INIT_SIMSPI?SEEKFREE_18TFT
   *DEL*:           00009AH   BYTE   INSEG    CODE           ?PR?SHOWIMAGE?SEEKFREE_18TFT
   *DEL*:           000050H   BYTE   INSEG    CODE           ?PR?LCD_SET_REGION?SEEKFREE_18TFT
   *DEL*:           0001EEH   BYTE   INSEG    CODE           ?PR?LCD_INIT?SEEKFREE_18TFT
   *DEL*:           00007BH   BYTE   INSEG    CODE           ?PR?LCD_SHOWUINT8_SIMSPI?SEEKFREE_18TFT
   *DEL*:           00007BH   BYTE   INSEG    CODE           ?PR?LCD_SHOWUINT8?SEEKFREE_18TFT
   *DEL*:           0000B9H   BYTE   INSEG    CODE           ?PR?LCD_SHOWINT8_SIMSPI?SEEKFREE_18TFT
   *DEL*:           0000B9H   BYTE   INSEG    CODE           ?PR?LCD_SHOWINT8?SEEKFREE_18TFT
   *DEL*:           00001FH   BYTE   INSEG    CODE           ?PR?LCD_WRITEDATA_16BIT?SEEKFREE_18TFT
   *DEL*:           0000F8H   BYTE   INSEG    CODE           ?PR?LCD_SHOWFLOAT_SIMSPI?SEEKFREE_18TFT
   *DEL*:           000013H   BYTE   INSEG    CODE           ?PR?LCD_DRAWPOINT_SIMSPI?SEEKFREE_18TFT
   *DEL*:           0000F8H   BYTE   INSEG    CODE           ?PR?LCD_SHOWFLOAT?SEEKFREE_18TFT
   *DEL*:           000013H   BYTE   INSEG    CODE           ?PR?LCD_DRAWPOINT?SEEKFREE_18TFT
   *DEL*:           00008EH   BYTE   INSEG    CODE           ?PR?LCD_SHOWCHAR_SIMSPI?SEEKFREE_18TFT
   *DEL*:           00008EH   BYTE   INSEG    CODE           ?PR?LCD_SHOWCHAR?SEEKFREE_18TFT
   *DEL*:           00008BH   BYTE   INSEG    CODE           ?PR?LCD_SHOWUINT16_SIMSPI?SEEKFREE_18TFT
   *DEL*:           000004H   BYTE   UNIT     EDATA          ?ED?LCD_SET_REGION_SIMSPI?SEEKFREE_18TFT
   *DEL*:           000004H   BYTE   UNIT     EDATA          ?ED?LCD_SHOWCHAR_SIMSPI?SEEKFREE_18TFT
   *DEL*:           000006H   BYTE   UNIT     EDATA          ?ED?LCD_SHOWSTR_SIMSPI?SEEKFREE_18TFT
   *DEL*:           000005H   BYTE   UNIT     EDATA          ?ED?LCD_SHOWINT8_SIMSPI?SEEKFREE_18TFT
   *DEL*:           000004H   BYTE   UNIT     EDATA          ?ED?LCD_SHOWUINT8_SIMSPI?SEEKFREE_18TFT
   *DEL*:           000008H   BYTE   UNIT     EDATA          ?ED?LCD_SHOWINT16_SIMSPI?SEEKFREE_18TFT
   *DEL*:           000006H   BYTE   UNIT     EDATA          ?ED?LCD_SHOWUINT16_SIMSPI?SEEKFREE_18TFT
   *DEL*:           000028H   BYTE   UNIT     EDATA          ?ED?LCD_SHOWINT32_SIMSPI?SEEKFREE_18TFT
   *DEL*:           00002BH   BYTE   UNIT     EDATA          ?ED?LCD_SHOWFLOAT_SIMSPI?SEEKFREE_18TFT
   *DEL*:           000002H   BYTE   UNIT     EDATA          ?ED?LCD_WRITEDATA_16BIT?SEEKFREE_18TFT
   *DEL*:           000004H   BYTE   UNIT     EDATA          ?ED?LCD_SET_REGION?SEEKFREE_18TFT
   *DEL*:           000004H   BYTE   UNIT     EDATA          ?ED?LCD_SHOWCHAR?SEEKFREE_18TFT
   *DEL*:           000006H   BYTE   UNIT     EDATA          ?ED?LCD_SHOWSTR?SEEKFREE_18TFT
   *DEL*:           000005H   BYTE   UNIT     EDATA          ?ED?LCD_SHOWINT8?SEEKFREE_18TFT
   *DEL*:           000004H   BYTE   UNIT     EDATA          ?ED?LCD_SHOWUINT8?SEEKFREE_18TFT
   *DEL*:           000008H   BYTE   UNIT     EDATA          ?ED?LCD_SHOWINT16?SEEKFREE_18TFT
   *DEL*:           000006H   BYTE   UNIT     EDATA          ?ED?LCD_SHOWUINT16?SEEKFREE_18TFT
   *DEL*:           000028H   BYTE   UNIT     EDATA          ?ED?LCD_SHOWINT32?SEEKFREE_18TFT
   *DEL*:           00002BH   BYTE   UNIT     EDATA          ?ED?LCD_SHOWFLOAT?SEEKFREE_18TFT
   *DEL*:           000008H   BYTE   UNIT     EDATA          ?ED?SHOWIMAGE?SEEKFREE_18TFT
   *DEL*:           000011H   BYTE   INSEG    CODE           ?PR?ENCODER_SELF4_CHECK?SEEKFREE_ABSOLUTE_ENCODER
   *DEL*:           000011H   BYTE   INSEG    CODE           ?PR?ENCODER_SELF5_CHECK?SEEKFREE_ABSOLUTE_ENCODER
   *DEL*:           00002FH   BYTE   INSEG    CODE           ?PR?ENCODER_SPI_R_REG_BYTE?SEEKFREE_ABSOLUTE_ENCODER
   *DEL*:           000005H   BYTE   INSEG    CODE           ?PR?ENCODER_DELAY_US?SEEKFREE_ABSOLUTE_ENCODER
   *DEL*:           000038H   BYTE   INSEG    CODE           ?PR?ENCODER_SPI_W_REG_BYTE?SEEKFREE_ABSOLUTE_ENCODER
   *DEL*:           00001CH   BYTE   INSEG    CODE           ?PR?SIMSPI_R_REG_BYTE?SEEKFREE_ABSOLUTE_ENCODER
   *DEL*:           00001AH   BYTE   INSEG    CODE           ?PR?SIMSPI_W_REG_BYTE?SEEKFREE_ABSOLUTE_ENCODER
   *DEL*:           000029H   BYTE   INSEG    CODE           ?PR?ENCODER_INIT_SPI?SEEKFREE_ABSOLUTE_ENCODER
   *DEL*:           000004H   BYTE   INSEG    CODE           ?PR?SPI_WR_BYTE?SEEKFREE_ABSOLUTE_ENCODER
   *DEL*:           000024H   BYTE   INSEG    CODE           ?PR?SET_ZERO_POSITION_SIMSPI?SEEKFREE_ABSOLUTE_ENCODER
   *DEL*:           000023H   BYTE   INSEG    CODE           ?PR?ENCODER_ANGLE_SIMSPI?SEEKFREE_ABSOLUTE_ENCODER
   *DEL*:           00001CH   BYTE   INSEG    CODE           ?PR?SPI_R_REG_BYTE?SEEKFREE_ABSOLUTE_ENCODER
   *DEL*:           00001AH   BYTE   INSEG    CODE           ?PR?SPI_W_REG_BYTE?SEEKFREE_ABSOLUTE_ENCODER
   *DEL*:           00002FH   BYTE   INSEG    CODE           ?PR?ENCODER_SIMSPI_R_REG_BYTE?SEEKFREE_ABSOLUTE_ENCODER
   *DEL*:           000038H   BYTE   INSEG    CODE           ?PR?ENCODER_SIMSPI_W_REG_BYTE?SEEKFREE_ABSOLUTE_ENCODER
   *DEL*:           00000FH   BYTE   INSEG    CODE           ?PR?ENCODER_INIT_SIMSPI?SEEKFREE_ABSOLUTE_ENCODER
   *DEL*:           000024H   BYTE   INSEG    CODE           ?PR?SET_ZERO_POSITION_SPI?SEEKFREE_ABSOLUTE_ENCODER
   *DEL*:           00001FH   BYTE   INSEG    CODE           ?PR?SIMSPI_WR_BYTE?SEEKFREE_ABSOLUTE_ENCODER
   *DEL*:           000023H   BYTE   INSEG    CODE           ?PR?ENCODER_ANGLE_SPI?SEEKFREE_ABSOLUTE_ENCODER
   *DEL*:           000001H   BYTE   UNIT     EDATA          ?ED?ENCODER_SELF4_CHECK?SEEKFREE_ABSOLUTE_ENCODER
   *DEL*:           000001H   BYTE   UNIT     EDATA          ?ED?ENCODER_SELF5_CHECK?SEEKFREE_ABSOLUTE_ENCODER
L251 LINKER/LOCATER V4.66.93.0                                                        07/12/2024  21:17:14  PAGE 9


   *DEL*:           00000FH   BYTE   INSEG    CODE           ?PR?SIMIIC_START?SEEKFREE_IIC
   *DEL*:           000066H   BYTE   INSEG    CODE           ?PR?SIMIIC_READ_REGS?SEEKFREE_IIC
   *DEL*:           000001H   BYTE   INSEG    CODE           ?PR?SIMIIC_INIT?SEEKFREE_IIC
   *DEL*:           000034H   BYTE   INSEG    CODE           ?PR?SIMIIC_READ_REG?SEEKFREE_IIC
   *DEL*:           000011H   BYTE   INSEG    CODE           ?PR?SIMIIC_STOP?SEEKFREE_IIC
   *DEL*:           000022H   BYTE   INSEG    CODE           ?PR?SIMIIC_WRITE_REG?SEEKFREE_IIC
   *DEL*:           000020H   BYTE   INSEG    CODE           ?PR?SIMIIC_SENDACK?SEEKFREE_IIC
   *DEL*:           00003BH   BYTE   INSEG    CODE           ?PR?READ_CH?SEEKFREE_IIC
   *DEL*:           00002EH   BYTE   INSEG    CODE           ?PR?SEND_CH?SEEKFREE_IIC
   *DEL*:           00001CH   BYTE   INSEG    CODE           ?PR?SCCB_WAITACK?SEEKFREE_IIC
   *DEL*:           00000BH   BYTE   INSEG    CODE           ?PR?SIMIIC_DELAY?SEEKFREE_IIC
   *DEL*:           000005H   BYTE   UNIT     EDATA          ?ED?SIMIIC_READ_REGS?SEEKFREE_IIC
   *DEL*:           000055H   BYTE   INSEG    CODE           ?PR?MPU6050_INIT?SEEKFREE_MPU6050
   *DEL*:           00002CH   BYTE   INSEG    CODE           ?PR?MPU6050_SELF1_CHECK?SEEKFREE_MPU6050
   *DEL*:           000044H   BYTE   INSEG    CODE           ?PR?MPU6050_GET_GYRO?SEEKFREE_MPU6050
   *DEL*:           000044H   BYTE   INSEG    CODE           ?PR?MPU6050_GET_ACCDATA?SEEKFREE_MPU6050
   *DEL*:           000006H   BYTE   UNIT     EDATA          ?ED?MPU6050_GET_ACCDATA?SEEKFREE_MPU6050
   *DEL*:           000006H   BYTE   UNIT     EDATA          ?ED?MPU6050_GET_GYRO?SEEKFREE_MPU6050
   *DEL*:           000033H   BYTE   INSEG    CODE           ?PR?OLED_PUTPIXEL?SEEKFREE_OLED
   *DEL*:           000032H   BYTE   INSEG    CODE           ?PR?OLED_HEXASCII_SPI?SEEKFREE_OLED
   *DEL*:           000325H   BYTE   INSEG    CODE           ?PR?OLED_DIS_BMP_SPI?SEEKFREE_OLED
   *DEL*:           0000E8H   BYTE   INSEG    CODE           ?PR?OLED_P8X16STR_SPI?SEEKFREE_OLED
   *DEL*:           00002AH   BYTE   INSEG    CODE           ?PR?OLED_CLRPIXEL_SPI?SEEKFREE_OLED
   *DEL*:           000090H   BYTE   INSEG    CODE           ?PR?OLED_PRINT_CHINESE_SPI?SEEKFREE_OLED
   *DEL*:           000082H   BYTE   INSEG    CODE           ?PR?OLED_PRINTF_INT32?SEEKFREE_OLED
   *DEL*:           00001DH   BYTE   INSEG    CODE           ?PR?OLED_UINT16?SEEKFREE_OLED
   *DEL*:           000031H   BYTE   INSEG    CODE           ?PR?OLED_PUTPIXEL_SPI?SEEKFREE_OLED
   *DEL*:           000021H   BYTE   INSEG    CODE           ?PR?OLED_SET_POS_SPI?SEEKFREE_OLED
   *DEL*:           0000A9H   BYTE   INSEG    CODE           ?PR?OLED_P6X8STR?SEEKFREE_OLED
   *DEL*:           00004BH   BYTE   INSEG    CODE           ?PR?OLED_INT16?SEEKFREE_OLED
   *DEL*:           0000F8H   BYTE   INSEG    CODE           ?PR?OLED_PRINTF_FLOAT_SPI?SEEKFREE_OLED
   *DEL*:           00000AH   BYTE   INSEG    CODE           ?PR?OLED_WRCMD_SPI?SEEKFREE_OLED
   *DEL*:           00000AH   BYTE   INSEG    CODE           ?PR?OLED_WRDAT_SPI?SEEKFREE_OLED
   *DEL*:           000032H   BYTE   INSEG    CODE           ?PR?OLED_HEXASCII?SEEKFREE_OLED
   *DEL*:           000033H   BYTE   INSEG    CODE           ?PR?OLED_FILL_SPI?SEEKFREE_OLED
   *DEL*:           000082H   BYTE   INSEG    CODE           ?PR?OLED_PRINTF_INT32_SPI?SEEKFREE_OLED
   *DEL*:           00001DH   BYTE   INSEG    CODE           ?PR?OLED_UINT16_SPI?SEEKFREE_OLED
   *DEL*:           0000A9H   BYTE   INSEG    CODE           ?PR?OLED_P6X8STR_SPI?SEEKFREE_OLED
   *DEL*:           00004BH   BYTE   INSEG    CODE           ?PR?OLED_INT16_SPI?SEEKFREE_OLED
   *DEL*:           00033BH   BYTE   INSEG    CODE           ?PR?OLED_DIS_BMP?SEEKFREE_OLED
   *DEL*:           0000BFH   BYTE   INSEG    CODE           ?PR?OLED_INIT_SPI?SEEKFREE_OLED
   *DEL*:           00002CH   BYTE   INSEG    CODE           ?PR?OLED_CLRPIXEL?SEEKFREE_OLED
   *DEL*:           000090H   BYTE   INSEG    CODE           ?PR?OLED_PRINT_CHINESE?SEEKFREE_OLED
   *DEL*:           000005H   BYTE   UNIT     EDATA          ?ED?OLED_P6X8STR?SEEKFREE_OLED
   *DEL*:           000007H   BYTE   UNIT     EDATA          ?ED?OLED_UINT16?SEEKFREE_OLED
   *DEL*:           000007H   BYTE   UNIT     EDATA          ?ED?OLED_INT16?SEEKFREE_OLED
   *DEL*:           000028H   BYTE   UNIT     EDATA          ?ED?OLED_PRINTF_INT32?SEEKFREE_OLED
   *DEL*:           00000CH   BYTE   UNIT     EDATA          ?ED?OLED_DIS_BMP?SEEKFREE_OLED
   *DEL*:           00000AH   BYTE   UNIT     EDATA          ?ED?OLED_PRINT_CHINESE?SEEKFREE_OLED
   *DEL*:           000005H   BYTE   UNIT     EDATA          ?ED?OLED_P6X8STR_SPI?SEEKFREE_OLED
   *DEL*:           000005H   BYTE   UNIT     EDATA          ?ED?OLED_P8X16STR_SPI?SEEKFREE_OLED
   *DEL*:           000007H   BYTE   UNIT     EDATA          ?ED?OLED_UINT16_SPI?SEEKFREE_OLED
   *DEL*:           000007H   BYTE   UNIT     EDATA          ?ED?OLED_INT16_SPI?SEEKFREE_OLED
   *DEL*:           000028H   BYTE   UNIT     EDATA          ?ED?OLED_PRINTF_INT32_SPI?SEEKFREE_OLED
   *DEL*:           00002BH   BYTE   UNIT     EDATA          ?ED?OLED_PRINTF_FLOAT_SPI?SEEKFREE_OLED
   *DEL*:           00000CH   BYTE   UNIT     EDATA          ?ED?OLED_DIS_BMP_SPI?SEEKFREE_OLED
   *DEL*:           00000AH   BYTE   UNIT     EDATA          ?ED?OLED_PRINT_CHINESE_SPI?SEEKFREE_OLED
   *DEL*:           00005EH   BYTE   INSEG    CODE           ?PR?AT24C02_READ_BYTES?SEEKFREE_AT24C02
   *DEL*:           000017H   BYTE   INSEG    CODE           ?PR?AT24C02_READ_BYTE?SEEKFREE_AT24C02
   *DEL*:           00005BH   BYTE   INSEG    CODE           ?PR?AT24C02_WRITE_BYTES?SEEKFREE_AT24C02
   *DEL*:           000019H   BYTE   INSEG    CODE           ?PR?AT24C02_WRITE_BYTE?SEEKFREE_AT24C02
   *DEL*:           000002H   BYTE   UNIT     EDATA          ?ED?AT24C02_WRITE_BYTES?SEEKFREE_AT24C02
   *DEL*:           000002H   BYTE   UNIT     EDATA          ?ED?AT24C02_READ_BYTES?SEEKFREE_AT24C02
   *DEL*:           000022H   BYTE   INSEG    CODE           ?PR?BLUETOOTH_CH9141_READ_BUFF?SEEKFREE_BLUETOOTH_CH9141
   *DEL*:           0000ABH   BYTE   INSEG    CODE           ?PR?BLUETOOTH_CH9141_SEND_BUFF?SEEKFREE_BLUETOOTH_CH9141
L251 LINKER/LOCATER V4.66.93.0                                                        07/12/2024  21:17:14  PAGE 10


   *DEL*:           00003CH   BYTE   INSEG    CODE           ?PR?BLUETOOTH_CH9141_INIT?SEEKFREE_BLUETOOTH_CH9141
   *DEL*:           000006H   BYTE   UNIT     EDATA          ?ED?BLUETOOTH_CH9141_SEND_BUFF?SEEKFREE_BLUETOOTH_CH9141
   *DEL*:           000004H   BYTE   UNIT     EDATA          ?ED?BLUETOOTH_CH9141_READ_BUFF?SEEKFREE_BLUETOOTH_CH9141
   *DEL*:           00001FH   BYTE   INSEG    CODE           ?PR?ICM_SIMSPI_WR_BYTE?SEEKFREE_ICM20602
   *DEL*:           000075H   BYTE   INSEG    CODE           ?PR?ICM20602_INIT_SIMIIC?SEEKFREE_ICM20602
   *DEL*:           000040H   BYTE   INSEG    CODE           ?PR?ICM_SIMSPI_R_REG_BYTES?SEEKFREE_ICM20602
   *DEL*:           00001CH   BYTE   INSEG    CODE           ?PR?ICM_SIMSPI_R_REG_BYTE?SEEKFREE_ICM20602
   *DEL*:           000013H   BYTE   INSEG    CODE           ?PR?ICM_SIMSPI_W_REG_BYTE?SEEKFREE_ICM20602
   *DEL*:           000059H   BYTE   INSEG    CODE           ?PR?ICM20602_INIT_SIMSPI?SEEKFREE_ICM20602
   *DEL*:           00002BH   BYTE   INSEG    CODE           ?PR?ICM20602_SELF1_CHECK?SEEKFREE_ICM20602
   *DEL*:           000011H   BYTE   INSEG    CODE           ?PR?ICM20602_SELF4_CHECK?SEEKFREE_ICM20602
   *DEL*:           000044H   BYTE   INSEG    CODE           ?PR?GET_ICM20602_GYRO_SIMIIC?SEEKFREE_ICM20602
   *DEL*:           000044H   BYTE   INSEG    CODE           ?PR?GET_ICM20602_ACCDATA_SIMIIC?SEEKFREE_ICM20602
   *DEL*:           00003DH   BYTE   INSEG    CODE           ?PR?GET_ICM20602_GYRO_SIMSPI?SEEKFREE_ICM20602
   *DEL*:           00003DH   BYTE   INSEG    CODE           ?PR?GET_ICM20602_ACCDATA_SIMSPI?SEEKFREE_ICM20602
   *DEL*:           000006H   BYTE   UNIT     EDATA          ?ED?GET_ICM20602_ACCDATA_SIMIIC?SEEKFREE_ICM20602
   *DEL*:           000006H   BYTE   UNIT     EDATA          ?ED?GET_ICM20602_GYRO_SIMIIC?SEEKFREE_ICM20602
   *DEL*:           000003H   BYTE   UNIT     EDATA          ?ED?ICM_SIMSPI_R_REG_BYTES?SEEKFREE_ICM20602
   *DEL*:           000001H   BYTE   UNIT     EDATA          ?ED?ICM20602_SELF4_CHECK?SEEKFREE_ICM20602
   *DEL*:           000001H   BYTE   UNIT     EDATA          ?ED?ICM20602_INIT_SIMSPI?SEEKFREE_ICM20602
   *DEL*:           000006H   BYTE   UNIT     EDATA          ?ED?GET_ICM20602_ACCDATA_SIMSPI?SEEKFREE_ICM20602
   *DEL*:           000006H   BYTE   UNIT     EDATA          ?ED?GET_ICM20602_GYRO_SIMSPI?SEEKFREE_ICM20602
   *DEL*:           00007BH   BYTE   INSEG    CODE           ?PR?IPS114_SHOWUINT8_SIMSPI?SEEKFREE_IPS114_SPI
   *DEL*:           000077H   BYTE   INSEG    CODE           ?PR?IPS114_SHOWUINT8?SEEKFREE_IPS114_SPI
   *DEL*:           0000B9H   BYTE   INSEG    CODE           ?PR?IPS114_SHOWINT8_SIMSPI?SEEKFREE_IPS114_SPI
   *DEL*:           0000B5H   BYTE   INSEG    CODE           ?PR?IPS114_SHOWINT8?SEEKFREE_IPS114_SPI
   *DEL*:           00001FH   BYTE   INSEG    CODE           ?PR?IPS114_WRITEDATA_16BIT?SEEKFREE_IPS114_SPI
   *DEL*:           0000F8H   BYTE   INSEG    CODE           ?PR?IPS114_SHOWFLOAT_SIMSPI?SEEKFREE_IPS114_SPI
   *DEL*:           000013H   BYTE   INSEG    CODE           ?PR?IPS114_DRAWPOINT_SIMSPI?SEEKFREE_IPS114_SPI
   *DEL*:           0000F8H   BYTE   INSEG    CODE           ?PR?IPS114_SHOWFLOAT?SEEKFREE_IPS114_SPI
   *DEL*:           000013H   BYTE   INSEG    CODE           ?PR?IPS114_DRAWPOINT?SEEKFREE_IPS114_SPI
   *DEL*:           00008EH   BYTE   INSEG    CODE           ?PR?IPS114_SHOWCHAR_SIMSPI?SEEKFREE_IPS114_SPI
   *DEL*:           00008EH   BYTE   INSEG    CODE           ?PR?IPS114_SHOWCHAR?SEEKFREE_IPS114_SPI
   *DEL*:           00008BH   BYTE   INSEG    CODE           ?PR?IPS114_SHOWUINT16_SIMSPI?SEEKFREE_IPS114_SPI
   *DEL*:           00008BH   BYTE   INSEG    CODE           ?PR?IPS114_SHOWUINT16?SEEKFREE_IPS114_SPI
   *DEL*:           000082H   BYTE   INSEG    CODE           ?PR?IPS114_SHOWINT32_SIMSPI?SEEKFREE_IPS114_SPI
   *DEL*:           0000DDH   BYTE   INSEG    CODE           ?PR?IPS114_SHOWINT16_SIMSPI?SEEKFREE_IPS114_SPI
   *DEL*:           000082H   BYTE   INSEG    CODE           ?PR?IPS114_SHOWINT32?SEEKFREE_IPS114_SPI
   *DEL*:           0000D9H   BYTE   INSEG    CODE           ?PR?IPS114_SHOWINT16?SEEKFREE_IPS114_SPI
   *DEL*:           00003CH   BYTE   INSEG    CODE           ?PR?IPS114_CLEAR_SIMSPI?SEEKFREE_IPS114_SPI
   *DEL*:           00003CH   BYTE   INSEG    CODE           ?PR?IPS114_CLEAR?SEEKFREE_IPS114_SPI
   *DEL*:           00002CH   BYTE   INSEG    CODE           ?PR?IPS114_WRITEDATAI_16BIT_SIMSPI?SEEKFREE_IPS114_SPI
   *DEL*:           00004EH   BYTE   INSEG    CODE           ?PR?IPS114_SHOWSTR_SIMSPI?SEEKFREE_IPS114_SPI
   *DEL*:           00004EH   BYTE   INSEG    CODE           ?PR?IPS114_SHOWSTR?SEEKFREE_IPS114_SPI
   *DEL*:           000029H   BYTE   INSEG    CODE           ?PR?IPS114_WRITEINDEX_SIMSPI?SEEKFREE_IPS114_SPI
   *DEL*:           000029H   BYTE   INSEG    CODE           ?PR?IPS114_WRITEDATA_SIMSPI?SEEKFREE_IPS114_SPI
   *DEL*:           00000AH   BYTE   INSEG    CODE           ?PR?IPS114_WRITEINDEX?SEEKFREE_IPS114_SPI
   *DEL*:           00000AH   BYTE   INSEG    CODE           ?PR?IPS114_WRITEDATA?SEEKFREE_IPS114_SPI
   *DEL*:           000044H   BYTE   INSEG    CODE           ?PR?IPS114_SET_REGION_SIMSPI?SEEKFREE_IPS114_SPI
   *DEL*:           00014FH   BYTE   INSEG    CODE           ?PR?IPS114_INIT_SIMSPI?SEEKFREE_IPS114_SPI
   *DEL*:           000048H   BYTE   INSEG    CODE           ?PR?IPS114_SET_REGION?SEEKFREE_IPS114_SPI
   *DEL*:           00016DH   BYTE   INSEG    CODE           ?PR?IPS114_INIT?SEEKFREE_IPS114_SPI
   *DEL*:           000004H   BYTE   UNIT     EDATA          ?ED?IPS114_SET_REGION_SIMSPI?SEEKFREE_IPS114_SPI
   *DEL*:           000002H   BYTE   UNIT     EDATA          ?ED?IPS114_CLEAR_SIMSPI?SEEKFREE_IPS114_SPI
   *DEL*:           000004H   BYTE   UNIT     EDATA          ?ED?IPS114_SHOWCHAR_SIMSPI?SEEKFREE_IPS114_SPI
   *DEL*:           000006H   BYTE   UNIT     EDATA          ?ED?IPS114_SHOWSTR_SIMSPI?SEEKFREE_IPS114_SPI
   *DEL*:           000005H   BYTE   UNIT     EDATA          ?ED?IPS114_SHOWINT8_SIMSPI?SEEKFREE_IPS114_SPI
   *DEL*:           000004H   BYTE   UNIT     EDATA          ?ED?IPS114_SHOWUINT8_SIMSPI?SEEKFREE_IPS114_SPI
   *DEL*:           000008H   BYTE   UNIT     EDATA          ?ED?IPS114_SHOWINT16_SIMSPI?SEEKFREE_IPS114_SPI
   *DEL*:           000006H   BYTE   UNIT     EDATA          ?ED?IPS114_SHOWUINT16_SIMSPI?SEEKFREE_IPS114_SPI
   *DEL*:           000028H   BYTE   UNIT     EDATA          ?ED?IPS114_SHOWINT32_SIMSPI?SEEKFREE_IPS114_SPI
   *DEL*:           00002BH   BYTE   UNIT     EDATA          ?ED?IPS114_SHOWFLOAT_SIMSPI?SEEKFREE_IPS114_SPI
   *DEL*:           000002H   BYTE   UNIT     EDATA          ?ED?IPS114_WRITEDATA_16BIT?SEEKFREE_IPS114_SPI
   *DEL*:           000004H   BYTE   UNIT     EDATA          ?ED?IPS114_SET_REGION?SEEKFREE_IPS114_SPI
   *DEL*:           000002H   BYTE   UNIT     EDATA          ?ED?IPS114_CLEAR?SEEKFREE_IPS114_SPI
L251 LINKER/LOCATER V4.66.93.0                                                        07/12/2024  21:17:14  PAGE 11


   *DEL*:           000004H   BYTE   UNIT     EDATA          ?ED?IPS114_SHOWCHAR?SEEKFREE_IPS114_SPI
   *DEL*:           000006H   BYTE   UNIT     EDATA          ?ED?IPS114_SHOWSTR?SEEKFREE_IPS114_SPI
   *DEL*:           000005H   BYTE   UNIT     EDATA          ?ED?IPS114_SHOWINT8?SEEKFREE_IPS114_SPI
   *DEL*:           000004H   BYTE   UNIT     EDATA          ?ED?IPS114_SHOWUINT8?SEEKFREE_IPS114_SPI
   *DEL*:           000008H   BYTE   UNIT     EDATA          ?ED?IPS114_SHOWINT16?SEEKFREE_IPS114_SPI
   *DEL*:           000006H   BYTE   UNIT     EDATA          ?ED?IPS114_SHOWUINT16?SEEKFREE_IPS114_SPI
   *DEL*:           000028H   BYTE   UNIT     EDATA          ?ED?IPS114_SHOWINT32?SEEKFREE_IPS114_SPI
   *DEL*:           00002BH   BYTE   UNIT     EDATA          ?ED?IPS114_SHOWFLOAT?SEEKFREE_IPS114_SPI
   *DEL*:           000070H   BYTE   INSEG    CODE           ?PR?CCD_SEND_DATA?SEEKFREE_TSL1401
   *DEL*:           000016H   BYTE   INSEG    CODE           ?PR?CCD_INIT?SEEKFREE_TSL1401
   *DEL*:           000035H   BYTE   INSEG    CODE           ?PR?CCD_COLLECT?SEEKFREE_TSL1401
   *DEL*:           000003H   BYTE   UNIT     EDATA          ?ED?CCD_SEND_DATA?SEEKFREE_TSL1401
   *DEL*:           00003AH   BYTE   INSEG    CODE           ?PR?CRC_CHECK?SEEKFREE_VIRSCO
   *DEL*:           000069H   BYTE   INSEG    CODE           ?PR?DATA_CONVERSION?SEEKFREE_VIRSCO
   *DEL*:           000004H   BYTE   UNIT     EDATA          ?ED?DATA_CONVERSION?SEEKFREE_VIRSCO
   *DEL*:           000022H   BYTE   INSEG    CODE           ?PR?WIRELESS_UART_READ_BUFF?SEEKFREE_WIRELESS
   *DEL*:           00005DH   BYTE   INSEG    CODE           ?PR?WIRELESS_UART_SEND_BUFF?SEEKFREE_WIRELESS
   *DEL*:           00003CH   BYTE   INSEG    CODE           ?PR?WIRELESS_UART_INIT?SEEKFREE_WIRELESS
   *DEL*:           000002H   BYTE   UNIT     EDATA          ?ED?WIRELESS_UART_SEND_BUFF?SEEKFREE_WIRELESS
   *DEL*:           000004H   BYTE   UNIT     EDATA          ?ED?WIRELESS_UART_READ_BUFF?SEEKFREE_WIRELESS
   *DEL*:           000022H   BYTE   INSEG    CODE           ?PR?WIRELESS_CH573_READ_BUFF?SEEKFREE_WIRELESS_CH573
   *DEL*:           00005DH   BYTE   INSEG    CODE           ?PR?WIRELESS_CH573_SEND_BUFF?SEEKFREE_WIRELESS_CH573
   *DEL*:           00003CH   BYTE   INSEG    CODE           ?PR?WIRELESS_CH573_INIT?SEEKFREE_WIRELESS_CH573
   *DEL*:           000002H   BYTE   UNIT     EDATA          ?ED?WIRELESS_CH573_SEND_BUFF?SEEKFREE_WIRELESS_CH573
   *DEL*:           000004H   BYTE   UNIT     EDATA          ?ED?WIRELESS_CH573_READ_BUFF?SEEKFREE_WIRELESS_CH573
   *DEL*:           000012H   BYTE   INSEG    CODE           ?PR?MOTOR_TEST?MOTOR
   *DEL*:           000013H   BYTE   INSEG    CODE           ?PR?MPU_SET_GYRO_FSR?MPU6050
   *DEL*:           000058H   BYTE   INSEG    CODE           ?PR?MPU_GET_ACCELEROMETER?MPU6050
   *DEL*:           000041H   BYTE   INSEG    CODE           ?PR?MPU_SET_LPF?MPU6050
   *DEL*:           000016H   BYTE   INSEG    CODE           ?PR?MPU_READ_BYTE?MPU6050
   *DEL*:           000013H   BYTE   INSEG    CODE           ?PR?MPU_SET_ACCEL_FSR?MPU6050
   *DEL*:           000031H   BYTE   INSEG    CODE           ?PR?ZERO_ALL?MPU6050
   *DEL*:           000069H   BYTE   INSEG    CODE           ?PR?MPU_INIT?MPU6050
   *DEL*:           00003BH   BYTE   INSEG    CODE           ?PR?MPU_GET_TEMPERATURE?MPU6050
   *DEL*:           000037H   BYTE   INSEG    CODE           ?PR?MPU_SET_RATE?MPU6050
   *DEL*:           000001H   BYTE   UNIT     EDATA          ?ED?MPU_READ_BYTE?MPU6050
   *DEL*:           000002H   BYTE   UNIT     EDATA          ?ED?MPU_GET_TEMPERATURE?MPU6050
   *DEL*:           00000EH   BYTE   UNIT     EDATA          ?ED?MPU_GET_ACCELEROMETER?MPU6050
   *DEL*:           000095H   BYTE   INSEG    CODE           ?PR?ELEM_BARRIER_TIMER?ELEMENT
   *DEL*:           00002DH   BYTE   INSEG    CODE           ?PR?OLED_CHANGE_VALUE?UI
   *DEL*:           00005FH   BYTE   INSEG    CODE           ?PR?SONAR?HCSR04
   *DEL*:           00002CH   BYTE   INSEG    CODE           ?PR?HC_SR04_INIT?HCSR04



OVERLAY MAP OF MODULE:   .\Out_File\SEEKFREE (board)


FUNCTION/MODULE                               EDATA_GROUP
--> CALLED FUNCTION/MODULE                    START  STOP
=========================================================
UART1_Isr/isr                                 ----- -----

*** NEW ROOT ********************************

UART2_Isr/isr                                 ----- -----

*** NEW ROOT ********************************

UART3_Isr/isr                                 ----- -----

*** NEW ROOT ********************************

UART4_Isr/isr                                 ----- -----
  +--> wireless_uart_callback/SEEKFREE_WIRELESS
L251 LINKER/LOCATER V4.66.93.0                                                        07/12/2024  21:17:14  PAGE 12


  +--> bluetooth_ch9141_uart_callback/SEEKFREE_BLUETOOTH_CH9141
  +--> wireless_ch573_callback/SEEKFREE_WIRELESS_CH573

wireless_uart_callback/SEEKFREE_WIRELESS      ----- -----
  +--> fifo_write_buffer/zf_fifo

fifo_write_buffer/zf_fifo                     03EEH 03F9H
  +--> memcpy?_/memcpy
  +--> fifo_head_offset/zf_fifo

memcpy?_/memcpy                               ----- -----

fifo_head_offset/zf_fifo                      ----- -----

bluetooth_ch9141_uart_callback/SEEKFREE_+     ----- -----
... BLUETOOTH_CH9141
  +--> fifo_write_buffer/zf_fifo

wireless_ch573_callback/SEEKFREE_WIRELES+     ----- -----
... S_CH573
  +--> fifo_write_buffer/zf_fifo

*** NEW ROOT ********************************

INT0_Isr/isr                                  ----- -----

*** NEW ROOT ********************************

INT1_Isr/isr                                  ----- -----

*** NEW ROOT ********************************

INT2_Isr/isr                                  ----- -----

*** NEW ROOT ********************************

INT3_Isr/isr                                  ----- -----

*** NEW ROOT ********************************

INT4_Isr/isr                                  ----- -----

*** NEW ROOT ********************************

TM0_Isr/isr                                   ----- -----

*** NEW ROOT ********************************

TM1_Isr/isr                                   ----- -----

*** NEW ROOT ********************************

TM2_Isr/isr                                   ----- -----

*** NEW ROOT ********************************

TM3_Isr/isr                                   ----- -----

*** NEW ROOT ********************************

TM4_Isr/isr                                   ----- -----
  +--> Get_Speed/motor
  +--> ADC_GetValue/ADC
  +--> Get_Ratio/isr
  +--> vl53l0x_get_distance/TOF
L251 LINKER/LOCATER V4.66.93.0                                                        07/12/2024  21:17:14  PAGE 13


  +--> Num2Abs/motor
  +--> Elem_Circle/Element
  +--> Elem_Barrier/Element
  +--> Limit_Out/motor
  +--> PID_Calculate/PID
  +--> PID_Incremental_Calc/PID
  +--> abs?_/ABS
  +--> Left_SetSpeed/motor
  +--> Right_SetSpeed/motor
  +--> pwm_duty/zf_pwm

Get_Speed/motor                               ----- -----
  +--> ctimer_count_read/zf_tim
  +--> ctimer_count_clean/zf_tim

ctimer_count_read/zf_tim                      ----- -----

ctimer_count_clean/zf_tim                     ----- -----

ADC_GetValue/ADC                              ----- -----
  +--> adc_once/zf_adc

adc_once/zf_adc                               ----- -----

Get_Ratio/isr                                 ----- -----

vl53l0x_get_distance/TOF                      03FAH 03FCH
  +--> vl53l0x_simiic_read_regs_1/TOF
  +--> abs?_/ABS

vl53l0x_simiic_read_regs_1/TOF                03FDH 0402H
  +--> vl53l0x_simiic_start/TOF
  +--> vl53l0x_send_ch/TOF
  +--> vl53l0x_read_ch/TOF
  +--> vl53l0x_simiic_stop/TOF

vl53l0x_simiic_start/TOF                      ----- -----
  +--> vl53l0x_simiic_delay/TOF

vl53l0x_simiic_delay/TOF                      ----- -----

vl53l0x_send_ch/TOF                           ----- -----
  +--> vl53l0x_simiic_delay/TOF
  +--> vl53l0x_sccb_waitack/TOF

vl53l0x_sccb_waitack/TOF                      ----- -----
  +--> vl53l0x_simiic_delay/TOF

vl53l0x_read_ch/TOF                           ----- -----
  +--> vl53l0x_simiic_delay/TOF
  +--> vl53l0x_simiic_sendack/TOF

vl53l0x_simiic_sendack/TOF                    ----- -----
  +--> vl53l0x_simiic_delay/TOF

vl53l0x_simiic_stop/TOF                       ----- -----
  +--> vl53l0x_simiic_delay/TOF

abs?_/ABS                                     ----- -----

Num2Abs/motor                                 ----- -----

Elem_Circle/Element                           ----- -----

Elem_Barrier/Element                          ----- -----
L251 LINKER/LOCATER V4.66.93.0                                                        07/12/2024  21:17:14  PAGE 14



Limit_Out/motor                               0402H 0405H

PID_Calculate/PID                             03FAH 03FDH

PID_Incremental_Calc/PID                      03FAH 0401H
  +--> Limit_Out/motor

Left_SetSpeed/motor                           ----- -----
  +--> abs?_/ABS
  +--> pwm_duty/zf_pwm

pwm_duty/zf_pwm                               ----- -----

Right_SetSpeed/motor                          ----- -----
  +--> abs?_/ABS
  +--> pwm_duty/zf_pwm

*** NEW ROOT ********************************

?C_C51STARTUP                                 ----- -----

*** NEW ROOT ********************************

?C_C51STARTUP?3                               ----- -----
  +--> main/main

main/main                                     ----- -----
  +--> Init_all/main
  +--> EnableGlobalIRQ/board
  +--> PRINTF/PRINTF
  +--> ui_show/UI
  +--> GetKey_Value/Key
  +--> oled_all_static_state/UI
  +--> MPU6050_Refresh_DMP/MPU6050
  +--> MPU_Get_Gyroscope/MPU6050
  +--> Filter_Window/main
  +--> Speed_Gain/main
  +--> Elem_Up_Down/Element

Init_all/main                                 ----- -----
  +--> DisableGlobalIRQ/board
  +--> board_init/board
  +--> gpio_mode/zf_gpio
  +--> Key_Init/Key
  +--> vl53l0x_init/TOF
  +--> ui_init/UI
  +--> MPU6050_DMP_Init/MPU6050
  +--> pit_timer_ms/zf_tim
  +--> ctimer_count_init/zf_tim
  +--> Motor_Init/motor
  +--> Buzzer_Init/Buzzer
  +--> ADC_InitAll/ADC
  +--> PID_Init/PID
  +--> PID_Incremental_Init/PID

DisableGlobalIRQ/board                        ----- -----

board_init/board                              ----- -----
  +--> delay_init/zf_delay
  +--> uart_init/zf_uart

delay_init/zf_delay                           ----- -----
  +--> ?C?SLDIV/?C?SLDIV

L251 LINKER/LOCATER V4.66.93.0                                                        07/12/2024  21:17:14  PAGE 15


?C?SLDIV/?C?SLDIV                             ----- -----
  +--> ?C?ULIDIV/?C?ULDIV

?C?ULIDIV/?C?ULDIV                            ----- -----

uart_init/zf_uart                             0406H 040BH
  +--> ?C?ULIDIV/?C?ULDIV

gpio_mode/zf_gpio                             ----- -----

Key_Init/Key                                  ----- -----
  +--> gpio_mode/zf_gpio

vl53l0x_init/TOF                              0406H 0417H
  +--> memset?_/memset
  +--> vl53l0x_simiic_read_reg/TOF
  +--> vl53l0x_simiic_write_reg/TOF
  +--> vl53l0x_simiic_read_regs/TOF
  +--> vl53l0x_set_signal_rate_limit/TOF
  +--> vl53l0x_get_spad_info/TOF
  +--> PRINTF/PRINTF
  +--> vl53l0x_simiic_write_dats/TOF
  +--> vl53l0x_get_measurement_timing_budget/TOF
  +--> vl53l0x_set_measurement_timing_budget/TOF
  +--> vl53l0x_perform_single_ref_calibration/TOF
  +--> delay_ms/zf_delay

memset?_/memset                               ----- -----

vl53l0x_simiic_read_reg/TOF                   ----- -----
  +--> vl53l0x_simiic_start/TOF
  +--> vl53l0x_send_ch/TOF
  +--> vl53l0x_read_ch/TOF
  +--> vl53l0x_simiic_stop/TOF

vl53l0x_simiic_write_reg/TOF                  ----- -----
  +--> vl53l0x_simiic_start/TOF
  +--> vl53l0x_send_ch/TOF
  +--> vl53l0x_simiic_stop/TOF

vl53l0x_simiic_read_regs/TOF                  0442H 0447H
  +--> vl53l0x_simiic_start/TOF
  +--> vl53l0x_send_ch/TOF
  +--> vl53l0x_read_ch/TOF
  +--> vl53l0x_simiic_stop/TOF

vl53l0x_set_signal_rate_limit/TOF             0418H 041AH
  +--> vl53l0x_simiic_write_dats/TOF

vl53l0x_simiic_write_dats/TOF                 043BH 043FH
  +--> vl53l0x_simiic_start/TOF
  +--> vl53l0x_send_ch/TOF
  +--> vl53l0x_simiic_stop/TOF

vl53l0x_get_spad_info/TOF                     0418H 041FH
  +--> vl53l0x_simiic_write_reg/TOF
  +--> vl53l0x_simiic_read_regs/TOF

PRINTF/PRINTF                                 0418H 043FH
  +--> OUT/PRINTF

OUT/PRINTF                                    ----- -----
  +--> PUTCH/PRINTF

PUTCH/PRINTF                                  ----- -----
L251 LINKER/LOCATER V4.66.93.0                                                        07/12/2024  21:17:14  PAGE 16


  +--> putchar/board
  +--> OUT/PRINTF

putchar/board                                 ----- -----
  +--> uart_putchar/zf_uart

uart_putchar/zf_uart                          ----- -----

vl53l0x_get_measurement_timing_budget/TO+     0418H 0432H
... F
  +--> vl53l0x_get_sequence_step_enables/TOF
  +--> vl53l0x_get_sequence_step_timeouts/TOF

vl53l0x_get_sequence_step_enables/TOF         043BH 043BH
  +--> vl53l0x_simiic_read_regs/TOF

vl53l0x_get_sequence_step_timeouts/TOF        043BH 0440H
  +--> vl53l0x_get_vcsel_pulse_period/TOF
  +--> vl53l0x_simiic_read_regs/TOF
  +--> vl53l0x_timeout_mclks_to_microseconds/TOF
  +--> vl53l0x_decode_timeout/TOF

vl53l0x_get_vcsel_pulse_period/TOF            0441H 0441H
  +--> vl53l0x_simiic_read_regs/TOF

vl53l0x_timeout_mclks_to_microseconds/TO+     ----- -----
... F
  +--> ?C?ULIDIV/?C?ULDIV

vl53l0x_decode_timeout/TOF                    ----- -----

vl53l0x_set_measurement_timing_budget/TO+     0418H 043AH
... F
  +--> vl53l0x_get_sequence_step_enables/TOF
  +--> vl53l0x_get_sequence_step_timeouts/TOF
  +--> vl53l0x_timeout_microseconds_to_mclks/TOF
  +--> vl53l0x_encode_timeout/TOF
  +--> vl53l0x_simiic_write_dats/TOF

vl53l0x_timeout_microseconds_to_mclks/TO+     ----- -----
... F
  +--> ?C?ULIDIV/?C?ULDIV

vl53l0x_encode_timeout/TOF                    ----- -----

vl53l0x_perform_single_ref_calibration/T+     0418H 041AH
... OF
  +--> vl53l0x_simiic_write_reg/TOF
  +--> vl53l0x_simiic_read_regs/TOF

delay_ms/zf_delay                             ----- -----

ui_init/UI                                    ----- -----
  +--> oled_init/SEEKFREE_OLED
  +--> value_name_init/UI
  +--> oled_all_static_state/UI

oled_init/SEEKFREE_OLED                       ----- -----
  +--> delay_ms/zf_delay
  +--> oled_wrcmd/SEEKFREE_OLED
  +--> oled_fill/SEEKFREE_OLED
  +--> oled_set_pos/SEEKFREE_OLED

oled_wrcmd/SEEKFREE_OLED                      ----- -----

L251 LINKER/LOCATER V4.66.93.0                                                        07/12/2024  21:17:14  PAGE 17


oled_fill/SEEKFREE_OLED                       ----- -----
  +--> oled_wrcmd/SEEKFREE_OLED
  +--> oled_wrdat/SEEKFREE_OLED

oled_wrdat/SEEKFREE_OLED                      ----- -----

oled_set_pos/SEEKFREE_OLED                    ----- -----
  +--> oled_wrcmd/SEEKFREE_OLED

value_name_init/UI                            ----- -----
  +--> STRCPY?_/STRCPY?_

STRCPY?_/STRCPY?_                             ----- -----

oled_all_static_state/UI                      ----- -----
  +--> oled_p8x16str/SEEKFREE_OLED

oled_p8x16str/SEEKFREE_OLED                   0431H 0435H
  +--> oled_set_pos/SEEKFREE_OLED
  +--> oled_wrdat/SEEKFREE_OLED

MPU6050_DMP_Init/MPU6050                      ----- -----
  +--> initMPU6050/MPU6050
  +--> getDeviceID/MPU6050
  +--> dmpInitialize/MPU6050
  +--> MPU_Write_Bit/MPU6050

initMPU6050/MPU6050                           ----- -----
  +--> MPU_Write_Bits/MPU6050
  +--> MPU_Write_Bit/MPU6050

MPU_Write_Bits/MPU6050                        ----- -----
  +--> i2c_write_bits/MPU6050

i2c_write_bits/MPU6050                        040CH 040CH
  +--> i2c_mem_read/MPU6050
  +--> i2c_mem_write/MPU6050

i2c_mem_read/MPU6050                          0414H 0417H
  +--> i2c_start/MPU6050
  +--> i2c_write_byte/MPU6050
  +--> i2c_wait_ack/MPU6050
  +--> i2c_read_byte/MPU6050
  +--> i2c_stop/MPU6050

i2c_start/MPU6050                             ----- -----
  +--> I2C_SDA_H/MPU6050
  +--> I2C_SCL_H/MPU6050
  +--> i2c_delay/MPU6050
  +--> I2C_SDA_L/MPU6050
  +--> I2C_SCL_L/MPU6050

I2C_SDA_H/MPU6050                             ----- -----

I2C_SCL_H/MPU6050                             ----- -----

i2c_delay/MPU6050                             ----- -----

I2C_SDA_L/MPU6050                             ----- -----

I2C_SCL_L/MPU6050                             ----- -----

i2c_write_byte/MPU6050                        ----- -----
  +--> I2C_SCL_L/MPU6050
  +--> I2C_SDA_H/MPU6050
L251 LINKER/LOCATER V4.66.93.0                                                        07/12/2024  21:17:14  PAGE 18


  +--> I2C_SDA_L/MPU6050
  +--> i2c_delay/MPU6050
  +--> I2C_SCL_H/MPU6050

i2c_wait_ack/MPU6050                          ----- -----
  +--> I2C_SCL_H/MPU6050
  +--> i2c_delay/MPU6050
  +--> i2c_timeout_delay/MPU6050
  +--> i2c_stop/MPU6050
  +--> I2C_SDA_Read/MPU6050
  +--> I2C_SCL_L/MPU6050

i2c_timeout_delay/MPU6050                     ----- -----

i2c_stop/MPU6050                              ----- -----
  +--> I2C_SDA_L/MPU6050
  +--> I2C_SCL_H/MPU6050
  +--> i2c_delay/MPU6050
  +--> I2C_SDA_H/MPU6050

I2C_SDA_Read/MPU6050                          ----- -----

i2c_read_byte/MPU6050                         ----- -----
  +--> I2C_SCL_L/MPU6050
  +--> i2c_delay/MPU6050
  +--> I2C_SCL_H/MPU6050
  +--> I2C_SDA_Read/MPU6050
  +--> i2c_nack/MPU6050
  +--> i2c_ack/MPU6050

i2c_nack/MPU6050                              ----- -----
  +--> I2C_SCL_L/MPU6050
  +--> I2C_SDA_H/MPU6050
  +--> i2c_delay/MPU6050
  +--> I2C_SCL_H/MPU6050

i2c_ack/MPU6050                               ----- -----
  +--> I2C_SCL_L/MPU6050
  +--> I2C_SDA_L/MPU6050
  +--> i2c_delay/MPU6050
  +--> I2C_SCL_H/MPU6050
  +--> I2C_SDA_H/MPU6050

i2c_mem_write/MPU6050                         040FH 0412H
  +--> i2c_start/MPU6050
  +--> i2c_write_byte/MPU6050
  +--> i2c_wait_ack/MPU6050
  +--> i2c_stop/MPU6050

MPU_Write_Bit/MPU6050                         ----- -----
  +--> i2c_write_bit/MPU6050

i2c_write_bit/MPU6050                         040CH 040CH
  +--> i2c_mem_read/MPU6050
  +--> i2c_mem_write/MPU6050

getDeviceID/MPU6050                           0406H 0406H
  +--> MPU_Read_Bits/MPU6050

MPU_Read_Bits/MPU6050                         ----- -----
  +--> i2c_read_bits/MPU6050

i2c_read_bits/MPU6050                         040CH 040FH
  +--> i2c_mem_read/MPU6050

L251 LINKER/LOCATER V4.66.93.0                                                        07/12/2024  21:17:14  PAGE 19


dmpInitialize/MPU6050                         0406H 040BH
  +--> MPU_Write_Bit/MPU6050
  +--> MPU_Delay_Ms/MPU6050
  +--> MPU_Write_Byte/MPU6050
  +--> MPU_Read_Len/MPU6050
  +--> MPU_Read_Bit/MPU6050
  +--> MPU_Read_Bits/MPU6050
  +--> loadfirmware/MPU6050
  +--> loadcfgupd/MPU6050
  +--> MPU_Write_Bits/MPU6050
  +--> xdmpUpdates/MPU6050
  +--> getFIFOCount/MPU6050

MPU_Delay_Ms/MPU6050                          ----- -----
  +--> Delay1ms/MPU6050

Delay1ms/MPU6050                              ----- -----

MPU_Write_Byte/MPU6050                        040EH 040EH
  +--> i2c_mem_write/MPU6050

MPU_Read_Len/MPU6050                          ----- -----
  +--> i2c_mem_read/MPU6050

MPU_Read_Bit/MPU6050                          ----- -----
  +--> i2c_read_bit/MPU6050

i2c_read_bit/MPU6050                          040CH 040DH
  +--> i2c_mem_read/MPU6050

loadfirmware/MPU6050                          040CH 040DH
  +--> MPU_Write_Byte/MPU6050
  +--> MPU_Write_Len/MPU6050

MPU_Write_Len/MPU6050                         ----- -----
  +--> i2c_mem_write/MPU6050

loadcfgupd/MPU6050                            040CH 040DH
  +--> MPU_Write_Byte/MPU6050
  +--> MPU_Write_Len/MPU6050

xdmpUpdates/MPU6050                           040CH 040CH
  +--> MPU_Write_Byte/MPU6050
  +--> MPU_Write_Len/MPU6050

getFIFOCount/MPU6050                          040CH 040DH
  +--> MPU_Read_Len/MPU6050

pit_timer_ms/zf_tim                           ----- -----
  +--> ?C?SLDIV/?C?SLDIV

ctimer_count_init/zf_tim                      ----- -----

Motor_Init/motor                              ----- -----
  +--> pwm_init/zf_pwm

pwm_init/zf_pwm                               0406H 040DH
  +--> pwm_set_gpio/zf_pwm
  +--> ?C?ULIDIV/?C?ULDIV

pwm_set_gpio/zf_pwm                           ----- -----
  +--> gpio_mode/zf_gpio

Buzzer_Init/Buzzer                            ----- -----
  +--> pwm_init/zf_pwm
L251 LINKER/LOCATER V4.66.93.0                                                        07/12/2024  21:17:14  PAGE 20



ADC_InitAll/ADC                               ----- -----
  +--> adc_init/zf_adc

adc_init/zf_adc                               ----- -----

PID_Init/PID                                  0406H 0419H

PID_Incremental_Init/PID                      0406H 0416H

EnableGlobalIRQ/board                         ----- -----

ui_show/UI                                    ----- -----
  +--> refresh_value/UI
  +--> oled_show/UI

refresh_value/UI                              ----- -----

oled_show/UI                                  ----- -----
  +--> refresh_value/UI
  +--> oled_printf_float/SEEKFREE_OLED

oled_printf_float/SEEKFREE_OLED               0406H 0430H
  +--> zf_sprintf/SEEKFREE_PRINTF
  +--> oled_p8x16str/SEEKFREE_OLED

zf_sprintf/SEEKFREE_PRINTF                    0431H 048FH
  +--> number_conversion_ascii/SEEKFREE_PRINTF
  +--> printf_reverse_order/SEEKFREE_PRINTF
  +--> memcpy?_/memcpy

number_conversion_ascii/SEEKFREE_PRINTF       0490H 0490H
  +--> ?C?SLDIV/?C?SLDIV
  +--> ?C?ULIDIV/?C?ULDIV

printf_reverse_order/SEEKFREE_PRINTF          ----- -----

GetKey_Value/Key                              ----- -----

MPU6050_Refresh_DMP/MPU6050                   ----- -----
  +--> getFIFOCount/MPU6050
  +--> MPU_Read_Len/MPU6050
  +--> MPU_Write_Bit/MPU6050
  +--> readdmp/MPU6050
  +--> atan2?_/atan2

readdmp/MPU6050                               ----- -----
  +--> MPU_Read_Len/MPU6050

atan2?_/atan2                                 ----- -----

MPU_Get_Gyroscope/MPU6050                     0406H 0413H
  +--> MPU_Read_Len/MPU6050

Filter_Window/main                            ----- -----

Speed_Gain/main                               ----- -----

Elem_Up_Down/Element                          ----- -----

*** NEW ROOT ********************************

?C_C51STARTUP?2                               ----- -----


L251 LINKER/LOCATER V4.66.93.0                                                        07/12/2024  21:17:14  PAGE 21



PUBLIC SYMBOLS OF MODULE:  .\Out_File\SEEKFREE (board)


      VALUE       CLASS    TYPE      PUBLIC SYMBOL NAME
      =================================================
      00FF111EH   CODE     NEAR LAB  ?C?CASTF
      000000FFH   NUMBER   ---       ?C?CODESEG
      00FF10EBH   CODE     NEAR LAB  ?C?FCASTC
      00FF10E6H   CODE     NEAR LAB  ?C?FCASTI
      00FF10E1H   CODE     NEAR LAB  ?C?FCASTL
      00FF18BFH   CODE     ---       ?C?FP2SERIES
      00FF0EB4H   CODE     ---       ?C?FPADD
      00FF108FH   CODE     ---       ?C?FPCMP
      00FF108DH   CODE     ---       ?C?FPCMP3
      00FF17C4H   CODE     ---       ?C?FPCONVERT
      00FF100CH   CODE     ---       ?C?FPDIV
      00FF1237H   CODE     ---       ?C?FPGETOPN2
      00FF0F6CH   CODE     ---       ?C?FPMUL
      00FF1274H   CODE     ---       ?C?FPNANRESULT
      00FF10D3H   CODE     ---       ?C?FPNEG
      00FF127CH   CODE     ---       ?C?FPOVERFLOW
      00FF1250H   CODE     ---       ?C?FPRESULT
      00FF1266H   CODE     ---       ?C?FPRESULT2
      00FF187CH   CODE     ---       ?C?FPROUND
      00FF18C8H   CODE     ---       ?C?FPSERIES
      00FF0EB1H   CODE     ---       ?C?FPSUB
      00FF1279H   CODE     ---       ?C?FPUNDERFLOW
      00FF191CH   CODE     ---       ?C?FTNPWR
      00FF6497H   CODE     ---       ?C?INITEDATA
      00FF6E4BH   HCONST   WORD      ?C?INITEDATA_END
      00FF1996H   CODE     ---       ?C?LIMUL
      00FF1985H   CODE     ---       ?C?LMUL
      00FF12B5H   CODE     ---       ?C?PRNFMT
      00FF1953H   CODE     ---       ?C?SIDIV
      00FF19F2H   CODE     NEAR LAB  ?C?SLDIV
      00FF0000H   CODE     ---       ?C?STARTUP
      00FF19A1H   CODE     NEAR LAB  ?C?ULDIV
      00FF199FH   CODE     NEAR LAB  ?C?ULIDIV
      00000001H   NUMBER   ---       ?C?XDATASEG
      00FF0000H   CODE     ---       ?C_STARTUP
*DEL*:1FFFFFF8H   EDATA    BYTE      ?data_conversion?BYTE
*DEL*:1FFFFFF8H   EDATA    BYTE      ?fifo_init?BYTE
*DEL*:1FFFFFFCH   EDATA    BYTE      ?fifo_read_buffer?BYTE
      000003EAH   EDATA    BYTE      ?fifo_write_buffer?BYTE
*DEL*:1FFFFFFAH   EDATA    BYTE      ?iic_init?BYTE
*DEL*:1FFFFFFCH   EDATA    BYTE      ?ips114_showfloat?BYTE
*DEL*:1FFFFFFCH   EDATA    BYTE      ?ips114_showfloat_simspi?BYTE
*DEL*:1FFFFFFCH   EDATA    BYTE      ?lcd_showfloat?BYTE
*DEL*:1FFFFFFCH   EDATA    BYTE      ?lcd_showfloat_simspi?BYTE
      000003FAH   EDATA    BYTE      ?Limit_Out?BYTE
*DEL*:1FFFFFFCH   EDATA    BYTE      ?MPU_Get_Accelerometer?BYTE
      00000402H   EDATA    BYTE      ?MPU_Get_Gyroscope?BYTE
      00000487H   EDATA    BYTE      ?number_conversion_ascii?BYTE
      00000402H   EDATA    BYTE      ?oled_printf_float?BYTE
*DEL*:1FFFFFFCH   EDATA    BYTE      ?oled_printf_float_spi?BYTE
      000003F2H   EDATA    BYTE      ?PID_Calculate?BYTE
      000003F2H   EDATA    BYTE      ?PID_Incremental_Calc?BYTE
      000003FEH   EDATA    BYTE      ?PID_Incremental_Init?BYTE
      000003FEH   EDATA    BYTE      ?PID_Init?BYTE
      00000440H   EDATA    ---       ?printf?BYTE
*DEL*:1FFFFFFAH   EDATA    BYTE      ?pwm_freq?BYTE
      00000404H   EDATA    BYTE      ?pwm_init?BYTE
*DEL*:1FFFFFF7H   EDATA    BYTE      ?spi_init?BYTE
      00000400H   EDATA    BYTE      ?uart_init?BYTE
L251 LINKER/LOCATER V4.66.93.0                                                        07/12/2024  21:17:14  PAGE 22


      00000459H   EDATA    BYTE      ?zf_sprintf?BYTE
      00FF6BA2H   CODE     ---       abs?_
      00000549H   EDATA    FLOAT     Act_PwmL
      000004FCH   EDATA    FLOAT     Act_PwmR
      0000065DH   EDATA    ---       ADC_Array_Original
*SFR* 000000BCH   DATA     BYTE      ADC_CONTR
      00FF47CCH   CODE     ---       ADC_GetValue
      00FF5F58H   CODE     ---       adc_init
      00FF684AH   CODE     ---       ADC_InitAll
      00FF6798H   CODE     ---       adc_once
      00000699H   EDATA    ---       ADC_proc
*SFR* 000000BDH   DATA     BYTE      ADC_RES
*SFR* 000000BEH   DATA     BYTE      ADC_RESL
*SFR* 000000DEH   DATA     BYTE      ADCCFG
      000006B2H   EDATA    FLOAT     Adjust_Val
      0000052BH   EDATA    FLOAT     Angle_Edge
      00FF1217H   CODE     ---       asin?_
*DEL*:00000000H   CODE     ---       at24c02_read_byte
*DEL*:00000000H   CODE     ---       at24c02_read_bytes
*DEL*:00000000H   CODE     ---       at24c02_write_byte
*DEL*:00000000H   CODE     ---       at24c02_write_bytes
      00FF62F3H   CODE     ---       atan2?_
      00FF16E4H   CODE     ---       ATAN?_
*SFR* 000000EFH   DATA     BYTE      AUXINTIF
*SFR* 0000008EH   DATA     BYTE      AUXR
      000006F3H   EDATA    CHAR      Barrier_Executed
      000006E5H   EDATA    CHAR      Barrier_Flag1
      000006E8H   EDATA    CHAR      Barrier_Flag2
      000006E9H   EDATA    CHAR      Barrier_Flag3
*DEL*:00000000H   CODE     ---       bluetooth_ch9141_init
*DEL*:00000000H   CODE     ---       bluetooth_ch9141_read_buff
*DEL*:00000000H   CODE     ---       bluetooth_ch9141_send_buff
      00FF6A88H   CODE     ---       bluetooth_ch9141_uart_callback
      00FF5986H   CODE     ---       board_init
      000003E9H   EDATA    ---       busy
      00FF6B81H   CODE     ---       Buzzer_Init
*DEL*:00000000H   CODE     ---       ccd_collect
      0000013EH   EDATA    ---       ccd_data
*DEL*:00000000H   CODE     ---       ccd_init
*DEL*:00000000H   CODE     ---       ccd_send_data
      000006F9H   EDATA    INT       circle_Delay1
      000006E6H   EDATA    INT       Circle_Delay2
      000006EAH   EDATA    FLOAT     Circle_Flag1
      000006EEH   EDATA    FLOAT     Circle_Flag2
      000006F2H   EDATA    CHAR      Circle_Flag3
      00000760H   EDATA    CHAR      clear_Num
      0000051EH   EDATA    CHAR      count
*DEL*:00000000H   CODE     ---       CRC_CHECK
      00FF61BEH   CODE     ---       ctimer_count_clean
      00FF62A9H   CODE     ---       ctimer_count_init
      00FF620FH   CODE     ---       ctimer_count_read
*DEL*:00000000H   CODE     ---       data_conversion
      00FF6C40H   CODE     ---       Delay1ms
      00FF65F3H   CODE     ---       delay_init
      00FF6AD3H   CODE     ---       delay_ms
*DEL*:00000000H   CODE     ---       delay_us
      00000545H   EDATA    FLOAT     Diff
      00000541H   EDATA    FLOAT     Diff_Mid
      000006E0H   EDATA    FLOAT     Dis_Bar
      000006AEH   EDATA    FLOAT     Dis_Process
      00FF0016H   CODE     ---       DisableGlobalIRQ
      0000052FH   EDATA    CHAR      Distance_Num
      00FF1A55H   CODE     ---       dmpcfgupddata
      000004C1H   EDATA    ---       dmpdatas
      00FF3D2CH   CODE     ---       dmpInitialize
L251 LINKER/LOCATER V4.66.93.0                                                        07/12/2024  21:17:14  PAGE 23


      00FF1B15H   CODE     ---       dmpmemorydata
      00FF1A26H   CODE     ---       dmpUpdates
      000006F4H   EDATA    CHAR      Down_Flag
*SFR* 000000A8H.7 DATA     BIT       EA
      00000539H   EDATA    CHAR      Edge_Delay
*DEL*:00000000H   CODE     ---       eeprom_trig
      00FF4A4EH   CODE     ---       Elem_Barrier
*DEL*:00000000H   CODE     ---       Elem_Barrier_Timer
      00FF3F58H   CODE     ---       Elem_Circle
      00FF6443H   CODE     ---       Elem_Up_Down
      00FF000EH   CODE     ---       EnableGlobalIRQ
*DEL*:00000000H   CODE     ---       encoder_angle_simspi
*DEL*:00000000H   CODE     ---       encoder_angle_spi
*DEL*:00000000H   CODE     ---       encoder_delay_us
*DEL*:00000000H   CODE     ---       encoder_init_simspi
*DEL*:00000000H   CODE     ---       encoder_init_spi
*DEL*:00000000H   CODE     ---       encoder_self4_check
*DEL*:00000000H   CODE     ---       encoder_self5_check
*DEL*:00000000H   CODE     ---       encoder_simspi_r_reg_byte
*DEL*:00000000H   CODE     ---       encoder_simspi_w_reg_byte
*DEL*:00000000H   CODE     ---       encoder_spi_r_reg_byte
*DEL*:00000000H   CODE     ---       encoder_spi_w_reg_byte
*SFR* 000000A8H.4 DATA     BIT       ES
*SFR* 000000A8H.1 DATA     BIT       ET0
*SFR* 000000A8H.3 DATA     BIT       ET1
*SFR* 000000A8H.0 DATA     BIT       EX0
*SFR* 000000A8H.2 DATA     BIT       EX1
*DEL*:00000000H   CODE     ---       exit_init
      00000508H   EDATA    FLOAT     Exp_Speed
      0000050EH   EDATA    FLOAT     Exp_Speed_gain
      0000051FH   EDATA    FLOAT     Exp_Speed_L
      00000523H   EDATA    FLOAT     Exp_Speed_R
*DEL*:00000000H   CODE     ---       extern_iap_write_bytes
*SFR* 000000D0H.5 DATA     BIT       F0
*DEL*:00000000H   CODE     ---       fifo_clear
*DEL*:00000000H   CODE     ---       fifo_end_offset
      00FF63BFH   CODE     ---       fifo_head_offset
*DEL*:00000000H   CODE     ---       fifo_init
*DEL*:00000000H   CODE     ---       fifo_read_buffer
*DEL*:00000000H   CODE     ---       fifo_used
      00FF4FFBH   CODE     ---       fifo_write_buffer
      00FF67F4H   CODE     ---       Filter_Window
      00000530H   EDATA    FLOAT     Flag_Out_L
      00000535H   EDATA    FLOAT     Flag_Out_R
      0000050DH   EDATA    CHAR      Flag_Stop
*DEL*:00000000H   CODE     ---       get_icm20602_accdata_simiic
*DEL*:00000000H   CODE     ---       get_icm20602_accdata_simspi
*DEL*:00000000H   CODE     ---       get_icm20602_gyro_simiic
*DEL*:00000000H   CODE     ---       get_icm20602_gyro_simspi
      00FF4917H   CODE     ---       Get_Ratio
      00FF5344H   CODE     ---       Get_Speed
      00FF69F2H   CODE     ---       getDeviceID
      00FF0026H   CODE     ---       getFIFOCount
      00FF5C6FH   CODE     ---       GetKey_Value
      00FF2D9AH   CODE     ---       gpio_mode
*DEL*:00000000H   CODE     ---       gpio_pull_set
      0000053BH   EDATA    INT       gx
      0000053DH   EDATA    INT       gy
      0000053FH   EDATA    INT       gz
*DEL*:00000000H   CODE     ---       HC_SR04_Init
      00FF6AEAH   CODE     ---       i2c_ack
      00FF6C35H   CODE     ---       i2c_delay
      00FF5B05H   CODE     ---       i2c_mem_read
      00FF5EF9H   CODE     ---       i2c_mem_write
      00FF6B3BH   CODE     ---       i2c_nack
L251 LINKER/LOCATER V4.66.93.0                                                        07/12/2024  21:17:14  PAGE 24


      00FF66FFH   CODE     ---       i2c_read_bit
      00FF5DC5H   CODE     ---       i2c_read_bits
      00FF662CH   CODE     ---       i2c_read_byte
      00FF005EH   CODE     ---       I2C_SCL_H
      00FF0086H   CODE     ---       I2C_SCL_L
      00FF001EH   CODE     ---       I2C_SDA_H
      00FF0056H   CODE     ---       I2C_SDA_L
      00FF0006H   CODE     ---       I2C_SDA_Read
      00FF6B4DH   CODE     ---       i2c_start
      00FF6BB2H   CODE     ---       i2c_stop
      00FF6C1FH   CODE     ---       i2c_timeout_delay
      00FF6875H   CODE     ---       i2c_wait_ack
      00FF5FB6H   CODE     ---       i2c_write_bit
      00FF5A88H   CODE     ---       i2c_write_bits
      00FF6732H   CODE     ---       i2c_write_byte
*SFR* 000000F6H   DATA     BYTE      IAP_ADDRE
*SFR* 000000C3H   DATA     BYTE      IAP_ADDRH
*SFR* 000000C4H   DATA     BYTE      IAP_ADDRL
*SFR* 000000C5H   DATA     BYTE      IAP_CMD
*SFR* 000000C7H   DATA     BYTE      IAP_CONTR
*SFR* 000000C2H   DATA     BYTE      IAP_DATA
*DEL*:00000000H   CODE     ---       iap_erase_page
*DEL*:00000000H   CODE     ---       iap_get_cmd_state
*DEL*:00000000H   CODE     ---       iap_idle
*DEL*:00000000H   CODE     ---       iap_init
*DEL*:00000000H   CODE     ---       iap_read_bytes
*DEL*:00000000H   CODE     ---       iap_set_tps
*SFR* 000000F5H   DATA     BYTE      IAP_TPS
*SFR* 000000C6H   DATA     BYTE      IAP_TRIG
*DEL*:00000000H   CODE     ---       iap_write_bytes
*DEL*:00000000H   CODE     ---       icm20602_init_simiic
*DEL*:00000000H   CODE     ---       icm20602_init_simspi
*DEL*:00000000H   CODE     ---       icm20602_self1_check
*DEL*:00000000H   CODE     ---       icm20602_self4_check
      00000737H   EDATA    INT       icm_acc_x
      00000739H   EDATA    INT       icm_acc_y
      0000073BH   EDATA    INT       icm_acc_z
      0000073DH   EDATA    INT       icm_gyro_x
      0000073FH   EDATA    INT       icm_gyro_y
      00000741H   EDATA    INT       icm_gyro_z
*DEL*:00000000H   CODE     ---       icm_simspi_r_reg_byte
*DEL*:00000000H   CODE     ---       icm_simspi_r_reg_bytes
*DEL*:00000000H   CODE     ---       icm_simspi_w_reg_byte
*DEL*:00000000H   CODE     ---       icm_simspi_wr_byte
*SFR* 000000A8H   DATA     BYTE      IE
*SFR* 000000AFH   DATA     BYTE      IE2
      0000074DH   EDATA    BYTE      IIC_ad_main
      0000074FH   EDATA    BYTE      IIC_ad_sub
      00000750H   EDATA    ---       IIC_buf
*DEL*:00000000H   CODE     ---       iic_change_pin
*DEL*:00000000H   CODE     ---       iic_delay_us
*DEL*:00000000H   CODE     ---       iic_init
      0000074EH   EDATA    BYTE      IIC_num
*DEL*:00000000H   CODE     ---       iic_read_reg
*DEL*:00000000H   CODE     ---       iic_read_reg_bytes
*DEL*:00000000H   CODE     ---       iic_write_reg
      00FF4B4BH   CODE     ---       Init_all
      00FF6765H   CODE     ---       initMPU6050
      00FF6C84H   CODE     ---       INT0_Isr
      00FF0011H   CODE     ---       INT1_Isr
      00FF6C5CH   CODE     ---       INT2_Isr
      00FF6C64H   CODE     ---       INT3_Isr
      00FF6C6CH   CODE     ---       INT4_Isr
*SFR* 0000008FH   DATA     BYTE      INTCLKO
*SFR* 000000B8H   DATA     BYTE      IP
L251 LINKER/LOCATER V4.66.93.0                                                        07/12/2024  21:17:14  PAGE 25


*SFR* 000000B5H   DATA     BYTE      IP2
*SFR* 000000B6H   DATA     BYTE      IP2H
*SFR* 000000B7H   DATA     BYTE      IPH
*DEL*:00000000H   CODE     ---       ips114_clear
*DEL*:00000000H   CODE     ---       ips114_clear_simspi
*DEL*:00000000H   CODE     ---       ips114_drawpoint
*DEL*:00000000H   CODE     ---       ips114_drawpoint_simspi
*DEL*:00000000H   CODE     ---       ips114_init
*DEL*:00000000H   CODE     ---       ips114_init_simspi
*DEL*:00000000H   CODE     ---       ips114_set_region
*DEL*:00000000H   CODE     ---       ips114_set_region_simspi
*DEL*:00000000H   CODE     ---       ips114_showchar
*DEL*:00000000H   CODE     ---       ips114_showchar_simspi
*DEL*:00000000H   CODE     ---       ips114_showfloat
*DEL*:00000000H   CODE     ---       ips114_showfloat_simspi
*DEL*:00000000H   CODE     ---       ips114_showint16
*DEL*:00000000H   CODE     ---       ips114_showint16_simspi
*DEL*:00000000H   CODE     ---       ips114_showint32
*DEL*:00000000H   CODE     ---       ips114_showint32_simspi
*DEL*:00000000H   CODE     ---       ips114_showint8
*DEL*:00000000H   CODE     ---       ips114_showint8_simspi
*DEL*:00000000H   CODE     ---       ips114_showstr
*DEL*:00000000H   CODE     ---       ips114_showstr_simspi
*DEL*:00000000H   CODE     ---       ips114_showuint16
*DEL*:00000000H   CODE     ---       ips114_showuint16_simspi
*DEL*:00000000H   CODE     ---       ips114_showuint8
*DEL*:00000000H   CODE     ---       ips114_showuint8_simspi
*DEL*:00000000H   CODE     ---       ips114_writeData
*DEL*:00000000H   CODE     ---       ips114_writedata_16bit
*DEL*:00000000H   CODE     ---       ips114_writeData_simspi
*DEL*:00000000H   CODE     ---       ips114_writeDatai_16bit_simspi
*DEL*:00000000H   CODE     ---       ips114_writeIndex
*DEL*:00000000H   CODE     ---       ips114_writeIndex_simspi
      0000053AH   EDATA    CHAR      Isr_Flag_10
*SFR* 00000088H.0 DATA     BIT       IT0
*SFR* 00000088H.2 DATA     BIT       IT1
      00FF6966H   CODE     ---       Key_Init
      000006ADH   EDATA    CHAR      KeyValue
*DEL*:00000000H   CODE     ---       lcd_clear
*DEL*:00000000H   CODE     ---       lcd_clear_simspi
*DEL*:00000000H   CODE     ---       lcd_drawpoint
*DEL*:00000000H   CODE     ---       lcd_drawpoint_simspi
*DEL*:00000000H   CODE     ---       lcd_init
*DEL*:00000000H   CODE     ---       lcd_init_simspi
*DEL*:00000000H   CODE     ---       lcd_set_region
*DEL*:00000000H   CODE     ---       lcd_set_region_simspi
*DEL*:00000000H   CODE     ---       lcd_showchar
*DEL*:00000000H   CODE     ---       lcd_showchar_simspi
*DEL*:00000000H   CODE     ---       lcd_showfloat
*DEL*:00000000H   CODE     ---       lcd_showfloat_simspi
*DEL*:00000000H   CODE     ---       lcd_showint16
*DEL*:00000000H   CODE     ---       lcd_showint16_simspi
*DEL*:00000000H   CODE     ---       lcd_showint32
*DEL*:00000000H   CODE     ---       lcd_showint32_simspi
*DEL*:00000000H   CODE     ---       lcd_showint8
*DEL*:00000000H   CODE     ---       lcd_showint8_simspi
*DEL*:00000000H   CODE     ---       lcd_showstr
*DEL*:00000000H   CODE     ---       lcd_showstr_simspi
*DEL*:00000000H   CODE     ---       lcd_showuint16
*DEL*:00000000H   CODE     ---       lcd_showuint16_simspi
*DEL*:00000000H   CODE     ---       lcd_showuint8
*DEL*:00000000H   CODE     ---       lcd_showuint8_simspi
*DEL*:00000000H   CODE     ---       lcd_writeData
*DEL*:00000000H   CODE     ---       lcd_writedata_16bit
*DEL*:00000000H   CODE     ---       lcd_writeData_16bit_simspi
L251 LINKER/LOCATER V4.66.93.0                                                        07/12/2024  21:17:14  PAGE 26


*DEL*:00000000H   CODE     ---       lcd_writeData_simspi
*DEL*:00000000H   CODE     ---       lcd_writeIndex
*DEL*:00000000H   CODE     ---       lcd_writeIndex_simspi
      00FF527DH   CODE     ---       Left_SetSpeed
      000002B8H   EDATA    ---       Left_Wheel
      00FF681FH   CODE     ---       Limit_Out
      00FF5564H   CODE     ---       loadcfgupd
      00FF5A07H   CODE     ---       loadfirmware
      00FF4315H   CODE     ---       main
      00FF6941H   CODE     ---       memcpy?_
      00FF6A6EH   CODE     ---       memset?_
      0000075FH   EDATA    CHAR      Mode
      00FF6338H   CODE     ---       Motor_Init
*DEL*:00000000H   CODE     ---       Motor_Test
      00FF69ADH   CODE     ---       MPU6050_DMP_Init
*DEL*:00000000H   CODE     ---       mpu6050_get_accdata
*DEL*:00000000H   CODE     ---       mpu6050_get_gyro
*DEL*:00000000H   CODE     ---       mpu6050_init
      00FF3A92H   CODE     ---       MPU6050_Refresh_DMP
*DEL*:00000000H   CODE     ---       mpu6050_self1_check
      0000072BH   EDATA    INT       mpu_acc_x
      0000072DH   EDATA    INT       mpu_acc_y
      0000072FH   EDATA    INT       mpu_acc_z
      00FF6B14H   CODE     ---       MPU_Delay_Ms
*DEL*:00000000H   CODE     ---       MPU_Get_Accelerometer
      00FF6012H   CODE     ---       MPU_Get_Gyroscope
*DEL*:00000000H   CODE     ---       MPU_Get_Temperature
      00000731H   EDATA    INT       mpu_gyro_x
      00000733H   EDATA    INT       mpu_gyro_y
      00000735H   EDATA    INT       mpu_gyro_z
*DEL*:00000000H   CODE     ---       MPU_Init
      00FF6C4AH   CODE     ---       MPU_Read_Bit
      00FF0046H   CODE     ---       MPU_Read_Bits
*DEL*:00000000H   CODE     ---       MPU_Read_Byte
      00FF6C14H   CODE     ---       MPU_Read_Len
*DEL*:00000000H   CODE     ---       MPU_Set_Accel_Fsr
*DEL*:00000000H   CODE     ---       MPU_Set_Gyro_Fsr
*DEL*:00000000H   CODE     ---       MPU_Set_LPF
*DEL*:00000000H   CODE     ---       MPU_Set_Rate
      000004EBH   EDATA    CHAR      mpu_state
      00FF6BFAH   CODE     ---       MPU_Write_Bit
      00FF6BEDH   CODE     ---       MPU_Write_Bits
      00FF6AFFH   CODE     ---       MPU_Write_Byte
      00FF6C2AH   CODE     ---       MPU_Write_Len
      00FF6B5FH   CODE     ---       Num2Abs
      00FF57DCH   CODE     ---       number_conversion_ascii
*DEL*:00000000H   CODE     ---       NVIC_SetPriority
      00FF0C86H   CODE     ---       oled_6x8
      00FF00A6H   CODE     ---       oled_8x16
      00FF6401H   CODE     ---       oled_all_static_state
*DEL*:00000000H   CODE     ---       oled_change_value
*DEL*:00000000H   CODE     ---       oled_clrpixel
*DEL*:00000000H   CODE     ---       oled_clrpixel_spi
*DEL*:00000000H   CODE     ---       oled_dis_bmp
*DEL*:00000000H   CODE     ---       oled_dis_bmp_spi
      00FF66CCH   CODE     ---       oled_fill
*DEL*:00000000H   CODE     ---       oled_fill_spi
*DEL*:00000000H   CODE     ---       oled_hexascii
*DEL*:00000000H   CODE     ---       oled_hexascii_spi
      00FF560AH   CODE     ---       oled_init
*DEL*:00000000H   CODE     ---       oled_init_spi
*DEL*:00000000H   CODE     ---       oled_int16
*DEL*:00000000H   CODE     ---       oled_int16_spi
*DEL*:00000000H   CODE     ---       oled_p6x8str
*DEL*:00000000H   CODE     ---       oled_p6x8str_spi
L251 LINKER/LOCATER V4.66.93.0                                                        07/12/2024  21:17:14  PAGE 27


      00FF4E2FH   CODE     ---       oled_p8x16str
*DEL*:00000000H   CODE     ---       oled_p8x16str_spi
*DEL*:00000000H   CODE     ---       oled_print_chinese
*DEL*:00000000H   CODE     ---       oled_print_chinese_spi
      00FF4C47H   CODE     ---       oled_printf_float
*DEL*:00000000H   CODE     ---       oled_printf_float_spi
*DEL*:00000000H   CODE     ---       oled_printf_int32
*DEL*:00000000H   CODE     ---       oled_printf_int32_spi
*DEL*:00000000H   CODE     ---       oled_putpixel
*DEL*:00000000H   CODE     ---       oled_putpixel_spi
      00FF698AH   CODE     ---       oled_set_pos
*DEL*:00000000H   CODE     ---       oled_set_pos_spi
      00FF637CH   CODE     ---       oled_show
*DEL*:00000000H   CODE     ---       oled_uint16
*DEL*:00000000H   CODE     ---       oled_uint16_spi
      00FF689FH   CODE     ---       oled_wrcmd
*DEL*:00000000H   CODE     ---       oled_wrcmd_spi
      00FF68C8H   CODE     ---       oled_wrdat
*DEL*:00000000H   CODE     ---       oled_wrdat_spi
*SFR* 00000080H   DATA     BYTE      P0
*SFR* 00000080H.7 DATA     BIT       P07
*SFR* 00000094H   DATA     BYTE      P0M0
*SFR* 00000093H   DATA     BYTE      P0M1
*SFR* 00000090H   DATA     BYTE      P1
*SFR* 00000092H   DATA     BYTE      P1M0
*SFR* 00000091H   DATA     BYTE      P1M1
*SFR* 000000A0H   DATA     BYTE      P2
*SFR* 000000A0H.0 DATA     BIT       P20
*SFR* 000000A0H.1 DATA     BIT       P21
*SFR* 000000A0H.2 DATA     BIT       P22
*SFR* 000000A0H.3 DATA     BIT       P23
*SFR* 000000A0H.4 DATA     BIT       P24
*SFR* 000000A0H.5 DATA     BIT       P25
*SFR* 000000A0H.6 DATA     BIT       P26
*SFR* 000000A0H.7 DATA     BIT       P27
*SFR* 00000096H   DATA     BYTE      P2M0
*SFR* 00000095H   DATA     BYTE      P2M1
*SFR* 000000B0H   DATA     BYTE      P3
*SFR* 000000B0H.2 DATA     BIT       P32
*SFR* 000000B0H.3 DATA     BIT       P33
*SFR* 000000B0H.5 DATA     BIT       P35
*SFR* 000000B2H   DATA     BYTE      P3M0
*SFR* 000000B1H   DATA     BYTE      P3M1
*SFR* 000000C0H   DATA     BYTE      P4
*SFR* 000000C0H.0 DATA     BIT       P40
*SFR* 000000C0H.1 DATA     BIT       P41
*SFR* 000000C0H.2 DATA     BIT       P42
*SFR* 000000C0H.3 DATA     BIT       P43
*SFR* 000000B4H   DATA     BYTE      P4M0
*SFR* 000000B3H   DATA     BYTE      P4M1
*SFR* 000000C8H   DATA     BYTE      P5
*SFR* 000000C8H.0 DATA     BIT       P50
*SFR* 000000C8H.1 DATA     BIT       P51
*SFR* 000000C8H.2 DATA     BIT       P52
*SFR* 000000C8H.3 DATA     BIT       P53
*SFR* 000000CAH   DATA     BYTE      P5M0
*SFR* 000000C9H   DATA     BYTE      P5M1
*SFR* 000000E8H   DATA     BYTE      P6
*SFR* 000000CCH   DATA     BYTE      P6M0
*SFR* 000000CBH   DATA     BYTE      P6M1
*SFR* 000000F8H   DATA     BYTE      P7
*SFR* 000000F8H.0 DATA     BIT       P70
*SFR* 000000F8H.1 DATA     BIT       P71
*SFR* 000000F8H.2 DATA     BIT       P72
*SFR* 000000F8H.3 DATA     BIT       P73
L251 LINKER/LOCATER V4.66.93.0                                                        07/12/2024  21:17:14  PAGE 28


*SFR* 000000E2H   DATA     BYTE      P7M0
*SFR* 000000E1H   DATA     BYTE      P7M1
*SFR* 000000A2H   DATA     BYTE      P_SW1
*SFR* 000000BAH   DATA     BYTE      P_SW2
      00000008H   EDATA    CHAR      page
      00FF54BAH   CODE     ---       PID_Calculate
      00FF44BAH   CODE     ---       PID_Incremental_Calc
      00FF586EH   CODE     ---       PID_Incremental_Init
      00FF5E99H   CODE     ---       PID_Init
      00FF5748H   CODE     ---       pit_timer_ms
*DEL*:00000000H   CODE     ---       pit_timer_us
      000004ECH   EDATA    FLOAT     Pitch
      0000051AH   EDATA    FLOAT     Plus
      00000516H   EDATA    FLOAT     Plus_Mid
      00FF115BH   CODE     NEAR LAB  printf
      00FF64C3H   CODE     ---       printf_reverse_order
*SFR* 000000D0H   DATA     BYTE      PSW
      00FF6BDFH   CODE     ---       putchar
      00FF6EDFH   HCONST   ---       PWM_ARR_ADDR
      00FF6EE7H   HCONST   ---       PWM_CCER_ADDR
      00FF6EF7H   HCONST   ---       PWM_CCMR_ADDR
      00FF6EBFH   HCONST   ---       PWM_CCR_ADDR
      00FF5402H   CODE     ---       pwm_duty
*DEL*:00000000H   CODE     ---       pwm_freq
      00FF350DH   CODE     ---       pwm_init
      00FF37F1H   CODE     ---       pwm_set_gpio
      000004B1H   EDATA    ---       Q
      00000500H   EDATA    FLOAT     Ratio
      0000054DH   EDATA    FLOAT     Ratio_Mid
*DEL*:00000000H   CODE     ---       read_ch
      0000050CH   EDATA    CHAR      Read_Nums
      00FF6BC1H   CODE     ---       readdmp
*DEL*:00000000H   CODE     ---       recv_ack
*DEL*:00000000H   CODE     ---       recv_data
      00FF56ADH   CODE     ---       refresh_value
      00FF51B6H   CODE     ---       Right_SetSpeed
      0000027BH   EDATA    ---       Right_Wheel
      00000499H   EDATA    FLOAT     Roll
*SFR* 000000FFH   DATA     BYTE      RSTCFG
*SFR* 0000009BH   DATA     BYTE      S2BUF
*SFR* 0000009AH   DATA     BYTE      S2CON
*SFR* 000000ADH   DATA     BYTE      S3BUF
*SFR* 000000ACH   DATA     BYTE      S3CON
*SFR* 000000FEH   DATA     BYTE      S4BUF
*SFR* 000000FDH   DATA     BYTE      S4CON
*SFR* 00000099H   DATA     BYTE      SBUF
*SFR* 00000098H   DATA     BYTE      SCON
*DEL*:00000000H   CODE     ---       send_ack
*DEL*:00000000H   CODE     ---       send_ch
*DEL*:00000000H   CODE     ---       send_data
*DEL*:00000000H   CODE     ---       send_nak
*DEL*:00000000H   CODE     ---       set_zero_position_simspi
*DEL*:00000000H   CODE     ---       set_zero_position_spi
*DEL*:00000000H   CODE     ---       showimage
*DEL*:00000000H   CODE     ---       simiic_delay
*DEL*:00000000H   CODE     ---       simiic_init
*DEL*:00000000H   CODE     ---       simiic_read_reg
*DEL*:00000000H   CODE     ---       simiic_read_regs
*DEL*:00000000H   CODE     ---       simiic_sendack
*DEL*:00000000H   CODE     ---       simiic_start
*DEL*:00000000H   CODE     ---       simiic_stop
*DEL*:00000000H   CODE     ---       simiic_write_reg
*DEL*:00000000H   CODE     ---       simspi_r_reg_byte
*DEL*:00000000H   CODE     ---       simspi_w_reg_byte
*DEL*:00000000H   CODE     ---       simspi_wr_byte
L251 LINKER/LOCATER V4.66.93.0                                                        07/12/2024  21:17:14  PAGE 29


*DEL*:00000000H   CODE     ---       sonar
*SFR* 000000CEH   DATA     BYTE      SPCTL
*SFR* 000000CFH   DATA     BYTE      SPDAT
      000006E4H   EDATA    CHAR      Special_Elem
      00000534H   EDATA    CHAR      Speed_Delay
      00FF5B7FH   CODE     ---       Speed_Gain
      00000709H   EDATA    FLOAT     Speed_L
      0000070DH   EDATA    FLOAT     Speed_R
*DEL*:00000000H   CODE     ---       spi_change_mode
*DEL*:00000000H   CODE     ---       spi_change_pin
*DEL*:00000000H   CODE     ---       spi_init
*DEL*:00000000H   CODE     ---       spi_mosi
*DEL*:00000000H   CODE     ---       spi_r_reg_byte
*DEL*:00000000H   CODE     ---       spi_w_reg_byte
*DEL*:00000000H   CODE     ---       spi_wr_byte
*SFR* 000000CDH   DATA     BYTE      SPSTAT
      00FF1187H   CODE     ---       sqrt?_
*DEL*:00000000H   CODE     ---       start
*DEL*:00000000H   CODE     ---       stop
      00FF6B28H   CODE     NEAR LAB  strcpy?_
      000006F5H   EDATA    FLOAT     Sum_Angle_Bar
      00000527H   EDATA    FLOAT     Sum_Dis
      00000504H   EDATA    FLOAT     sum_L
      00000512H   EDATA    FLOAT     sum_R
      00000754H   EDATA    LONG      sys_clk
*SFR* 000000D6H   DATA     BYTE      T2H
*SFR* 000000D7H   DATA     BYTE      T2L
*SFR* 000000D4H   DATA     BYTE      T3H
*SFR* 000000D5H   DATA     BYTE      T3L
*SFR* 000000D2H   DATA     BYTE      T4H
*SFR* 000000D3H   DATA     BYTE      T4L
*SFR* 000000DDH   DATA     BYTE      T4T3M
*SFR* 00000088H   DATA     BYTE      TCON
      00FF0696H   CODE     ---       tft_ascii
*SFR* 0000008CH   DATA     BYTE      TH0
*SFR* 0000008DH   DATA     BYTE      TH1
      0000071DH   EDATA    INT       time
*SFR* 0000008AH   DATA     BYTE      TL0
*SFR* 0000008BH   DATA     BYTE      TL1
      00FF0012H   CODE     ---       TM0_Isr
      00FF0019H   CODE     ---       TM1_Isr
      00FF6C74H   CODE     ---       TM2_Isr
      00FF6C7CH   CODE     ---       TM3_Isr
      00FF3191H   CODE     ---       TM4_Isr
*SFR* 00000089H   DATA     BYTE      TMOD
*SFR* 00000088H.4 DATA     BIT       TR0
*SFR* 00000088H.6 DATA     BIT       TR1
      0000013DH   EDATA    BYTE      tsl1401_finish_flag
      0000023EH   EDATA    ---       Turn
      000002F5H   EDATA    ---       Turn_PID
      00FF653FH   CODE     ---       UART1_Isr
      00000321H   EDATA    ---       uart1_rx_buff
      00000385H   EDATA    ---       uart1_tx_buff
      00FF6A32H   CODE     ---       UART2_Isr
      00FF6A50H   CODE     ---       UART3_Isr
      00FF5E30H   CODE     ---       UART4_Isr
      00FF4156H   CODE     ---       uart_init
*DEL*:00000000H   CODE     ---       uart_putbuff
      00FF60C2H   CODE     ---       uart_putchar
*DEL*:00000000H   CODE     ---       uart_putstr
      00FF6C53H   CODE     ---       ui_init
      00FF6C8BH   CODE     ---       ui_show
      00000009H   EDATA    ---       value
      00000079H   EDATA    ---       value_name
      00FF4D3FH   CODE     ---       value_name_init
L251 LINKER/LOCATER V4.66.93.0                                                        07/12/2024  21:17:14  PAGE 30


      00000743H   EDATA    ---       virtual_scope_data
      0000075CH   EDATA    WORD      vl53l0x_distance_mm
      0000075EH   EDATA    BYTE      vl53l0x_finsh_flag
      00FF5D58H   CODE     ---       vl53l0x_get_distance
      00FF229EH   CODE     ---       vl53l0x_init
*DEL*:00000000H   CODE     ---       wait
      00FF6ABAH   CODE     ---       wireless_ch573_callback
*DEL*:00000000H   CODE     ---       wireless_ch573_init
*DEL*:00000000H   CODE     ---       wireless_ch573_read_buff
*DEL*:00000000H   CODE     ---       wireless_ch573_send_buff
      00000762H   EDATA    INT       wireless_type
      00FF6AA1H   CODE     ---       wireless_uart_callback
*DEL*:00000000H   CODE     ---       wireless_uart_init
*DEL*:00000000H   CODE     ---       wireless_uart_read_buff
*DEL*:00000000H   CODE     ---       wireless_uart_send_buff
*SFR* 000000E9H   DATA     BYTE      WTST
      0000049DH   EDATA    FLOAT     x1
      00000764H   EDATA    WORD      x10_ms
      00FF58FBH   CODE     ---       xdmpUpdates
      000004A1H   EDATA    FLOAT     y1
      000004ADH   EDATA    FLOAT     Yaw
      000004A5H   EDATA    FLOAT     z1
      00000491H   EDATA    FLOAT     z_add
      00000495H   EDATA    FLOAT     z_last
      000004A9H   EDATA    FLOAT     z_now
*DEL*:00000000H   CODE     ---       zero_all
      00000758H   EDATA    WORD      zf_delay_ms
      0000075AH   EDATA    WORD      zf_delay_us
      00FF28A0H   CODE     ---       zf_sprintf



SYMBOL TABLE OF MODULE:  .\Out_File\SEEKFREE (board)

      VALUE       REP       CLASS    TYPE      SYMBOL NAME
      ====================================================
      ---         MODULE    ---      ---       board
      00FF000EH   PUBLIC    CODE     ---       EnableGlobalIRQ
      00FF5986H   PUBLIC    CODE     ---       board_init
      00FF0016H   PUBLIC    CODE     ---       DisableGlobalIRQ
      00FF6BDFH   PUBLIC    CODE     ---       putchar
      00000754H   PUBLIC    EDATA    LONG      sys_clk
      00000094H   SFRSYM    DATA     BYTE      P0M0
      000000D0H   SFRSYM    DATA     BYTE      PSW
      000000FDH   SFRSYM    DATA     BYTE      S4CON
      000000ACH   SFRSYM    DATA     BYTE      S3CON
      0000009AH   SFRSYM    DATA     BYTE      S2CON
      000000B7H   SFRSYM    DATA     BYTE      IPH
      000000E9H   SFRSYM    DATA     BYTE      WTST
      000000FFH   SFRSYM    DATA     BYTE      RSTCFG
      0000008EH   SFRSYM    DATA     BYTE      AUXR
      000000AFH   SFRSYM    DATA     BYTE      IE2
      00000088H   SFRSYM    DATA     BYTE      TCON
      00000089H   SFRSYM    DATA     BYTE      TMOD
      00000098H   SFRSYM    DATA     BYTE      SCON
      000000BCH   SFRSYM    DATA     BYTE      ADC_CONTR
      000000DEH   SFRSYM    DATA     BYTE      ADCCFG
      000000B8H   SFRSYM    DATA     BYTE      IP
      000000A8H   SFRSYM    DATA     BYTE      IE
      000000BAH   SFRSYM    DATA     BYTE      P_SW2
      000000A2H   SFRSYM    DATA     BYTE      P_SW1
      000000F8H   SFRSYM    DATA     BYTE      P7
      000000A8H.7 SFRSYM    DATA     BIT       EA
      000000E1H   SFRSYM    DATA     BYTE      P7M1
      000000E8H   SFRSYM    DATA     BYTE      P6
L251 LINKER/LOCATER V4.66.93.0                                                        07/12/2024  21:17:14  PAGE 31


      000000C8H   SFRSYM    DATA     BYTE      P5
      000000CBH   SFRSYM    DATA     BYTE      P6M1
      000000E2H   SFRSYM    DATA     BYTE      P7M0
      000000C0H   SFRSYM    DATA     BYTE      P4
      000000C9H   SFRSYM    DATA     BYTE      P5M1
      000000CCH   SFRSYM    DATA     BYTE      P6M0
      000000B0H   SFRSYM    DATA     BYTE      P3
      000000B3H   SFRSYM    DATA     BYTE      P4M1
      000000CAH   SFRSYM    DATA     BYTE      P5M0
      000000A0H   SFRSYM    DATA     BYTE      P2
      000000B1H   SFRSYM    DATA     BYTE      P3M1
      000000B4H   SFRSYM    DATA     BYTE      P4M0
      00000090H   SFRSYM    DATA     BYTE      P1
      00000095H   SFRSYM    DATA     BYTE      P2M1
      000000B2H   SFRSYM    DATA     BYTE      P3M0
      00000080H   SFRSYM    DATA     BYTE      P0
      00000091H   SFRSYM    DATA     BYTE      P1M1
      00000096H   SFRSYM    DATA     BYTE      P2M0
      00000092H   SFRSYM    DATA     BYTE      P1M0
      00000093H   SFRSYM    DATA     BYTE      P0M1

      00FF5986H   BLOCK     CODE     ---       LVL=0
      00FF5986H   LINE      CODE     ---       #177
      00FF5986H   LINE      CODE     ---       #179
      00FF5989H   LINE      CODE     ---       #197
      00FF598CH   LINE      CODE     ---       #199
      00FF598FH   LINE      CODE     ---       #200
      00FF5992H   LINE      CODE     ---       #201
      00FF599EH   LINE      CODE     ---       #203
      00FF59A1H   LINE      CODE     ---       #204
      00FF59A4H   LINE      CODE     ---       #205
      00FF59A7H   LINE      CODE     ---       #206
      00FF59AAH   LINE      CODE     ---       #207
      00FF59ADH   LINE      CODE     ---       #208
      00FF59B0H   LINE      CODE     ---       #209
      00FF59B3H   LINE      CODE     ---       #210
      00FF59B6H   LINE      CODE     ---       #211
      00FF59B9H   LINE      CODE     ---       #212
      00FF59BCH   LINE      CODE     ---       #213
      00FF59BFH   LINE      CODE     ---       #214
      00FF59C2H   LINE      CODE     ---       #215
      00FF59C5H   LINE      CODE     ---       #216
      00FF59C8H   LINE      CODE     ---       #217
      00FF59CBH   LINE      CODE     ---       #218
      00FF59CEH   LINE      CODE     ---       #220
      00FF59D1H   LINE      CODE     ---       #221
      00FF59D4H   LINE      CODE     ---       #222
      00FF59D7H   LINE      CODE     ---       #223
      00FF59DAH   LINE      CODE     ---       #224
      00FF59DDH   LINE      CODE     ---       #225
      00FF59E0H   LINE      CODE     ---       #226
      00FF59E3H   LINE      CODE     ---       #227
      00FF59E6H   LINE      CODE     ---       #228
      00FF59E9H   LINE      CODE     ---       #229
      00FF59ECH   LINE      CODE     ---       #231
      ---         BLOCKEND  ---      ---       LVL=0

      00FF6BDFH   BLOCK     CODE     ---       LVL=0
      R15         REGSYM    ---      CHAR      c
      00FF6BDFH   LINE      CODE     ---       #237
      00FF6BE3H   LINE      CODE     ---       #239
      00FF6BE8H   LINE      CODE     ---       #241
      00FF6BEAH   LINE      CODE     ---       #242
      ---         BLOCKEND  ---      ---       LVL=0

L251 LINKER/LOCATER V4.66.93.0                                                        07/12/2024  21:17:14  PAGE 32


      00FF0016H   BLOCK     CODE     ---       LVL=0
      00FF0016H   LINE      CODE     ---       #245
      00FF0016H   LINE      CODE     ---       #247
      00FF0018H   LINE      CODE     ---       #248
      ---         BLOCKEND  ---      ---       LVL=0

      00FF000EH   BLOCK     CODE     ---       LVL=0
      00FF000EH   LINE      CODE     ---       #251
      00FF000EH   LINE      CODE     ---       #253
      00FF0010H   LINE      CODE     ---       #254
      ---         BLOCKEND  ---      ---       LVL=0

      ---         MODULE    ---      ---       common
      00000762H   PUBLIC    EDATA    INT       wireless_type
      000000D0H   SFRSYM    DATA     BYTE      PSW
      000000B7H   SFRSYM    DATA     BYTE      IPH
      00000088H   SFRSYM    DATA     BYTE      TCON
      00000098H   SFRSYM    DATA     BYTE      SCON
      000000BCH   SFRSYM    DATA     BYTE      ADC_CONTR
      000000DEH   SFRSYM    DATA     BYTE      ADCCFG
      000000B8H   SFRSYM    DATA     BYTE      IP
      000000A8H   SFRSYM    DATA     BYTE      IE
      000000F8H   SFRSYM    DATA     BYTE      P7
      000000E8H   SFRSYM    DATA     BYTE      P6
      000000C8H   SFRSYM    DATA     BYTE      P5
      000000C0H   SFRSYM    DATA     BYTE      P4
      000000B0H   SFRSYM    DATA     BYTE      P3
      000000A0H   SFRSYM    DATA     BYTE      P2
      00000090H   SFRSYM    DATA     BYTE      P1
      00000080H   SFRSYM    DATA     BYTE      P0

      ---         MODULE    ---      ---       SEEKFREE_PRINTF
      00FF57DCH   PUBLIC    CODE     ---       number_conversion_ascii
      00FF28A0H   PUBLIC    CODE     ---       zf_sprintf
      00FF64C3H   PUBLIC    CODE     ---       printf_reverse_order
      00000487H   PUBLIC    EDATA    BYTE      ?number_conversion_ascii?BYTE
      00000459H   PUBLIC    EDATA    BYTE      ?zf_sprintf?BYTE
      000000D0H   SFRSYM    DATA     BYTE      PSW
      000000B7H   SFRSYM    DATA     BYTE      IPH
      00000088H   SFRSYM    DATA     BYTE      TCON
      00000098H   SFRSYM    DATA     BYTE      SCON
      000000BCH   SFRSYM    DATA     BYTE      ADC_CONTR
      000000DEH   SFRSYM    DATA     BYTE      ADCCFG
      000000B8H   SFRSYM    DATA     BYTE      IP
      000000A8H   SFRSYM    DATA     BYTE      IE
      000000F8H   SFRSYM    DATA     BYTE      P7
      000000E8H   SFRSYM    DATA     BYTE      P6
      000000C8H   SFRSYM    DATA     BYTE      P5
      000000C0H   SFRSYM    DATA     BYTE      P4
      000000B0H   SFRSYM    DATA     BYTE      P3
      000000A0H   SFRSYM    DATA     BYTE      P2
      00000090H   SFRSYM    DATA     BYTE      P1
      00000080H   SFRSYM    DATA     BYTE      P0

      00FF57DCH   BLOCK     CODE     ---       LVL=0
      DR24        REGSYM    ---      DWORD     dat
      REG=7       REGSYM    ---      ---       p
      R10         REGSYM    ---      BYTE      neg_type
      00000490H   SYMBOL    EDATA    BYTE      radix
      00FF57E4H   BLOCK     CODE     NEAR LAB  LVL=1
      DR20        REGSYM    ---      LONG      neg_dat
      DR24        REGSYM    ---      DWORD     pos_dat
      R14         REGSYM    ---      BYTE      temp_data
      R15         REGSYM    ---      BYTE      valid_num
      ---         BLOCKEND  ---      ---       LVL=1
L251 LINKER/LOCATER V4.66.93.0                                                        07/12/2024  21:17:14  PAGE 33


      00FF57DCH   LINE      CODE     ---       #25
      00FF57E4H   LINE      CODE     ---       #26
      00FF57E4H   LINE      CODE     ---       #29
      00FF57E4H   LINE      CODE     ---       #30
      00FF57E6H   LINE      CODE     ---       #32
      00FF57EAH   LINE      CODE     ---       #34
      00FF57ECH   LINE      CODE     ---       #35
      00FF57FCH   LINE      CODE     ---       #36
      00FF57FCH   LINE      CODE     ---       #38
      00FF5812H   LINE      CODE     ---       #39
      00FF5821H   LINE      CODE     ---       #40
      00FF5823H   LINE      CODE     ---       #42
      00FF5829H   LINE      CODE     ---       #43
      00FF582BH   LINE      CODE     ---       #44
      00FF582DH   LINE      CODE     ---       #45
      00FF582FH   LINE      CODE     ---       #48
      00FF582FH   LINE      CODE     ---       #49
      00FF582FH   LINE      CODE     ---       #51
      00FF583EH   LINE      CODE     ---       #52
      00FF5848H   LINE      CODE     ---       #53
      00FF584BH   LINE      CODE     ---       #55
      00FF584EH   LINE      CODE     ---       #57
      00FF585DH   LINE      CODE     ---       #58
      00FF585FH   LINE      CODE     ---       #60
      00FF5865H   LINE      CODE     ---       #61
      00FF5867H   LINE      CODE     ---       #62
      00FF5869H   LINE      CODE     ---       #63
      00FF5869H   LINE      CODE     ---       #64
      00FF586BH   LINE      CODE     ---       #65
      ---         BLOCKEND  ---      ---       LVL=0

      00FF64C3H   BLOCK     CODE     ---       LVL=0
      REG=7       REGSYM    ---      ---       d_buff
      DR24        REGSYM    ---      DWORD     len
      00FF64C7H   BLOCK     CODE     NEAR LAB  LVL=1
      DR4         REGSYM    ---      DWORD     i
      R3          REGSYM    ---      CHAR      temp_data
      ---         BLOCKEND  ---      ---       LVL=1
      00FF64C3H   LINE      CODE     ---       #67
      00FF64C7H   LINE      CODE     ---       #68
      00FF64C7H   LINE      CODE     ---       #71
      00FF64CBH   LINE      CODE     ---       #73
      00FF64DAH   LINE      CODE     ---       #74
      00FF64E8H   LINE      CODE     ---       #75
      00FF64EFH   LINE      CODE     ---       #76
      00FF6500H   LINE      CODE     ---       #77
      ---         BLOCKEND  ---      ---       LVL=0

      00FF28A0H   BLOCK     CODE     ---       LVL=0
      REG=3       REGSYM    ---      ---       buff
      0000045DH   SYMBOL    EDATA    ---       format
      00FF28A8H   BLOCK     CODE     NEAR LAB  LVL=1
      00000461H   SYMBOL    EDATA    DWORD     buff_len
      00000465H   SYMBOL    EDATA    ---       arg
      00FF28BDH   BLOCK     CODE     NEAR LAB  LVL=2
      00000469H   SYMBOL    EDATA    CHAR      ret
      00FF29E7H   BLOCK     CODE     NEAR LAB  LVL=3
      0000046AH   SYMBOL    EDATA    CHAR      ch
      ---         BLOCKEND  ---      ---       LVL=3
      00FF2A00H   BLOCK     CODE     NEAR LAB  LVL=3
      0000046AH   SYMBOL    EDATA    ---       vstr
      0000048BH   SYMBOL    EDATA    LONG      ival
      0000048FH   SYMBOL    EDATA    BYTE      vlen
      ---         BLOCKEND  ---      ---       LVL=3
      00FF2A79H   BLOCK     CODE     NEAR LAB  LVL=3
L251 LINKER/LOCATER V4.66.93.0                                                        07/12/2024  21:17:14  PAGE 34


      0000046AH   SYMBOL    EDATA    ---       vstr
      0000048BH   SYMBOL    EDATA    FLOAT     ival
      0000048FH   SYMBOL    EDATA    BYTE      vlen
      ---         BLOCKEND  ---      ---       LVL=3
      00FF2BB4H   BLOCK     CODE     NEAR LAB  LVL=3
      0000046AH   SYMBOL    EDATA    ---       vstr
      0000048BH   SYMBOL    EDATA    DWORD     ival
      0000048FH   SYMBOL    EDATA    BYTE      vlen
      ---         BLOCKEND  ---      ---       LVL=3
      00FF2C0CH   BLOCK     CODE     NEAR LAB  LVL=3
      0000046AH   SYMBOL    EDATA    ---       vstr
      0000048BH   SYMBOL    EDATA    DWORD     ival
      0000048FH   SYMBOL    EDATA    BYTE      vlen
      ---         BLOCKEND  ---      ---       LVL=3
      00FF2C63H   BLOCK     CODE     NEAR LAB  LVL=3
      0000046AH   SYMBOL    EDATA    ---       vstr
      0000048BH   SYMBOL    EDATA    DWORD     ival
      0000048FH   SYMBOL    EDATA    BYTE      vlen
      ---         BLOCKEND  ---      ---       LVL=3
      00FF2CC5H   BLOCK     CODE     NEAR LAB  LVL=3
      0000046AH   SYMBOL    EDATA    ---       pc
      ---         BLOCKEND  ---      ---       LVL=3
      00FF2D07H   BLOCK     CODE     NEAR LAB  LVL=3
      0000046AH   SYMBOL    EDATA    ---       vstr
      0000048BH   SYMBOL    EDATA    DWORD     ival
      ---         BLOCKEND  ---      ---       LVL=3
      ---         BLOCKEND  ---      ---       LVL=2
      ---         BLOCKEND  ---      ---       LVL=1
      00FF28A0H   LINE      CODE     ---       #212
      00FF28A8H   LINE      CODE     ---       #213
      00FF28A8H   LINE      CODE     ---       #214
      00FF28AEH   LINE      CODE     ---       #216
      00FF28BAH   LINE      CODE     ---       #218
      00FF28BDH   LINE      CODE     ---       #219
      00FF28BDH   LINE      CODE     ---       #220
      00FF28C8H   LINE      CODE     ---       #221
      00FF28D0H   LINE      CODE     ---       #223
      00FF29E7H   LINE      CODE     ---       #225
      00FF29E7H   LINE      CODE     ---       #229
      00FF29E7H   LINE      CODE     ---       #232
      00FF29E7H   LINE      CODE     ---       #233
      00FF29E7H   LINE      CODE     ---       #234
      00FF29FDH   LINE      CODE     ---       #235
      00FF29FDH   LINE      CODE     ---       #236
      00FF29FDH   LINE      CODE     ---       #237
      00FF29FDH   LINE      CODE     ---       #239
      00FF2A00H   LINE      CODE     ---       #242
      00FF2A00H   LINE      CODE     ---       #243
      00FF2A00H   LINE      CODE     ---       #244
      00FF2A00H   LINE      CODE     ---       #246
      00FF2A19H   LINE      CODE     ---       #247
      00FF2A2CH   LINE      CODE     ---       #249
      00FF2A36H   LINE      CODE     ---       #251
      00FF2A43H   LINE      CODE     ---       #252
      00FF2A48H   LINE      CODE     ---       #253
      00FF2A48H   LINE      CODE     ---       #254
      00FF2A57H   LINE      CODE     ---       #255
      00FF2A6AH   LINE      CODE     ---       #256
      00FF2A72H   LINE      CODE     ---       #257
      00FF2A76H   LINE      CODE     ---       #260
      00FF2A79H   LINE      CODE     ---       #262
      00FF2A79H   LINE      CODE     ---       #263
      00FF2A79H   LINE      CODE     ---       #264
      00FF2A79H   LINE      CODE     ---       #266
      00FF2A92H   LINE      CODE     ---       #267
L251 LINKER/LOCATER V4.66.93.0                                                        07/12/2024  21:17:14  PAGE 35


      00FF2AA8H   LINE      CODE     ---       #269
      00FF2AB3H   LINE      CODE     ---       #271
      00FF2AC0H   LINE      CODE     ---       #272
      00FF2AC5H   LINE      CODE     ---       #273
      00FF2AC5H   LINE      CODE     ---       #274
      00FF2AD4H   LINE      CODE     ---       #275
      00FF2AE7H   LINE      CODE     ---       #276
      00FF2AEFH   LINE      CODE     ---       #277
      00FF2B01H   LINE      CODE     ---       #279
      00FF2B25H   LINE      CODE     ---       #280
      00FF2B2BH   LINE      CODE     ---       #282
      00FF2B3DH   LINE      CODE     ---       #283
      00FF2B3FH   LINE      CODE     ---       #286
      00FF2B59H   LINE      CODE     ---       #287
      00FF2B5FH   LINE      CODE     ---       #288
      00FF2B5FH   LINE      CODE     ---       #290
      00FF2B64H   LINE      CODE     ---       #292
      00FF2B6EH   LINE      CODE     ---       #293
      00FF2B73H   LINE      CODE     ---       #294
      00FF2B7CH   LINE      CODE     ---       #296
      00FF2B84H   LINE      CODE     ---       #297
      00FF2B8BH   LINE      CODE     ---       #299
      00FF2B9AH   LINE      CODE     ---       #300
      00FF2BADH   LINE      CODE     ---       #301
      00FF2BB1H   LINE      CODE     ---       #303
      00FF2BB4H   LINE      CODE     ---       #306
      00FF2BB4H   LINE      CODE     ---       #307
      00FF2BB4H   LINE      CODE     ---       #309
      00FF2BCDH   LINE      CODE     ---       #310
      00FF2BDFH   LINE      CODE     ---       #312
      00FF2BEAH   LINE      CODE     ---       #313
      00FF2BFDH   LINE      CODE     ---       #314
      00FF2C05H   LINE      CODE     ---       #315
      00FF2C09H   LINE      CODE     ---       #316
      00FF2C0CH   LINE      CODE     ---       #318
      00FF2C0CH   LINE      CODE     ---       #319
      00FF2C0CH   LINE      CODE     ---       #321
      00FF2C25H   LINE      CODE     ---       #322
      00FF2C37H   LINE      CODE     ---       #324
      00FF2C42H   LINE      CODE     ---       #325
      00FF2C55H   LINE      CODE     ---       #326
      00FF2C5DH   LINE      CODE     ---       #327
      00FF2C61H   LINE      CODE     ---       #329
      00FF2C63H   LINE      CODE     ---       #331
      00FF2C63H   LINE      CODE     ---       #332
      00FF2C63H   LINE      CODE     ---       #333
      00FF2C63H   LINE      CODE     ---       #335
      00FF2C7CH   LINE      CODE     ---       #336
      00FF2C8EH   LINE      CODE     ---       #338
      00FF2C99H   LINE      CODE     ---       #339
      00FF2CACH   LINE      CODE     ---       #340
      00FF2CB4H   LINE      CODE     ---       #341
      00FF2CC2H   LINE      CODE     ---       #342
      00FF2CC5H   LINE      CODE     ---       #345
      00FF2CC5H   LINE      CODE     ---       #346
      00FF2CC5H   LINE      CODE     ---       #347
      00FF2CDAH   LINE      CODE     ---       #348
      00FF2CDCH   LINE      CODE     ---       #350
      00FF2CE6H   LINE      CODE     ---       #351
      00FF2CE8H   LINE      CODE     ---       #352
      00FF2CF2H   LINE      CODE     ---       #353
      00FF2CFCH   LINE      CODE     ---       #354
      00FF2D05H   LINE      CODE     ---       #355
      00FF2D07H   LINE      CODE     ---       #357
      00FF2D07H   LINE      CODE     ---       #358
L251 LINKER/LOCATER V4.66.93.0                                                        07/12/2024  21:17:14  PAGE 36


      00FF2D07H   LINE      CODE     ---       #360
      00FF2D20H   LINE      CODE     ---       #362
      00FF2D2EH   LINE      CODE     ---       #364
      00FF2D39H   LINE      CODE     ---       #365
      00FF2D4AH   LINE      CODE     ---       #366
      00FF2D4EH   LINE      CODE     ---       #367
      00FF2D56H   LINE      CODE     ---       #369
      00FF2D58H   LINE      CODE     ---       #372
      00FF2D58H   LINE      CODE     ---       #374
      00FF2D5DH   LINE      CODE     ---       #375
      00FF2D5FH   LINE      CODE     ---       #376
      00FF2D65H   LINE      CODE     ---       #377
      00FF2D67H   LINE      CODE     ---       #379
      00FF2D67H   LINE      CODE     ---       #380
      00FF2D67H   LINE      CODE     ---       #381
      00FF2D67H   LINE      CODE     ---       #384
      00FF2D71H   LINE      CODE     ---       #385
      00FF2D73H   LINE      CODE     ---       #386
      00FF2D7DH   LINE      CODE     ---       #387
      00FF2D7DH   LINE      CODE     ---       #388
      00FF2D87H   LINE      CODE     ---       #389
      00FF2D93H   LINE      CODE     ---       #392
      00FF2D97H   LINE      CODE     ---       #393
      ---         BLOCKEND  ---      ---       LVL=0

      ---         MODULE    ---      ---       zf_adc
      00FF6798H   PUBLIC    CODE     ---       adc_once
      00FF5F58H   PUBLIC    CODE     ---       adc_init
      00000094H   SFRSYM    DATA     BYTE      P0M0
      000000D0H   SFRSYM    DATA     BYTE      PSW
      000000B7H   SFRSYM    DATA     BYTE      IPH
      000000BEH   SFRSYM    DATA     BYTE      ADC_RESL
      00000088H   SFRSYM    DATA     BYTE      TCON
      00000098H   SFRSYM    DATA     BYTE      SCON
      000000BCH   SFRSYM    DATA     BYTE      ADC_CONTR
      000000DEH   SFRSYM    DATA     BYTE      ADCCFG
      000000B8H   SFRSYM    DATA     BYTE      IP
      000000BDH   SFRSYM    DATA     BYTE      ADC_RES
      000000A8H   SFRSYM    DATA     BYTE      IE
      000000F8H   SFRSYM    DATA     BYTE      P7
      000000E8H   SFRSYM    DATA     BYTE      P6
      000000C8H   SFRSYM    DATA     BYTE      P5
      000000C0H   SFRSYM    DATA     BYTE      P4
      000000B0H   SFRSYM    DATA     BYTE      P3
      000000A0H   SFRSYM    DATA     BYTE      P2
      00000090H   SFRSYM    DATA     BYTE      P1
      00000080H   SFRSYM    DATA     BYTE      P0
      00000091H   SFRSYM    DATA     BYTE      P1M1
      00000092H   SFRSYM    DATA     BYTE      P1M0
      00000093H   SFRSYM    DATA     BYTE      P0M1

      00FF5F58H   BLOCK     CODE     ---       LVL=0
      WR4         REGSYM    ---      INT       adcn
      WR2         REGSYM    ---      INT       speed
      00FF5F58H   LINE      CODE     ---       #32
      00FF5F5CH   LINE      CODE     ---       #34
      00FF5F5FH   LINE      CODE     ---       #36
      00FF5F62H   LINE      CODE     ---       #37
      00FF5F68H   LINE      CODE     ---       #39
      00FF5F74H   LINE      CODE     ---       #42
      00FF5F89H   LINE      CODE     ---       #43
      00FF5F8DH   LINE      CODE     ---       #44
      00FF5F8FH   LINE      CODE     ---       #45
      00FF5F93H   LINE      CODE     ---       #48
      00FF5FA8H   LINE      CODE     ---       #49
L251 LINKER/LOCATER V4.66.93.0                                                        07/12/2024  21:17:14  PAGE 37


      00FF5FACH   LINE      CODE     ---       #50
      00FF5FACH   LINE      CODE     ---       #52
      00FF5FB2H   LINE      CODE     ---       #54
      00FF5FB5H   LINE      CODE     ---       #55
      ---         BLOCKEND  ---      ---       LVL=0

      00FF6798H   BLOCK     CODE     ---       LVL=0
      WR6         REGSYM    ---      INT       adcn
      WR4         REGSYM    ---      INT       resolution
      WR6         REGSYM    ---      WORD      adc_value
      00FF6798H   LINE      CODE     ---       #66
      00FF6798H   LINE      CODE     ---       #67
      00FF6798H   LINE      CODE     ---       #70
      00FF679BH   LINE      CODE     ---       #71
      00FF679FH   LINE      CODE     ---       #73
      00FF67A2H   LINE      CODE     ---       #74
      00FF67A7H   LINE      CODE     ---       #75
      00FF67AAH   LINE      CODE     ---       #77
      00FF67ACH   LINE      CODE     ---       #78
      00FF67B0H   LINE      CODE     ---       #79
      00FF67B6H   LINE      CODE     ---       #81
      00FF67B9H   LINE      CODE     ---       #82
      00FF67BCH   LINE      CODE     ---       #84
      00FF67C5H   LINE      CODE     ---       #87
      00FF67C5H   LINE      CODE     ---       #88
      ---         BLOCKEND  ---      ---       LVL=0

      ---         MODULE    ---      ---       zf_delay
      00FF65F3H   PUBLIC    CODE     ---       delay_init
      00FF6AD3H   PUBLIC    CODE     ---       delay_ms
      00000758H   PUBLIC    EDATA    WORD      zf_delay_ms
      0000075AH   PUBLIC    EDATA    WORD      zf_delay_us
      000000D0H   SFRSYM    DATA     BYTE      PSW
      000000B7H   SFRSYM    DATA     BYTE      IPH
      00000088H   SFRSYM    DATA     BYTE      TCON
      00000098H   SFRSYM    DATA     BYTE      SCON
      000000BCH   SFRSYM    DATA     BYTE      ADC_CONTR
      000000DEH   SFRSYM    DATA     BYTE      ADCCFG
      000000B8H   SFRSYM    DATA     BYTE      IP
      000000A8H   SFRSYM    DATA     BYTE      IE
      000000F8H   SFRSYM    DATA     BYTE      P7
      000000E8H   SFRSYM    DATA     BYTE      P6
      000000C8H   SFRSYM    DATA     BYTE      P5
      000000C0H   SFRSYM    DATA     BYTE      P4
      000000B0H   SFRSYM    DATA     BYTE      P3
      000000A0H   SFRSYM    DATA     BYTE      P2
      00000090H   SFRSYM    DATA     BYTE      P1
      00000080H   SFRSYM    DATA     BYTE      P0

      00FF65F3H   BLOCK     CODE     ---       LVL=0
      00FF65F3H   LINE      CODE     ---       #34
      00FF65F3H   LINE      CODE     ---       #36
      00FF6604H   LINE      CODE     ---       #37
      00FF6615H   LINE      CODE     ---       #38
      00FF662BH   LINE      CODE     ---       #40
      ---         BLOCKEND  ---      ---       LVL=0

      00FF6AD3H   BLOCK     CODE     ---       LVL=0
      WR4         REGSYM    ---      WORD      ms
      00FF6AD5H   BLOCK     CODE     NEAR LAB  LVL=1
      WR6         REGSYM    ---      WORD      i
      ---         BLOCKEND  ---      ---       LVL=1
      00FF6AD3H   LINE      CODE     ---       #48
      00FF6AD5H   LINE      CODE     ---       #49
      00FF6AD5H   LINE      CODE     ---       #51
L251 LINKER/LOCATER V4.66.93.0                                                        07/12/2024  21:17:14  PAGE 38


      00FF6AD5H   LINE      CODE     ---       #52
      00FF6AD9H   LINE      CODE     ---       #54
      00FF6AE1H   LINE      CODE     ---       #55
      00FF6AE9H   LINE      CODE     ---       #56
      ---         BLOCKEND  ---      ---       LVL=0
      DR0         REGSYM    ---      DWORD     us
      WR6         REGSYM    ---      WORD      i

      ---         MODULE    ---      ---       zf_eeprom
      000000D0H   SFRSYM    DATA     BYTE      PSW
      000000D0H.5 SFRSYM    DATA     BIT       F0
      000000C6H   SFRSYM    DATA     BYTE      IAP_TRIG
      000000B7H   SFRSYM    DATA     BYTE      IPH
      000000C2H   SFRSYM    DATA     BYTE      IAP_DATA
      000000C7H   SFRSYM    DATA     BYTE      IAP_CONTR
      00000088H   SFRSYM    DATA     BYTE      TCON
      00000098H   SFRSYM    DATA     BYTE      SCON
      000000F5H   SFRSYM    DATA     BYTE      IAP_TPS
      000000BCH   SFRSYM    DATA     BYTE      ADC_CONTR
      000000C4H   SFRSYM    DATA     BYTE      IAP_ADDRL
      000000C3H   SFRSYM    DATA     BYTE      IAP_ADDRH
      000000F6H   SFRSYM    DATA     BYTE      IAP_ADDRE
      000000DEH   SFRSYM    DATA     BYTE      ADCCFG
      000000B8H   SFRSYM    DATA     BYTE      IP
      000000C5H   SFRSYM    DATA     BYTE      IAP_CMD
      000000A8H   SFRSYM    DATA     BYTE      IE
      000000F8H   SFRSYM    DATA     BYTE      P7
      000000A8H.7 SFRSYM    DATA     BIT       EA
      000000E8H   SFRSYM    DATA     BYTE      P6
      000000C8H   SFRSYM    DATA     BYTE      P5
      000000C0H   SFRSYM    DATA     BYTE      P4
      000000B0H   SFRSYM    DATA     BYTE      P3
      000000A0H   SFRSYM    DATA     BYTE      P2
      00000090H   SFRSYM    DATA     BYTE      P1
      00000080H   SFRSYM    DATA     BYTE      P0
      R11         REGSYM    ---      BYTE      write_time
      REG=3       REGSYM    ---      ---       buf
      REG=3       REGSYM    ---      ---       buf
      WR6         REGSYM    ---      WORD      addr
      REG=3       REGSYM    ---      ---       buf
      WR6         REGSYM    ---      WORD      i

      ---         MODULE    ---      ---       zf_exti
      000000D0H   SFRSYM    DATA     BYTE      PSW
      000000B7H   SFRSYM    DATA     BYTE      IPH
      00000088H.2 SFRSYM    DATA     BIT       IT1
      000000A8H.2 SFRSYM    DATA     BIT       EX1
      00000088H.0 SFRSYM    DATA     BIT       IT0
      000000A8H.0 SFRSYM    DATA     BIT       EX0
      00000088H   SFRSYM    DATA     BYTE      TCON
      00000098H   SFRSYM    DATA     BYTE      SCON
      000000BCH   SFRSYM    DATA     BYTE      ADC_CONTR
      000000DEH   SFRSYM    DATA     BYTE      ADCCFG
      000000B8H   SFRSYM    DATA     BYTE      IP
      0000008FH   SFRSYM    DATA     BYTE      INTCLKO
      000000A8H   SFRSYM    DATA     BYTE      IE
      000000F8H   SFRSYM    DATA     BYTE      P7
      000000E8H   SFRSYM    DATA     BYTE      P6
      000000C8H   SFRSYM    DATA     BYTE      P5
      000000C0H   SFRSYM    DATA     BYTE      P4
      000000B0H   SFRSYM    DATA     BYTE      P3
      000000A0H   SFRSYM    DATA     BYTE      P2
      00000090H   SFRSYM    DATA     BYTE      P1
      00000080H   SFRSYM    DATA     BYTE      P0
      WR4         REGSYM    ---      INT       int_n
L251 LINKER/LOCATER V4.66.93.0                                                        07/12/2024  21:17:14  PAGE 39


      WR2         REGSYM    ---      INT       mode

      ---         MODULE    ---      ---       zf_gpio
      00FF2D9AH   PUBLIC    CODE     ---       gpio_mode
      00000094H   SFRSYM    DATA     BYTE      P0M0
      000000D0H   SFRSYM    DATA     BYTE      PSW
      000000B7H   SFRSYM    DATA     BYTE      IPH
      00000088H   SFRSYM    DATA     BYTE      TCON
      00000098H   SFRSYM    DATA     BYTE      SCON
      000000BCH   SFRSYM    DATA     BYTE      ADC_CONTR
      000000DEH   SFRSYM    DATA     BYTE      ADCCFG
      000000B8H   SFRSYM    DATA     BYTE      IP
      000000A8H   SFRSYM    DATA     BYTE      IE
      000000F8H   SFRSYM    DATA     BYTE      P7
      000000E1H   SFRSYM    DATA     BYTE      P7M1
      000000E8H   SFRSYM    DATA     BYTE      P6
      000000C8H   SFRSYM    DATA     BYTE      P5
      000000CBH   SFRSYM    DATA     BYTE      P6M1
      000000E2H   SFRSYM    DATA     BYTE      P7M0
      000000C0H   SFRSYM    DATA     BYTE      P4
      000000C9H   SFRSYM    DATA     BYTE      P5M1
      000000CCH   SFRSYM    DATA     BYTE      P6M0
      000000B0H   SFRSYM    DATA     BYTE      P3
      000000B3H   SFRSYM    DATA     BYTE      P4M1
      000000CAH   SFRSYM    DATA     BYTE      P5M0
      000000A0H   SFRSYM    DATA     BYTE      P2
      000000B1H   SFRSYM    DATA     BYTE      P3M1
      000000B4H   SFRSYM    DATA     BYTE      P4M0
      00000090H   SFRSYM    DATA     BYTE      P1
      00000095H   SFRSYM    DATA     BYTE      P2M1
      000000B2H   SFRSYM    DATA     BYTE      P3M0
      00000080H   SFRSYM    DATA     BYTE      P0
      00000091H   SFRSYM    DATA     BYTE      P1M1
      00000096H   SFRSYM    DATA     BYTE      P2M0
      00000092H   SFRSYM    DATA     BYTE      P1M0
      00000093H   SFRSYM    DATA     BYTE      P0M1
      WR4         REGSYM    ---      INT       pin
      WR2         REGSYM    ---      INT       pull

      00FF2D9AH   BLOCK     CODE     ---       LVL=0
      WR4         REGSYM    ---      INT       pin
      WR2         REGSYM    ---      INT       mode
      00FF2D9AH   LINE      CODE     ---       #54
      00FF2D9EH   LINE      CODE     ---       #56
      00FF2DA5H   LINE      CODE     ---       #58
      00FF2DADH   LINE      CODE     ---       #60
      00FF2DC5H   LINE      CODE     ---       #61
      00FF2DC7H   LINE      CODE     ---       #62
      00FF2DC7H   LINE      CODE     ---       #63
      00FF2DCDH   LINE      CODE     ---       #65
      00FF2DE5H   LINE      CODE     ---       #66
      00FF2DE7H   LINE      CODE     ---       #67
      00FF2DE7H   LINE      CODE     ---       #68
      00FF2DEDH   LINE      CODE     ---       #70
      00FF2E05H   LINE      CODE     ---       #71
      00FF2E07H   LINE      CODE     ---       #72
      00FF2E07H   LINE      CODE     ---       #74
      00FF2E0DH   LINE      CODE     ---       #76
      00FF2E25H   LINE      CODE     ---       #77
      00FF2E27H   LINE      CODE     ---       #78
      00FF2E27H   LINE      CODE     ---       #79
      00FF2E2DH   LINE      CODE     ---       #81
      00FF2E45H   LINE      CODE     ---       #82
      00FF2E47H   LINE      CODE     ---       #83
      00FF2E47H   LINE      CODE     ---       #84
L251 LINKER/LOCATER V4.66.93.0                                                        07/12/2024  21:17:14  PAGE 40


      00FF2E4DH   LINE      CODE     ---       #86
      00FF2E65H   LINE      CODE     ---       #87
      00FF2E67H   LINE      CODE     ---       #88
      00FF2E67H   LINE      CODE     ---       #89
      00FF2E6DH   LINE      CODE     ---       #91
      00FF2E85H   LINE      CODE     ---       #92
      00FF2E87H   LINE      CODE     ---       #93
      00FF2E87H   LINE      CODE     ---       #94
      00FF2E90H   LINE      CODE     ---       #96
      00FF2EA8H   LINE      CODE     ---       #97
      00FF2EAAH   LINE      CODE     ---       #98
      00FF2EABH   LINE      CODE     ---       #100
      00FF2EB4H   LINE      CODE     ---       #102
      00FF2EBCH   LINE      CODE     ---       #104
      00FF2ED1H   LINE      CODE     ---       #105
      00FF2ED5H   LINE      CODE     ---       #106
      00FF2ED5H   LINE      CODE     ---       #107
      00FF2EDBH   LINE      CODE     ---       #109
      00FF2EF0H   LINE      CODE     ---       #110
      00FF2EF4H   LINE      CODE     ---       #111
      00FF2EF4H   LINE      CODE     ---       #112
      00FF2EFAH   LINE      CODE     ---       #114
      00FF2F0FH   LINE      CODE     ---       #115
      00FF2F13H   LINE      CODE     ---       #116
      00FF2F13H   LINE      CODE     ---       #118
      00FF2F19H   LINE      CODE     ---       #120
      00FF2F2EH   LINE      CODE     ---       #121
      00FF2F32H   LINE      CODE     ---       #122
      00FF2F32H   LINE      CODE     ---       #123
      00FF2F38H   LINE      CODE     ---       #125
      00FF2F4DH   LINE      CODE     ---       #126
      00FF2F51H   LINE      CODE     ---       #127
      00FF2F51H   LINE      CODE     ---       #128
      00FF2F57H   LINE      CODE     ---       #130
      00FF2F6CH   LINE      CODE     ---       #131
      00FF2F70H   LINE      CODE     ---       #132
      00FF2F70H   LINE      CODE     ---       #133
      00FF2F76H   LINE      CODE     ---       #135
      00FF2F8BH   LINE      CODE     ---       #136
      00FF2F8FH   LINE      CODE     ---       #137
      00FF2F8FH   LINE      CODE     ---       #138
      00FF2F98H   LINE      CODE     ---       #140
      00FF2FAFH   LINE      CODE     ---       #141
      00FF2FAFH   LINE      CODE     ---       #142
      00FF2FB2H   LINE      CODE     ---       #145
      00FF2FBBH   LINE      CODE     ---       #147
      00FF2FC3H   LINE      CODE     ---       #149
      00FF2FD6H   LINE      CODE     ---       #150
      00FF2FDAH   LINE      CODE     ---       #151
      00FF2FDAH   LINE      CODE     ---       #152
      00FF2FE0H   LINE      CODE     ---       #154
      00FF2FF3H   LINE      CODE     ---       #155
      00FF2FF7H   LINE      CODE     ---       #156
      00FF2FF7H   LINE      CODE     ---       #157
      00FF2FFDH   LINE      CODE     ---       #159
      00FF3010H   LINE      CODE     ---       #160
      00FF3014H   LINE      CODE     ---       #161
      00FF3014H   LINE      CODE     ---       #163
      00FF301AH   LINE      CODE     ---       #165
      00FF302DH   LINE      CODE     ---       #166
      00FF3031H   LINE      CODE     ---       #167
      00FF3031H   LINE      CODE     ---       #168
      00FF3037H   LINE      CODE     ---       #170
      00FF304AH   LINE      CODE     ---       #171
      00FF304EH   LINE      CODE     ---       #172
L251 LINKER/LOCATER V4.66.93.0                                                        07/12/2024  21:17:14  PAGE 41


      00FF304EH   LINE      CODE     ---       #173
      00FF3054H   LINE      CODE     ---       #175
      00FF3067H   LINE      CODE     ---       #176
      00FF306BH   LINE      CODE     ---       #177
      00FF306BH   LINE      CODE     ---       #178
      00FF3071H   LINE      CODE     ---       #180
      00FF3084H   LINE      CODE     ---       #181
      00FF3088H   LINE      CODE     ---       #182
      00FF3088H   LINE      CODE     ---       #183
      00FF3091H   LINE      CODE     ---       #185
      00FF30A4H   LINE      CODE     ---       #186
      00FF30A8H   LINE      CODE     ---       #187
      00FF30A9H   LINE      CODE     ---       #189
      00FF30B2H   LINE      CODE     ---       #191
      00FF30BAH   LINE      CODE     ---       #193
      00FF30CDH   LINE      CODE     ---       #194
      00FF30CFH   LINE      CODE     ---       #195
      00FF30CFH   LINE      CODE     ---       #196
      00FF30D5H   LINE      CODE     ---       #198
      00FF30E8H   LINE      CODE     ---       #199
      00FF30EAH   LINE      CODE     ---       #200
      00FF30EAH   LINE      CODE     ---       #201
      00FF30F0H   LINE      CODE     ---       #203
      00FF3103H   LINE      CODE     ---       #204
      00FF3105H   LINE      CODE     ---       #205
      00FF3105H   LINE      CODE     ---       #207
      00FF310BH   LINE      CODE     ---       #209
      00FF311EH   LINE      CODE     ---       #210
      00FF3120H   LINE      CODE     ---       #211
      00FF3120H   LINE      CODE     ---       #212
      00FF3126H   LINE      CODE     ---       #214
      00FF3139H   LINE      CODE     ---       #215
      00FF313BH   LINE      CODE     ---       #216
      00FF313BH   LINE      CODE     ---       #217
      00FF3141H   LINE      CODE     ---       #219
      00FF3154H   LINE      CODE     ---       #220
      00FF3156H   LINE      CODE     ---       #221
      00FF3156H   LINE      CODE     ---       #222
      00FF315CH   LINE      CODE     ---       #224
      00FF316FH   LINE      CODE     ---       #225
      00FF3171H   LINE      CODE     ---       #226
      00FF3171H   LINE      CODE     ---       #227
      00FF3177H   LINE      CODE     ---       #229
      00FF318CH   LINE      CODE     ---       #230
      00FF3190H   LINE      CODE     ---       #231
      00FF3190H   LINE      CODE     ---       #233
      ---         BLOCKEND  ---      ---       LVL=0

      ---         MODULE    ---      ---       zf_iic
      000000D0H   SFRSYM    DATA     BYTE      PSW
      000000B7H   SFRSYM    DATA     BYTE      IPH
      00000088H   SFRSYM    DATA     BYTE      TCON
      00000098H   SFRSYM    DATA     BYTE      SCON
      000000BCH   SFRSYM    DATA     BYTE      ADC_CONTR
      000000DEH   SFRSYM    DATA     BYTE      ADCCFG
      000000B8H   SFRSYM    DATA     BYTE      IP
      000000A8H   SFRSYM    DATA     BYTE      IE
      000000BAH   SFRSYM    DATA     BYTE      P_SW2
      000000F8H   SFRSYM    DATA     BYTE      P7
      000000E8H   SFRSYM    DATA     BYTE      P6
      000000C8H   SFRSYM    DATA     BYTE      P5
      000000C0H   SFRSYM    DATA     BYTE      P4
      000000B0H   SFRSYM    DATA     BYTE      P3
      000000A0H   SFRSYM    DATA     BYTE      P2
      00000090H   SFRSYM    DATA     BYTE      P1
L251 LINKER/LOCATER V4.66.93.0                                                        07/12/2024  21:17:14  PAGE 42


      00000080H   SFRSYM    DATA     BYTE      P0
      WR6         REGSYM    ---      WORD      x
      R10         REGSYM    ---      BYTE      i
      WR12        REGSYM    ---      WORD      count
      R15         REGSYM    ---      BYTE      ret
      R11         REGSYM    ---      BYTE      ret
      R11         REGSYM    ---      CHAR      dat
      R11         REGSYM    ---      BYTE      ret
      R11         REGSYM    ---      BYTE      ret
      R11         REGSYM    ---      BYTE      ret
      R11         REGSYM    ---      BYTE      ret
      WR6         REGSYM    ---      INT       iic_n
      R13         REGSYM    ---      BYTE      dev_add
      R14         REGSYM    ---      BYTE      reg
      R15         REGSYM    ---      BYTE      dat
      R15         REGSYM    ---      BYTE      dev_add
      R14         REGSYM    ---      BYTE      reg
      REG=3       REGSYM    ---      ---       dat
      WR6         REGSYM    ---      INT       iic_n

      ---         MODULE    ---      ---       zf_nvic
      000000D0H   SFRSYM    DATA     BYTE      PSW
      000000B7H   SFRSYM    DATA     BYTE      IPH
      000000B5H   SFRSYM    DATA     BYTE      IP2
      00000088H   SFRSYM    DATA     BYTE      TCON
      00000098H   SFRSYM    DATA     BYTE      SCON
      000000BCH   SFRSYM    DATA     BYTE      ADC_CONTR
      000000DEH   SFRSYM    DATA     BYTE      ADCCFG
      000000B8H   SFRSYM    DATA     BYTE      IP
      000000B6H   SFRSYM    DATA     BYTE      IP2H
      000000A8H   SFRSYM    DATA     BYTE      IE
      000000F8H   SFRSYM    DATA     BYTE      P7
      000000E8H   SFRSYM    DATA     BYTE      P6
      000000C8H   SFRSYM    DATA     BYTE      P5
      000000C0H   SFRSYM    DATA     BYTE      P4
      000000B0H   SFRSYM    DATA     BYTE      P3
      000000A0H   SFRSYM    DATA     BYTE      P2
      00000090H   SFRSYM    DATA     BYTE      P1
      00000080H   SFRSYM    DATA     BYTE      P0
      WR4         REGSYM    ---      INT       irqn
      R3          REGSYM    ---      BYTE      priority

      ---         MODULE    ---      ---       zf_pwm
      00FF5402H   PUBLIC    CODE     ---       pwm_duty
      00FF37F1H   PUBLIC    CODE     ---       pwm_set_gpio
      00FF350DH   PUBLIC    CODE     ---       pwm_init
      00FF6EBFH   PUBLIC    HCONST   ---       PWM_CCR_ADDR
      00FF6EDFH   PUBLIC    HCONST   ---       PWM_ARR_ADDR
      00FF6EE7H   PUBLIC    HCONST   ---       PWM_CCER_ADDR
      00FF6EF7H   PUBLIC    HCONST   ---       PWM_CCMR_ADDR
      00000404H   PUBLIC    EDATA    BYTE      ?pwm_init?BYTE
      000000D0H   SFRSYM    DATA     BYTE      PSW
      000000B7H   SFRSYM    DATA     BYTE      IPH
      00000088H   SFRSYM    DATA     BYTE      TCON
      00000098H   SFRSYM    DATA     BYTE      SCON
      000000BCH   SFRSYM    DATA     BYTE      ADC_CONTR
      000000DEH   SFRSYM    DATA     BYTE      ADCCFG
      000000B8H   SFRSYM    DATA     BYTE      IP
      000000A8H   SFRSYM    DATA     BYTE      IE
      000000BAH   SFRSYM    DATA     BYTE      P_SW2
      000000F8H   SFRSYM    DATA     BYTE      P7
      000000E8H   SFRSYM    DATA     BYTE      P6
      000000C8H   SFRSYM    DATA     BYTE      P5
      000000C0H   SFRSYM    DATA     BYTE      P4
      000000B0H   SFRSYM    DATA     BYTE      P3
L251 LINKER/LOCATER V4.66.93.0                                                        07/12/2024  21:17:14  PAGE 43


      000000A0H   SFRSYM    DATA     BYTE      P2
      00000090H   SFRSYM    DATA     BYTE      P1
      00000080H   SFRSYM    DATA     BYTE      P0

      00FF37F1H   BLOCK     CODE     ---       LVL=0
      WR6         REGSYM    ---      INT       pwmch
      00FF37F1H   LINE      CODE     ---       #49
      00FF37F1H   LINE      CODE     ---       #51
      00FF3964H   LINE      CODE     ---       #53
      00FF3964H   LINE      CODE     ---       #55
      00FF3968H   LINE      CODE     ---       #56
      00FF396BH   LINE      CODE     ---       #58
      00FF396BH   LINE      CODE     ---       #60
      00FF396FH   LINE      CODE     ---       #61
      00FF3972H   LINE      CODE     ---       #63
      00FF3972H   LINE      CODE     ---       #65
      00FF3976H   LINE      CODE     ---       #66
      00FF3979H   LINE      CODE     ---       #68
      00FF3979H   LINE      CODE     ---       #70
      00FF397DH   LINE      CODE     ---       #71
      00FF3980H   LINE      CODE     ---       #73
      00FF3980H   LINE      CODE     ---       #75
      00FF3984H   LINE      CODE     ---       #76
      00FF3987H   LINE      CODE     ---       #78
      00FF3987H   LINE      CODE     ---       #80
      00FF398BH   LINE      CODE     ---       #81
      00FF398EH   LINE      CODE     ---       #84
      00FF398EH   LINE      CODE     ---       #86
      00FF3992H   LINE      CODE     ---       #87
      00FF3995H   LINE      CODE     ---       #89
      00FF3995H   LINE      CODE     ---       #91
      00FF3999H   LINE      CODE     ---       #92
      00FF399CH   LINE      CODE     ---       #94
      00FF399CH   LINE      CODE     ---       #96
      00FF39A0H   LINE      CODE     ---       #97
      00FF39A3H   LINE      CODE     ---       #99
      00FF39A3H   LINE      CODE     ---       #101
      00FF39A7H   LINE      CODE     ---       #102
      00FF39AAH   LINE      CODE     ---       #104
      00FF39AAH   LINE      CODE     ---       #106
      00FF39AEH   LINE      CODE     ---       #107
      00FF39B1H   LINE      CODE     ---       #109
      00FF39B1H   LINE      CODE     ---       #111
      00FF39B5H   LINE      CODE     ---       #112
      00FF39B8H   LINE      CODE     ---       #115
      00FF39B8H   LINE      CODE     ---       #117
      00FF39BCH   LINE      CODE     ---       #118
      00FF39BEH   LINE      CODE     ---       #120
      00FF39BEH   LINE      CODE     ---       #122
      00FF39C2H   LINE      CODE     ---       #123
      00FF39C4H   LINE      CODE     ---       #125
      00FF39C4H   LINE      CODE     ---       #127
      00FF39C8H   LINE      CODE     ---       #128
      00FF39CAH   LINE      CODE     ---       #130
      00FF39CAH   LINE      CODE     ---       #132
      00FF39CEH   LINE      CODE     ---       #133
      00FF39D0H   LINE      CODE     ---       #135
      00FF39D0H   LINE      CODE     ---       #137
      00FF39D4H   LINE      CODE     ---       #138
      00FF39D6H   LINE      CODE     ---       #140
      00FF39D6H   LINE      CODE     ---       #142
      00FF39DAH   LINE      CODE     ---       #143
      00FF39DCH   LINE      CODE     ---       #147
      00FF39DCH   LINE      CODE     ---       #149
      00FF39E0H   LINE      CODE     ---       #150
L251 LINKER/LOCATER V4.66.93.0                                                        07/12/2024  21:17:14  PAGE 44


      00FF39E2H   LINE      CODE     ---       #152
      00FF39E2H   LINE      CODE     ---       #154
      00FF39E6H   LINE      CODE     ---       #155
      00FF39E8H   LINE      CODE     ---       #157
      00FF39E8H   LINE      CODE     ---       #159
      00FF39ECH   LINE      CODE     ---       #160
      00FF39EEH   LINE      CODE     ---       #162
      00FF39EEH   LINE      CODE     ---       #164
      00FF39F2H   LINE      CODE     ---       #165
      00FF39F4H   LINE      CODE     ---       #167
      00FF39F4H   LINE      CODE     ---       #169
      00FF39F8H   LINE      CODE     ---       #170
      00FF39FAH   LINE      CODE     ---       #172
      00FF39FAH   LINE      CODE     ---       #174
      00FF39FEH   LINE      CODE     ---       #175
      00FF3A00H   LINE      CODE     ---       #177
      00FF3A00H   LINE      CODE     ---       #179
      00FF3A04H   LINE      CODE     ---       #180
      00FF3A06H   LINE      CODE     ---       #182
      00FF3A06H   LINE      CODE     ---       #184
      00FF3A0AH   LINE      CODE     ---       #185
      00FF3A0CH   LINE      CODE     ---       #189
      00FF3A0CH   LINE      CODE     ---       #191
      00FF3A10H   LINE      CODE     ---       #192
      00FF3A12H   LINE      CODE     ---       #194
      00FF3A12H   LINE      CODE     ---       #196
      00FF3A16H   LINE      CODE     ---       #197
      00FF3A18H   LINE      CODE     ---       #199
      00FF3A18H   LINE      CODE     ---       #201
      00FF3A1AH   LINE      CODE     ---       #202
      00FF3A1CH   LINE      CODE     ---       #204
      00FF3A1CH   LINE      CODE     ---       #206
      00FF3A20H   LINE      CODE     ---       #207
      00FF3A22H   LINE      CODE     ---       #210
      00FF3A22H   LINE      CODE     ---       #212
      00FF3A26H   LINE      CODE     ---       #213
      00FF3A28H   LINE      CODE     ---       #215
      00FF3A28H   LINE      CODE     ---       #217
      00FF3A2CH   LINE      CODE     ---       #218
      00FF3A2EH   LINE      CODE     ---       #220
      00FF3A2EH   LINE      CODE     ---       #222
      00FF3A34H   LINE      CODE     ---       #223
      00FF3A36H   LINE      CODE     ---       #225
      00FF3A36H   LINE      CODE     ---       #227
      00FF3A3EH   LINE      CODE     ---       #228
      00FF3A40H   LINE      CODE     ---       #232
      00FF3A40H   LINE      CODE     ---       #234
      00FF3A48H   LINE      CODE     ---       #235
      00FF3A4AH   LINE      CODE     ---       #237
      00FF3A4AH   LINE      CODE     ---       #239
      00FF3A52H   LINE      CODE     ---       #240
      00FF3A54H   LINE      CODE     ---       #242
      00FF3A54H   LINE      CODE     ---       #244
      00FF3A5CH   LINE      CODE     ---       #245
      00FF3A5EH   LINE      CODE     ---       #247
      00FF3A5EH   LINE      CODE     ---       #249
      00FF3A66H   LINE      CODE     ---       #250
      00FF3A68H   LINE      CODE     ---       #254
      00FF3A68H   LINE      CODE     ---       #256
      00FF3A70H   LINE      CODE     ---       #257
      00FF3A72H   LINE      CODE     ---       #259
      00FF3A72H   LINE      CODE     ---       #261
      00FF3A7AH   LINE      CODE     ---       #262
      00FF3A7CH   LINE      CODE     ---       #264
      00FF3A7CH   LINE      CODE     ---       #266
L251 LINKER/LOCATER V4.66.93.0                                                        07/12/2024  21:17:14  PAGE 45


      00FF3A84H   LINE      CODE     ---       #267
      00FF3A86H   LINE      CODE     ---       #269
      00FF3A86H   LINE      CODE     ---       #271
      00FF3A91H   LINE      CODE     ---       #272
      00FF3A91H   LINE      CODE     ---       #275
      00FF3A91H   LINE      CODE     ---       #277
      ---         BLOCKEND  ---      ---       LVL=0

      00FF350DH   BLOCK     CODE     ---       LVL=0
      WR14        REGSYM    ---      INT       pwmch
      00000406H   SYMBOL    EDATA    DWORD     freq
      0000040AH   SYMBOL    EDATA    DWORD     duty
      00FF3515H   BLOCK     CODE     NEAR LAB  LVL=1
      DR4         REGSYM    ---      DWORD     match_temp
      DR28        REGSYM    ---      DWORD     period_temp
      WR26        REGSYM    ---      WORD      freq_div
      ---         BLOCKEND  ---      ---       LVL=1
      00FF350DH   LINE      CODE     ---       #290
      00FF3515H   LINE      CODE     ---       #291
      00FF3515H   LINE      CODE     ---       #295
      00FF3515H   LINE      CODE     ---       #298
      00FF3518H   LINE      CODE     ---       #301
      00FF351BH   LINE      CODE     ---       #305
      00FF352CH   LINE      CODE     ---       #306
      00FF352CH   LINE      CODE     ---       #307
      00FF3535H   LINE      CODE     ---       #309
      00FF3556H   LINE      CODE     ---       #312
      00FF355FH   LINE      CODE     ---       #315
      00FF358AH   LINE      CODE     ---       #316
      00FF35ABH   LINE      CODE     ---       #319
      00FF35F7H   LINE      CODE     ---       #322
      00FF3606H   LINE      CODE     ---       #323
      00FF3611H   LINE      CODE     ---       #325
      00FF361AH   LINE      CODE     ---       #326
      00FF3620H   LINE      CODE     ---       #327
      00FF3623H   LINE      CODE     ---       #330
      00FF365BH   LINE      CODE     ---       #331
      00FF367EH   LINE      CODE     ---       #334
      00FF36D0H   LINE      CODE     ---       #338
      00FF36DFH   LINE      CODE     ---       #339
      00FF36EAH   LINE      CODE     ---       #341
      00FF36F3H   LINE      CODE     ---       #342
      00FF3700H   LINE      CODE     ---       #343
      00FF3700H   LINE      CODE     ---       #346
      00FF372CH   LINE      CODE     ---       #347
      00FF375AH   LINE      CODE     ---       #350
      00FF3780H   LINE      CODE     ---       #351
      00FF37ACH   LINE      CODE     ---       #354
      00FF37C3H   LINE      CODE     ---       #355
      00FF37EEH   LINE      CODE     ---       #360
      ---         BLOCKEND  ---      ---       LVL=0

      00FF5402H   BLOCK     CODE     ---       LVL=0
      WR30        REGSYM    ---      INT       pwmch
      DR24        REGSYM    ---      DWORD     duty
      00FF5406H   BLOCK     CODE     NEAR LAB  LVL=1
      DR0         REGSYM    ---      DWORD     match_temp
      DR20        REGSYM    ---      DWORD     arr
      ---         BLOCKEND  ---      ---       LVL=1
      00FF5402H   LINE      CODE     ---       #370
      00FF5406H   LINE      CODE     ---       #371
      00FF5406H   LINE      CODE     ---       #373
      00FF544AH   LINE      CODE     ---       #377
      00FF546BH   LINE      CODE     ---       #381
      00FF5491H   LINE      CODE     ---       #382
L251 LINKER/LOCATER V4.66.93.0                                                        07/12/2024  21:17:14  PAGE 46


      00FF54B9H   LINE      CODE     ---       #386
      ---         BLOCKEND  ---      ---       LVL=0
      WR30        REGSYM    ---      INT       pwmch
      DR24        REGSYM    ---      DWORD     freq
      DR0         REGSYM    ---      DWORD     match_temp
      DR24        REGSYM    ---      DWORD     period_temp
      WR28        REGSYM    ---      WORD      freq_div

      ---         MODULE    ---      ---       zf_spi
      000000CFH   SFRSYM    DATA     BYTE      SPDAT
      000000D0H   SFRSYM    DATA     BYTE      PSW
      000000B7H   SFRSYM    DATA     BYTE      IPH
      000000CDH   SFRSYM    DATA     BYTE      SPSTAT
      00000088H   SFRSYM    DATA     BYTE      TCON
      00000098H   SFRSYM    DATA     BYTE      SCON
      000000BCH   SFRSYM    DATA     BYTE      ADC_CONTR
      000000DEH   SFRSYM    DATA     BYTE      ADCCFG
      000000B8H   SFRSYM    DATA     BYTE      IP
      000000A8H   SFRSYM    DATA     BYTE      IE
      000000A2H   SFRSYM    DATA     BYTE      P_SW1
      000000CEH   SFRSYM    DATA     BYTE      SPCTL
      000000F8H   SFRSYM    DATA     BYTE      P7
      000000E8H   SFRSYM    DATA     BYTE      P6
      000000C8H   SFRSYM    DATA     BYTE      P5
      000000C0H   SFRSYM    DATA     BYTE      P4
      000000B0H   SFRSYM    DATA     BYTE      P3
      000000A0H   SFRSYM    DATA     BYTE      P2
      00000090H   SFRSYM    DATA     BYTE      P1
      00000080H   SFRSYM    DATA     BYTE      P0
      WR14        REGSYM    ---      INT       spi_n
      R13         REGSYM    ---      BYTE      mode
      R11         REGSYM    ---      BYTE      dat
      WR14        REGSYM    ---      INT       spi_n
      R7          REGSYM    ---      BYTE      mode

      ---         MODULE    ---      ---       zf_tim
      00FF620FH   PUBLIC    CODE     ---       ctimer_count_read
      00FF5748H   PUBLIC    CODE     ---       pit_timer_ms
      00FF62A9H   PUBLIC    CODE     ---       ctimer_count_init
      00FF61BEH   PUBLIC    CODE     ---       ctimer_count_clean
      000000D0H   SFRSYM    DATA     BYTE      PSW
      000000B7H   SFRSYM    DATA     BYTE      IPH
      000000DDH   SFRSYM    DATA     BYTE      T4T3M
      00000088H.6 SFRSYM    DATA     BIT       TR1
      00000088H.4 SFRSYM    DATA     BIT       TR0
      000000D3H   SFRSYM    DATA     BYTE      T4L
      000000D5H   SFRSYM    DATA     BYTE      T3L
      000000D7H   SFRSYM    DATA     BYTE      T2L
      0000008BH   SFRSYM    DATA     BYTE      TL1
      0000008AH   SFRSYM    DATA     BYTE      TL0
      000000D2H   SFRSYM    DATA     BYTE      T4H
      000000D4H   SFRSYM    DATA     BYTE      T3H
      000000D6H   SFRSYM    DATA     BYTE      T2H
      0000008DH   SFRSYM    DATA     BYTE      TH1
      0000008CH   SFRSYM    DATA     BYTE      TH0
      000000A8H.3 SFRSYM    DATA     BIT       ET1
      000000A8H.1 SFRSYM    DATA     BIT       ET0
      0000008EH   SFRSYM    DATA     BYTE      AUXR
      000000AFH   SFRSYM    DATA     BYTE      IE2
      00000088H   SFRSYM    DATA     BYTE      TCON
      00000089H   SFRSYM    DATA     BYTE      TMOD
      00000098H   SFRSYM    DATA     BYTE      SCON
      000000BCH   SFRSYM    DATA     BYTE      ADC_CONTR
      000000DEH   SFRSYM    DATA     BYTE      ADCCFG
      000000B8H   SFRSYM    DATA     BYTE      IP
L251 LINKER/LOCATER V4.66.93.0                                                        07/12/2024  21:17:14  PAGE 47


      000000A8H   SFRSYM    DATA     BYTE      IE
      000000F8H   SFRSYM    DATA     BYTE      P7
      000000E8H   SFRSYM    DATA     BYTE      P6
      000000C8H   SFRSYM    DATA     BYTE      P5
      000000C0H   SFRSYM    DATA     BYTE      P4
      000000B0H   SFRSYM    DATA     BYTE      P3
      000000A0H   SFRSYM    DATA     BYTE      P2
      00000090H   SFRSYM    DATA     BYTE      P1
      00000080H   SFRSYM    DATA     BYTE      P0

      00FF62A9H   BLOCK     CODE     ---       LVL=0
      WR6         REGSYM    ---      INT       tim_n
      00FF62A9H   LINE      CODE     ---       #39
      00FF62A9H   LINE      CODE     ---       #42
      00FF62BDH   LINE      CODE     ---       #44
      00FF62BDH   LINE      CODE     ---       #46
      00FF62C0H   LINE      CODE     ---       #47
      00FF62C3H   LINE      CODE     ---       #48
      00FF62C6H   LINE      CODE     ---       #49
      00FF62C8H   LINE      CODE     ---       #50
      00FF62C9H   LINE      CODE     ---       #53
      00FF62C9H   LINE      CODE     ---       #55
      00FF62CCH   LINE      CODE     ---       #56
      00FF62CFH   LINE      CODE     ---       #57
      00FF62D2H   LINE      CODE     ---       #58
      00FF62D4H   LINE      CODE     ---       #59
      00FF62D5H   LINE      CODE     ---       #62
      00FF62D5H   LINE      CODE     ---       #64
      00FF62D8H   LINE      CODE     ---       #65
      00FF62DBH   LINE      CODE     ---       #66
      00FF62DEH   LINE      CODE     ---       #67
      00FF62DFH   LINE      CODE     ---       #70
      00FF62DFH   LINE      CODE     ---       #72
      00FF62E2H   LINE      CODE     ---       #73
      00FF62E5H   LINE      CODE     ---       #74
      00FF62E8H   LINE      CODE     ---       #75
      00FF62E9H   LINE      CODE     ---       #78
      00FF62E9H   LINE      CODE     ---       #80
      00FF62ECH   LINE      CODE     ---       #81
      00FF62EFH   LINE      CODE     ---       #82
      00FF62F2H   LINE      CODE     ---       #83
      00FF62F2H   LINE      CODE     ---       #86
      00FF62F2H   LINE      CODE     ---       #87
      ---         BLOCKEND  ---      ---       LVL=0

      00FF620FH   BLOCK     CODE     ---       LVL=0
      WR4         REGSYM    ---      INT       tim_n
      00FF6211H   BLOCK     CODE     NEAR LAB  LVL=1
      WR6         REGSYM    ---      WORD      dat
      ---         BLOCKEND  ---      ---       LVL=1
      00FF620FH   LINE      CODE     ---       #95
      00FF6211H   LINE      CODE     ---       #96
      00FF6211H   LINE      CODE     ---       #97
      00FF6213H   LINE      CODE     ---       #99
      00FF6227H   LINE      CODE     ---       #101
      00FF6227H   LINE      CODE     ---       #103
      00FF622DH   LINE      CODE     ---       #104
      00FF622FH   LINE      CODE     ---       #105
      00FF6231H   LINE      CODE     ---       #107
      00FF6231H   LINE      CODE     ---       #109
      00FF6237H   LINE      CODE     ---       #110
      00FF6239H   LINE      CODE     ---       #111
      00FF623BH   LINE      CODE     ---       #113
      00FF623BH   LINE      CODE     ---       #115
      00FF6241H   LINE      CODE     ---       #116
L251 LINKER/LOCATER V4.66.93.0                                                        07/12/2024  21:17:14  PAGE 48


      00FF6243H   LINE      CODE     ---       #117
      00FF6245H   LINE      CODE     ---       #119
      00FF6245H   LINE      CODE     ---       #121
      00FF624BH   LINE      CODE     ---       #122
      00FF624DH   LINE      CODE     ---       #123
      00FF624FH   LINE      CODE     ---       #125
      00FF624FH   LINE      CODE     ---       #127
      00FF6255H   LINE      CODE     ---       #128
      00FF625BH   LINE      CODE     ---       #129
      00FF625BH   LINE      CODE     ---       #132
      00FF625BH   LINE      CODE     ---       #133
      00FF625BH   LINE      CODE     ---       #134
      ---         BLOCKEND  ---      ---       LVL=0

      00FF61BEH   BLOCK     CODE     ---       LVL=0
      WR6         REGSYM    ---      INT       tim_n
      00FF61BEH   LINE      CODE     ---       #143
      00FF61BEH   LINE      CODE     ---       #145
      00FF61D2H   LINE      CODE     ---       #147
      00FF61D2H   LINE      CODE     ---       #149
      00FF61D4H   LINE      CODE     ---       #150
      00FF61D7H   LINE      CODE     ---       #151
      00FF61DAH   LINE      CODE     ---       #152
      00FF61DCH   LINE      CODE     ---       #153
      00FF61DDH   LINE      CODE     ---       #155
      00FF61DDH   LINE      CODE     ---       #157
      00FF61DFH   LINE      CODE     ---       #158
      00FF61E2H   LINE      CODE     ---       #159
      00FF61E5H   LINE      CODE     ---       #160
      00FF61E7H   LINE      CODE     ---       #161
      00FF61E8H   LINE      CODE     ---       #163
      00FF61E8H   LINE      CODE     ---       #165
      00FF61EBH   LINE      CODE     ---       #166
      00FF61EEH   LINE      CODE     ---       #167
      00FF61F1H   LINE      CODE     ---       #168
      00FF61F4H   LINE      CODE     ---       #169
      00FF61F5H   LINE      CODE     ---       #171
      00FF61F5H   LINE      CODE     ---       #173
      00FF61F8H   LINE      CODE     ---       #174
      00FF61FBH   LINE      CODE     ---       #175
      00FF61FEH   LINE      CODE     ---       #176
      00FF6201H   LINE      CODE     ---       #177
      00FF6202H   LINE      CODE     ---       #179
      00FF6202H   LINE      CODE     ---       #181
      00FF6205H   LINE      CODE     ---       #182
      00FF6208H   LINE      CODE     ---       #183
      00FF620BH   LINE      CODE     ---       #184
      00FF620EH   LINE      CODE     ---       #185
      00FF620EH   LINE      CODE     ---       #187
      00FF620EH   LINE      CODE     ---       #188
      ---         BLOCKEND  ---      ---       LVL=0

      00FF5748H   BLOCK     CODE     ---       LVL=0
      WR30        REGSYM    ---      INT       tim_n
      WR28        REGSYM    ---      WORD      time_ms
      00FF574AH   BLOCK     CODE     NEAR LAB  LVL=1
      WR28        REGSYM    ---      WORD      temp
      ---         BLOCKEND  ---      ---       LVL=1
      00FF5748H   LINE      CODE     ---       #198
      00FF574AH   LINE      CODE     ---       #199
      00FF574AH   LINE      CODE     ---       #201
      00FF5767H   LINE      CODE     ---       #203
      00FF576BH   LINE      CODE     ---       #205
      00FF576FH   LINE      CODE     ---       #206
      00FF5775H   LINE      CODE     ---       #207
L251 LINKER/LOCATER V4.66.93.0                                                        07/12/2024  21:17:14  PAGE 49


      00FF5779H   LINE      CODE     ---       #208
      00FF577BH   LINE      CODE     ---       #209
      00FF577DH   LINE      CODE     ---       #210
      00FF577EH   LINE      CODE     ---       #211
      00FF5784H   LINE      CODE     ---       #213
      00FF5788H   LINE      CODE     ---       #214
      00FF578EH   LINE      CODE     ---       #215
      00FF5792H   LINE      CODE     ---       #216
      00FF5794H   LINE      CODE     ---       #217
      00FF5796H   LINE      CODE     ---       #218
      00FF5797H   LINE      CODE     ---       #219
      00FF579DH   LINE      CODE     ---       #221
      00FF57A3H   LINE      CODE     ---       #222
      00FF57A7H   LINE      CODE     ---       #223
      00FF57AAH   LINE      CODE     ---       #224
      00FF57ADH   LINE      CODE     ---       #225
      00FF57AEH   LINE      CODE     ---       #226
      00FF57B4H   LINE      CODE     ---       #228
      00FF57BAH   LINE      CODE     ---       #229
      00FF57BEH   LINE      CODE     ---       #230
      00FF57C1H   LINE      CODE     ---       #231
      00FF57C4H   LINE      CODE     ---       #232
      00FF57C5H   LINE      CODE     ---       #233
      00FF57CBH   LINE      CODE     ---       #235
      00FF57D1H   LINE      CODE     ---       #236
      00FF57D5H   LINE      CODE     ---       #237
      00FF57D8H   LINE      CODE     ---       #238
      00FF57DBH   LINE      CODE     ---       #239
      ---         BLOCKEND  ---      ---       LVL=0
      WR30        REGSYM    ---      INT       tim_n
      WR28        REGSYM    ---      WORD      time_us
      WR28        REGSYM    ---      WORD      temp

      ---         MODULE    ---      ---       zf_uart
      00FF60C2H   PUBLIC    CODE     ---       uart_putchar
      00FF4156H   PUBLIC    CODE     ---       uart_init
      00000321H   PUBLIC    EDATA    ---       uart1_rx_buff
      00000385H   PUBLIC    EDATA    ---       uart1_tx_buff
      000003E9H   PUBLIC    EDATA    ---       busy
      00000400H   PUBLIC    EDATA    BYTE      ?uart_init?BYTE
      000000D0H   SFRSYM    DATA     BYTE      PSW
      000000FDH   SFRSYM    DATA     BYTE      S4CON
      000000ACH   SFRSYM    DATA     BYTE      S3CON
      0000009AH   SFRSYM    DATA     BYTE      S2CON
      000000FEH   SFRSYM    DATA     BYTE      S4BUF
      000000ADH   SFRSYM    DATA     BYTE      S3BUF
      0000009BH   SFRSYM    DATA     BYTE      S2BUF
      000000B7H   SFRSYM    DATA     BYTE      IPH
      000000DDH   SFRSYM    DATA     BYTE      T4T3M
      00000088H.6 SFRSYM    DATA     BIT       TR1
      000000D3H   SFRSYM    DATA     BYTE      T4L
      000000D5H   SFRSYM    DATA     BYTE      T3L
      000000D7H   SFRSYM    DATA     BYTE      T2L
      0000008BH   SFRSYM    DATA     BYTE      TL1
      000000D2H   SFRSYM    DATA     BYTE      T4H
      000000D4H   SFRSYM    DATA     BYTE      T3H
      000000D6H   SFRSYM    DATA     BYTE      T2H
      0000008DH   SFRSYM    DATA     BYTE      TH1
      0000008EH   SFRSYM    DATA     BYTE      AUXR
      000000AFH   SFRSYM    DATA     BYTE      IE2
      00000088H   SFRSYM    DATA     BYTE      TCON
      00000089H   SFRSYM    DATA     BYTE      TMOD
      00000098H   SFRSYM    DATA     BYTE      SCON
      00000099H   SFRSYM    DATA     BYTE      SBUF
      000000BCH   SFRSYM    DATA     BYTE      ADC_CONTR
L251 LINKER/LOCATER V4.66.93.0                                                        07/12/2024  21:17:14  PAGE 50


      000000DEH   SFRSYM    DATA     BYTE      ADCCFG
      000000B8H   SFRSYM    DATA     BYTE      IP
      000000A8H.4 SFRSYM    DATA     BIT       ES
      000000A8H   SFRSYM    DATA     BYTE      IE
      000000BAH   SFRSYM    DATA     BYTE      P_SW2
      000000A2H   SFRSYM    DATA     BYTE      P_SW1
      000000F8H   SFRSYM    DATA     BYTE      P7
      000000E8H   SFRSYM    DATA     BYTE      P6
      000000C8H   SFRSYM    DATA     BYTE      P5
      000000C0H   SFRSYM    DATA     BYTE      P4
      000000C9H   SFRSYM    DATA     BYTE      P5M1
      000000B0H   SFRSYM    DATA     BYTE      P3
      000000CAH   SFRSYM    DATA     BYTE      P5M0
      000000A0H   SFRSYM    DATA     BYTE      P2
      00000090H   SFRSYM    DATA     BYTE      P1
      00000080H   SFRSYM    DATA     BYTE      P0

      00FF4156H   BLOCK     CODE     ---       LVL=0
      WR24        REGSYM    ---      INT       uart_n
      WR28        REGSYM    ---      INT       uart_rx_pin
      WR30        REGSYM    ---      INT       uart_tx_pin
      00000406H   SYMBOL    EDATA    DWORD     baud
      WR26        REGSYM    ---      INT       tim_n
      00FF415EH   BLOCK     CODE     NEAR LAB  LVL=1
      WR6         REGSYM    ---      WORD      brt
      ---         BLOCKEND  ---      ---       LVL=1
      00FF4156H   LINE      CODE     ---       #48
      00FF415EH   LINE      CODE     ---       #49
      00FF415EH   LINE      CODE     ---       #52
      00FF4181H   LINE      CODE     ---       #55
      00FF419FH   LINE      CODE     ---       #57
      00FF419FH   LINE      CODE     ---       #59
      00FF41A5H   LINE      CODE     ---       #61
      00FF41A8H   LINE      CODE     ---       #62
      00FF41ACH   LINE      CODE     ---       #63
      00FF41B0H   LINE      CODE     ---       #64
      00FF41B4H   LINE      CODE     ---       #65
      00FF41B7H   LINE      CODE     ---       #66
      00FF41B9H   LINE      CODE     ---       #67
      00FF41BEH   LINE      CODE     ---       #68
      00FF41C0H   LINE      CODE     ---       #69
      00FF41C6H   LINE      CODE     ---       #71
      00FF41C9H   LINE      CODE     ---       #72
      00FF41CDH   LINE      CODE     ---       #73
      00FF41D1H   LINE      CODE     ---       #74
      00FF41D4H   LINE      CODE     ---       #75
      00FF41D4H   LINE      CODE     ---       #76
      00FF41D7H   LINE      CODE     ---       #77
      00FF41E1H   LINE      CODE     ---       #79
      00FF41E5H   LINE      CODE     ---       #80
      00FF41E7H   LINE      CODE     ---       #81
      00FF41F3H   LINE      CODE     ---       #83
      00FF41F6H   LINE      CODE     ---       #84
      00FF41F8H   LINE      CODE     ---       #85
      00FF4204H   LINE      CODE     ---       #87
      00FF4207H   LINE      CODE     ---       #88
      00FF4209H   LINE      CODE     ---       #89
      00FF4215H   LINE      CODE     ---       #91
      00FF4218H   LINE      CODE     ---       #92
      00FF4218H   LINE      CODE     ---       #93
      00FF421DH   LINE      CODE     ---       #94
      00FF421FH   LINE      CODE     ---       #95
      00FF4220H   LINE      CODE     ---       #98
      00FF4220H   LINE      CODE     ---       #100
      00FF4226H   LINE      CODE     ---       #102
L251 LINKER/LOCATER V4.66.93.0                                                        07/12/2024  21:17:14  PAGE 51


      00FF4229H   LINE      CODE     ---       #103
      00FF422DH   LINE      CODE     ---       #104
      00FF4231H   LINE      CODE     ---       #105
      00FF4234H   LINE      CODE     ---       #106
      00FF4234H   LINE      CODE     ---       #108
      00FF4237H   LINE      CODE     ---       #109
      00FF4243H   LINE      CODE     ---       #111
      00FF4247H   LINE      CODE     ---       #112
      00FF4249H   LINE      CODE     ---       #113
      00FF4255H   LINE      CODE     ---       #115
      00FF4258H   LINE      CODE     ---       #116
      00FF4258H   LINE      CODE     ---       #118
      00FF425BH   LINE      CODE     ---       #119
      00FF4260H   LINE      CODE     ---       #120
      00FF4261H   LINE      CODE     ---       #123
      00FF4261H   LINE      CODE     ---       #125
      00FF4267H   LINE      CODE     ---       #127
      00FF426AH   LINE      CODE     ---       #128
      00FF426EH   LINE      CODE     ---       #129
      00FF4272H   LINE      CODE     ---       #130
      00FF4275H   LINE      CODE     ---       #131
      00FF4277H   LINE      CODE     ---       #132
      00FF427DH   LINE      CODE     ---       #134
      00FF4280H   LINE      CODE     ---       #135
      00FF4284H   LINE      CODE     ---       #136
      00FF4288H   LINE      CODE     ---       #137
      00FF428BH   LINE      CODE     ---       #138
      00FF428BH   LINE      CODE     ---       #140
      00FF428EH   LINE      CODE     ---       #141
      00FF429AH   LINE      CODE     ---       #143
      00FF429EH   LINE      CODE     ---       #144
      00FF42A0H   LINE      CODE     ---       #145
      00FF42ACH   LINE      CODE     ---       #147
      00FF42AFH   LINE      CODE     ---       #148
      00FF42AFH   LINE      CODE     ---       #150
      00FF42B2H   LINE      CODE     ---       #151
      00FF42B7H   LINE      CODE     ---       #152
      00FF42B8H   LINE      CODE     ---       #155
      00FF42B8H   LINE      CODE     ---       #157
      00FF42BEH   LINE      CODE     ---       #159
      00FF42C1H   LINE      CODE     ---       #160
      00FF42C5H   LINE      CODE     ---       #161
      00FF42C9H   LINE      CODE     ---       #162
      00FF42CCH   LINE      CODE     ---       #163
      00FF42CEH   LINE      CODE     ---       #164
      00FF42D4H   LINE      CODE     ---       #166
      00FF42D7H   LINE      CODE     ---       #167
      00FF42DBH   LINE      CODE     ---       #168
      00FF42DFH   LINE      CODE     ---       #169
      00FF42E2H   LINE      CODE     ---       #170
      00FF42E2H   LINE      CODE     ---       #172
      00FF42E5H   LINE      CODE     ---       #173
      00FF42F1H   LINE      CODE     ---       #175
      00FF42F5H   LINE      CODE     ---       #176
      00FF42F7H   LINE      CODE     ---       #177
      00FF4303H   LINE      CODE     ---       #179
      00FF4306H   LINE      CODE     ---       #180
      00FF4309H   LINE      CODE     ---       #181
      00FF430CH   LINE      CODE     ---       #182
      00FF430CH   LINE      CODE     ---       #183
      00FF430FH   LINE      CODE     ---       #184
      00FF4314H   LINE      CODE     ---       #185
      00FF4314H   LINE      CODE     ---       #188
      00FF4314H   LINE      CODE     ---       #190
      ---         BLOCKEND  ---      ---       LVL=0
L251 LINKER/LOCATER V4.66.93.0                                                        07/12/2024  21:17:14  PAGE 52



      00FF60C2H   BLOCK     CODE     ---       LVL=0
      WR6         REGSYM    ---      INT       uart_n
      R10         REGSYM    ---      BYTE      dat
      00FF60C2H   LINE      CODE     ---       #199
      00FF60C4H   LINE      CODE     ---       #201
      00FF60D6H   LINE      CODE     ---       #203
      00FF60D6H   LINE      CODE     ---       #204
      00FF60DCH   LINE      CODE     ---       #205
      00FF60E2H   LINE      CODE     ---       #206
      00FF60E5H   LINE      CODE     ---       #207
      00FF60E6H   LINE      CODE     ---       #208
      00FF60E6H   LINE      CODE     ---       #209
      00FF60ECH   LINE      CODE     ---       #210
      00FF60F2H   LINE      CODE     ---       #211
      00FF60F5H   LINE      CODE     ---       #212
      00FF60F6H   LINE      CODE     ---       #213
      00FF60F6H   LINE      CODE     ---       #214
      00FF60FCH   LINE      CODE     ---       #215
      00FF6102H   LINE      CODE     ---       #216
      00FF6105H   LINE      CODE     ---       #217
      00FF6106H   LINE      CODE     ---       #218
      00FF6106H   LINE      CODE     ---       #219
      00FF610CH   LINE      CODE     ---       #220
      00FF6112H   LINE      CODE     ---       #221
      00FF6115H   LINE      CODE     ---       #222
      00FF6115H   LINE      CODE     ---       #223
      00FF6115H   LINE      CODE     ---       #224
      ---         BLOCKEND  ---      ---       LVL=0
      REG=3       REGSYM    ---      ---       p
      REG=3       REGSYM    ---      ---       str

      ---         MODULE    ---      ---       zf_fifo
      00FF63BFH   PUBLIC    CODE     ---       fifo_head_offset
      00FF4FFBH   PUBLIC    CODE     ---       fifo_write_buffer
      000003EAH   PUBLIC    EDATA    BYTE      ?fifo_write_buffer?BYTE
      000000D0H   SFRSYM    DATA     BYTE      PSW
      000000B7H   SFRSYM    DATA     BYTE      IPH
      00000088H   SFRSYM    DATA     BYTE      TCON
      00000098H   SFRSYM    DATA     BYTE      SCON
      000000BCH   SFRSYM    DATA     BYTE      ADC_CONTR
      000000DEH   SFRSYM    DATA     BYTE      ADCCFG
      000000B8H   SFRSYM    DATA     BYTE      IP
      000000A8H   SFRSYM    DATA     BYTE      IE
      000000F8H   SFRSYM    DATA     BYTE      P7
      000000E8H   SFRSYM    DATA     BYTE      P6
      000000C8H   SFRSYM    DATA     BYTE      P5
      000000C0H   SFRSYM    DATA     BYTE      P4
      000000B0H   SFRSYM    DATA     BYTE      P3
      000000A0H   SFRSYM    DATA     BYTE      P2
      00000090H   SFRSYM    DATA     BYTE      P1
      00000080H   SFRSYM    DATA     BYTE      P0
      REG=2       REGSYM    ---      ---       fifo
      REG=7       REGSYM    ---      ---       buffer_addr

      00FF63BFH   BLOCK     CODE     ---       LVL=0
      REG=7       REGSYM    ---      ---       fifo
      DR24        REGSYM    ---      DWORD     offset
      00FF63BFH   LINE      CODE     ---       #61
      00FF63C3H   LINE      CODE     ---       #63
      00FF63CEH   LINE      CODE     ---       #65
      00FF63D0H   LINE      CODE     ---       #67
      00FF63ECH   LINE      CODE     ---       #68
      00FF6400H   LINE      CODE     ---       #69
      ---         BLOCKEND  ---      ---       LVL=0
L251 LINKER/LOCATER V4.66.93.0                                                        07/12/2024  21:17:14  PAGE 53


      REG=7       REGSYM    ---      ---       fifo
      DR24        REGSYM    ---      DWORD     offset
      REG=2       REGSYM    ---      ---       fifo
      REG=7       REGSYM    ---      ---       fifo

      00FF4FFBH   BLOCK     CODE     ---       LVL=0
      REG=3       REGSYM    ---      ---       fifo
      000003EEH   SYMBOL    EDATA    ---       dat
      000003F2H   SYMBOL    EDATA    DWORD     length
      00FF5003H   BLOCK     CODE     NEAR LAB  LVL=1
      000003F6H   SYMBOL    EDATA    DWORD     temp_length
      ---         BLOCKEND  ---      ---       LVL=1
      00FF4FFBH   LINE      CODE     ---       #120
      00FF5003H   LINE      CODE     ---       #121
      00FF5003H   LINE      CODE     ---       #124
      00FF5016H   LINE      CODE     ---       #126
      00FF502CH   LINE      CODE     ---       #128
      00FF5030H   LINE      CODE     ---       #130
      00FF5048H   LINE      CODE     ---       #131
      00FF5051H   LINE      CODE     ---       #132
      00FF5061H   LINE      CODE     ---       #133
      00FF5081H   LINE      CODE     ---       #134
      00FF508DH   LINE      CODE     ---       #135
      00FF508FH   LINE      CODE     ---       #138
      00FF50ABH   LINE      CODE     ---       #139
      00FF50B4H   LINE      CODE     ---       #140
      00FF50B4H   LINE      CODE     ---       #142
      00FF50CEH   LINE      CODE     ---       #143
      00FF50D0H   LINE      CODE     ---       #146
      00FF50D6H   LINE      CODE     ---       #147
      00FF50D6H   LINE      CODE     ---       #149
      00FF50D8H   LINE      CODE     ---       #150
      ---         BLOCKEND  ---      ---       LVL=0
      REG=3       REGSYM    ---      ---       fifo

      ---         MODULE    ---      ---       SEEKFREE_18TFT
      000000D0H   SFRSYM    DATA     BYTE      PSW
      000000B7H   SFRSYM    DATA     BYTE      IPH
      000000A0H.5 SFRSYM    DATA     BIT       P25
      00000088H   SFRSYM    DATA     BYTE      TCON
      000000A0H.3 SFRSYM    DATA     BIT       P23
      00000098H   SFRSYM    DATA     BYTE      SCON
      000000A0H.2 SFRSYM    DATA     BIT       P22
      000000A0H.1 SFRSYM    DATA     BIT       P21
      000000A0H.0 SFRSYM    DATA     BIT       P20
      000000BCH   SFRSYM    DATA     BYTE      ADC_CONTR
      000000DEH   SFRSYM    DATA     BYTE      ADCCFG
      000000B8H   SFRSYM    DATA     BYTE      IP
      000000A8H   SFRSYM    DATA     BYTE      IE
      000000F8H   SFRSYM    DATA     BYTE      P7
      000000E8H   SFRSYM    DATA     BYTE      P6
      000000C8H   SFRSYM    DATA     BYTE      P5
      000000C0H   SFRSYM    DATA     BYTE      P4
      000000B0H   SFRSYM    DATA     BYTE      P3
      000000A0H   SFRSYM    DATA     BYTE      P2
      00000090H   SFRSYM    DATA     BYTE      P1
      00000080H   SFRSYM    DATA     BYTE      P0
      R7          REGSYM    ---      BYTE      dat
      R6          REGSYM    ---      BYTE      i
      R7          REGSYM    ---      BYTE      dat
      R6          REGSYM    ---      BYTE      i
      WR4         REGSYM    ---      WORD      dat
      R10         REGSYM    ---      BYTE      i
      WR12        REGSYM    ---      WORD      x_end
      WR14        REGSYM    ---      WORD      y_end
L251 LINKER/LOCATER V4.66.93.0                                                        07/12/2024  21:17:14  PAGE 54


      WR14        REGSYM    ---      INT       color
      R13         REGSYM    ---      BYTE      i
      R12         REGSYM    ---      BYTE      j
      WR2         REGSYM    ---      WORD      x
      WR0         REGSYM    ---      WORD      y
      WR14        REGSYM    ---      WORD      color
      WR12        REGSYM    ---      WORD      x
      WR14        REGSYM    ---      WORD      y
      REG=3       REGSYM    ---      ---       dat
      WR12        REGSYM    ---      WORD      x
      WR14        REGSYM    ---      WORD      y
      WR12        REGSYM    ---      WORD      x
      WR14        REGSYM    ---      WORD      y
      R10         REGSYM    ---      BYTE      dat
      WR12        REGSYM    ---      WORD      x
      WR14        REGSYM    ---      WORD      y
      WR12        REGSYM    ---      WORD      x
      WR14        REGSYM    ---      WORD      y
      WR2         REGSYM    ---      WORD      dat
      WR12        REGSYM    ---      WORD      y
      R15         REGSYM    ---      BYTE      num
      R14         REGSYM    ---      BYTE      length
      DR12        REGSYM    ---      FLOAT     dat
      R7          REGSYM    ---      CHAR      point
      R7          REGSYM    ---      BYTE      dat
      R7          REGSYM    ---      BYTE      dat
      WR4         REGSYM    ---      WORD      dat
      WR12        REGSYM    ---      WORD      x_end
      WR14        REGSYM    ---      WORD      y_end
      WR14        REGSYM    ---      INT       color
      R13         REGSYM    ---      BYTE      i
      R12         REGSYM    ---      BYTE      j
      WR2         REGSYM    ---      WORD      x
      WR0         REGSYM    ---      WORD      y
      WR14        REGSYM    ---      WORD      color
      WR12        REGSYM    ---      WORD      x
      WR14        REGSYM    ---      WORD      y
      REG=3       REGSYM    ---      ---       dat
      WR12        REGSYM    ---      WORD      x
      WR14        REGSYM    ---      WORD      y
      WR12        REGSYM    ---      WORD      x
      WR14        REGSYM    ---      WORD      y
      R10         REGSYM    ---      BYTE      dat
      WR12        REGSYM    ---      WORD      x
      WR14        REGSYM    ---      WORD      y
      WR12        REGSYM    ---      WORD      x
      WR14        REGSYM    ---      WORD      y
      WR2         REGSYM    ---      WORD      dat
      WR12        REGSYM    ---      WORD      y
      R15         REGSYM    ---      BYTE      num
      R14         REGSYM    ---      BYTE      length
      DR12        REGSYM    ---      FLOAT     dat
      R7          REGSYM    ---      CHAR      point
      REG=3       REGSYM    ---      ---       p

      ---         MODULE    ---      ---       SEEKFREE_ABSOLUTE_ENCODER
      000000D0H   SFRSYM    DATA     BYTE      PSW
      000000B7H   SFRSYM    DATA     BYTE      IPH
      000000A0H.7 SFRSYM    DATA     BIT       P27
      000000A0H.6 SFRSYM    DATA     BIT       P26
      000000A0H.5 SFRSYM    DATA     BIT       P25
      000000A0H.4 SFRSYM    DATA     BIT       P24
      00000088H   SFRSYM    DATA     BYTE      TCON
      00000098H   SFRSYM    DATA     BYTE      SCON
      000000A0H.2 SFRSYM    DATA     BIT       P22
L251 LINKER/LOCATER V4.66.93.0                                                        07/12/2024  21:17:14  PAGE 55


      000000BCH   SFRSYM    DATA     BYTE      ADC_CONTR
      000000DEH   SFRSYM    DATA     BYTE      ADCCFG
      000000B8H   SFRSYM    DATA     BYTE      IP
      000000A8H   SFRSYM    DATA     BYTE      IE
      000000F8H   SFRSYM    DATA     BYTE      P7
      000000E8H   SFRSYM    DATA     BYTE      P6
      000000C8H   SFRSYM    DATA     BYTE      P5
      000000C0H   SFRSYM    DATA     BYTE      P4
      000000B0H   SFRSYM    DATA     BYTE      P3
      000000A0H   SFRSYM    DATA     BYTE      P2
      00000090H   SFRSYM    DATA     BYTE      P1
      00000080H   SFRSYM    DATA     BYTE      P0
      WR6         REGSYM    ---      WORD      x
      R6          REGSYM    ---      BYTE      byte
      R7          REGSYM    ---      BYTE      i
      R7          REGSYM    ---      BYTE      cmd
      R15         REGSYM    ---      BYTE      val
      R7          REGSYM    ---      BYTE      cmd
      REG=3       REGSYM    ---      ---       val
      R7          REGSYM    ---      BYTE      cmd
      R15         REGSYM    ---      BYTE      val
      R14         REGSYM    ---      BYTE      dat
      R7          REGSYM    ---      BYTE      cmd
      REG=3       REGSYM    ---      ---       val
      WR14        REGSYM    ---      WORD      zero_position
      WR14        REGSYM    ---      WORD      angle
      R10         REGSYM    ---      BYTE      byte
      R7          REGSYM    ---      BYTE      cmd
      R15         REGSYM    ---      BYTE      val
      R7          REGSYM    ---      BYTE      cmd
      REG=3       REGSYM    ---      ---       val
      R7          REGSYM    ---      BYTE      cmd
      R15         REGSYM    ---      BYTE      val
      R14         REGSYM    ---      BYTE      dat
      R7          REGSYM    ---      BYTE      cmd
      REG=3       REGSYM    ---      ---       val
      WR14        REGSYM    ---      WORD      zero_position
      WR14        REGSYM    ---      WORD      angle

      ---         MODULE    ---      ---       SEEKFREE_FONT
      00FF00A6H   PUBLIC    CODE     ---       oled_8x16
      00FF0696H   PUBLIC    CODE     ---       tft_ascii
      00FF0C86H   PUBLIC    CODE     ---       oled_6x8
      000000D0H   SFRSYM    DATA     BYTE      PSW
      000000B7H   SFRSYM    DATA     BYTE      IPH
      00000088H   SFRSYM    DATA     BYTE      TCON
      00000098H   SFRSYM    DATA     BYTE      SCON
      000000BCH   SFRSYM    DATA     BYTE      ADC_CONTR
      000000DEH   SFRSYM    DATA     BYTE      ADCCFG
      000000B8H   SFRSYM    DATA     BYTE      IP
      000000A8H   SFRSYM    DATA     BYTE      IE
      000000F8H   SFRSYM    DATA     BYTE      P7
      000000E8H   SFRSYM    DATA     BYTE      P6
      000000C8H   SFRSYM    DATA     BYTE      P5
      000000C0H   SFRSYM    DATA     BYTE      P4
      000000B0H   SFRSYM    DATA     BYTE      P3
      000000A0H   SFRSYM    DATA     BYTE      P2
      00000090H   SFRSYM    DATA     BYTE      P1
      00000080H   SFRSYM    DATA     BYTE      P0

      ---         MODULE    ---      ---       SEEKFREE_IIC
      0000074DH   PUBLIC    EDATA    BYTE      IIC_ad_main
      0000074EH   PUBLIC    EDATA    BYTE      IIC_num
      0000074FH   PUBLIC    EDATA    BYTE      IIC_ad_sub
      00000750H   PUBLIC    EDATA    ---       IIC_buf
L251 LINKER/LOCATER V4.66.93.0                                                        07/12/2024  21:17:14  PAGE 56


      000000D0H   SFRSYM    DATA     BYTE      PSW
      000000B7H   SFRSYM    DATA     BYTE      IPH
      00000088H   SFRSYM    DATA     BYTE      TCON
      000000C0H.1 SFRSYM    DATA     BIT       P41
      00000098H   SFRSYM    DATA     BYTE      SCON
      000000C0H.0 SFRSYM    DATA     BIT       P40
      000000BCH   SFRSYM    DATA     BYTE      ADC_CONTR
      000000DEH   SFRSYM    DATA     BYTE      ADCCFG
      000000B8H   SFRSYM    DATA     BYTE      IP
      000000A8H   SFRSYM    DATA     BYTE      IE
      000000F8H   SFRSYM    DATA     BYTE      P7
      000000E8H   SFRSYM    DATA     BYTE      P6
      000000C8H   SFRSYM    DATA     BYTE      P5
      000000C0H   SFRSYM    DATA     BYTE      P4
      000000B0H   SFRSYM    DATA     BYTE      P3
      000000A0H   SFRSYM    DATA     BYTE      P2
      00000090H   SFRSYM    DATA     BYTE      P1
      00000080H   SFRSYM    DATA     BYTE      P0
      WR6         REGSYM    ---      WORD      j
      R15         REGSYM    ---      BYTE      ack_dat
      R15         REGSYM    ---      BYTE      c
      R14         REGSYM    ---      BYTE      i
      R15         REGSYM    ---      BYTE      ack_x
      R13         REGSYM    ---      BYTE      i
      R14         REGSYM    ---      BYTE      c
      R13         REGSYM    ---      BYTE      dev_add
      R14         REGSYM    ---      BYTE      reg
      R15         REGSYM    ---      BYTE      dat
      R15         REGSYM    ---      BYTE      dev_add
      R14         REGSYM    ---      BYTE      reg
      WR12        REGSYM    ---      INT       type
      R15         REGSYM    ---      BYTE      dat
      REG=3       REGSYM    ---      ---       dat_add

      ---         MODULE    ---      ---       SEEKFREE_MPU6050
      0000072BH   PUBLIC    EDATA    INT       mpu_acc_x
      0000072DH   PUBLIC    EDATA    INT       mpu_acc_y
      0000072FH   PUBLIC    EDATA    INT       mpu_acc_z
      00000731H   PUBLIC    EDATA    INT       mpu_gyro_x
      00000733H   PUBLIC    EDATA    INT       mpu_gyro_y
      00000735H   PUBLIC    EDATA    INT       mpu_gyro_z
      000000D0H   SFRSYM    DATA     BYTE      PSW
      000000B7H   SFRSYM    DATA     BYTE      IPH
      00000088H   SFRSYM    DATA     BYTE      TCON
      00000098H   SFRSYM    DATA     BYTE      SCON
      000000BCH   SFRSYM    DATA     BYTE      ADC_CONTR
      000000DEH   SFRSYM    DATA     BYTE      ADCCFG
      000000B8H   SFRSYM    DATA     BYTE      IP
      000000A8H   SFRSYM    DATA     BYTE      IE
      000000F8H   SFRSYM    DATA     BYTE      P7
      000000E8H   SFRSYM    DATA     BYTE      P6
      000000C8H   SFRSYM    DATA     BYTE      P5
      000000C0H   SFRSYM    DATA     BYTE      P4
      000000B0H   SFRSYM    DATA     BYTE      P3
      000000A0H   SFRSYM    DATA     BYTE      P2
      00000090H   SFRSYM    DATA     BYTE      P1
      00000080H   SFRSYM    DATA     BYTE      P0

      ---         MODULE    ---      ---       SEEKFREE_OLED
      00FF698AH   PUBLIC    CODE     ---       oled_set_pos
      00FF4C47H   PUBLIC    CODE     ---       oled_printf_float
      00FF689FH   PUBLIC    CODE     ---       oled_wrcmd
      00FF68C8H   PUBLIC    CODE     ---       oled_wrdat
      00FF66CCH   PUBLIC    CODE     ---       oled_fill
      00FF560AH   PUBLIC    CODE     ---       oled_init
L251 LINKER/LOCATER V4.66.93.0                                                        07/12/2024  21:17:14  PAGE 57


      00FF4E2FH   PUBLIC    CODE     ---       oled_p8x16str
      00000402H   PUBLIC    EDATA    BYTE      ?oled_printf_float?BYTE
      000000D0H   SFRSYM    DATA     BYTE      PSW
      000000B7H   SFRSYM    DATA     BYTE      IPH
      000000A0H.5 SFRSYM    DATA     BIT       P25
      00000088H   SFRSYM    DATA     BYTE      TCON
      000000A0H.3 SFRSYM    DATA     BIT       P23
      00000098H   SFRSYM    DATA     BYTE      SCON
      000000A0H.2 SFRSYM    DATA     BIT       P22
      000000A0H.1 SFRSYM    DATA     BIT       P21
      000000A0H.0 SFRSYM    DATA     BIT       P20
      000000BCH   SFRSYM    DATA     BYTE      ADC_CONTR
      000000DEH   SFRSYM    DATA     BYTE      ADCCFG
      000000B8H   SFRSYM    DATA     BYTE      IP
      000000A8H   SFRSYM    DATA     BYTE      IE
      000000F8H   SFRSYM    DATA     BYTE      P7
      000000E8H   SFRSYM    DATA     BYTE      P6
      000000C8H   SFRSYM    DATA     BYTE      P5
      000000C0H   SFRSYM    DATA     BYTE      P4
      000000B0H   SFRSYM    DATA     BYTE      P3
      000000A0H   SFRSYM    DATA     BYTE      P2
      00000090H   SFRSYM    DATA     BYTE      P1
      00000080H   SFRSYM    DATA     BYTE      P0

      00FF68C8H   BLOCK     CODE     ---       LVL=0
      R7          REGSYM    ---      BYTE      dat
      00FF68CAH   BLOCK     CODE     NEAR LAB  LVL=1
      R6          REGSYM    ---      BYTE      i
      ---         BLOCKEND  ---      ---       LVL=1
      00FF68C8H   LINE      CODE     ---       #47
      00FF68CAH   LINE      CODE     ---       #48
      00FF68CAH   LINE      CODE     ---       #49
      00FF68CDH   LINE      CODE     ---       #51
      00FF68CFH   LINE      CODE     ---       #52
      00FF68D1H   LINE      CODE     ---       #53
      00FF68D3H   LINE      CODE     ---       #54
      00FF68D5H   LINE      CODE     ---       #56
      00FF68DEH   LINE      CODE     ---       #57
      00FF68E0H   LINE      CODE     ---       #58
      00FF68E2H   LINE      CODE     ---       #60
      00FF68E4H   LINE      CODE     ---       #61
      00FF68E6H   LINE      CODE     ---       #62
      00FF68EEH   LINE      CODE     ---       #63
      00FF68F0H   LINE      CODE     ---       #64
      ---         BLOCKEND  ---      ---       LVL=0

      00FF689FH   BLOCK     CODE     ---       LVL=0
      R7          REGSYM    ---      BYTE      cmd
      00FF68A1H   BLOCK     CODE     NEAR LAB  LVL=1
      R6          REGSYM    ---      BYTE      i
      ---         BLOCKEND  ---      ---       LVL=1
      00FF689FH   LINE      CODE     ---       #98
      00FF68A1H   LINE      CODE     ---       #99
      00FF68A1H   LINE      CODE     ---       #100
      00FF68A4H   LINE      CODE     ---       #102
      00FF68A6H   LINE      CODE     ---       #103
      00FF68A8H   LINE      CODE     ---       #104
      00FF68AAH   LINE      CODE     ---       #106
      00FF68ACH   LINE      CODE     ---       #108
      00FF68B5H   LINE      CODE     ---       #109
      00FF68B7H   LINE      CODE     ---       #110
      00FF68B9H   LINE      CODE     ---       #112
      00FF68BBH   LINE      CODE     ---       #113
      00FF68BDH   LINE      CODE     ---       #114
      00FF68C5H   LINE      CODE     ---       #115
L251 LINKER/LOCATER V4.66.93.0                                                        07/12/2024  21:17:14  PAGE 58


      00FF68C7H   LINE      CODE     ---       #116
      ---         BLOCKEND  ---      ---       LVL=0
      WR8         REGSYM    ---      WORD      hex
      REG=7       REGSYM    ---      ---       Print
      R5          REGSYM    ---      BYTE      hexcheck
      R10         REGSYM    ---      BYTE      TEMP

      00FF560AH   BLOCK     CODE     ---       LVL=0
      00FF560AH   LINE      CODE     ---       #148
      00FF560AH   LINE      CODE     ---       #151
      00FF560CH   LINE      CODE     ---       #152
      00FF560EH   LINE      CODE     ---       #154
      00FF5610H   LINE      CODE     ---       #155
      00FF5617H   LINE      CODE     ---       #156
      00FF5619H   LINE      CODE     ---       #158
      00FF561EH   LINE      CODE     ---       #159
      00FF5622H   LINE      CODE     ---       #160
      00FF5627H   LINE      CODE     ---       #161
      00FF562CH   LINE      CODE     ---       #162
      00FF5631H   LINE      CODE     ---       #163
      00FF5636H   LINE      CODE     ---       #166
      00FF563BH   LINE      CODE     ---       #167
      00FF5640H   LINE      CODE     ---       #173
      00FF5645H   LINE      CODE     ---       #174
      00FF564AH   LINE      CODE     ---       #175
      00FF564FH   LINE      CODE     ---       #176
      00FF5654H   LINE      CODE     ---       #177
      00FF5658H   LINE      CODE     ---       #178
      00FF565DH   LINE      CODE     ---       #179
      00FF5662H   LINE      CODE     ---       #180
      00FF5667H   LINE      CODE     ---       #181
      00FF566CH   LINE      CODE     ---       #182
      00FF5671H   LINE      CODE     ---       #183
      00FF5676H   LINE      CODE     ---       #184
      00FF567BH   LINE      CODE     ---       #185
      00FF5680H   LINE      CODE     ---       #186
      00FF5685H   LINE      CODE     ---       #187
      00FF568AH   LINE      CODE     ---       #188
      00FF568FH   LINE      CODE     ---       #189
      00FF5694H   LINE      CODE     ---       #190
      00FF5699H   LINE      CODE     ---       #191
      00FF569EH   LINE      CODE     ---       #192
      00FF56A3H   LINE      CODE     ---       #193
      00FF56A7H   LINE      CODE     ---       #194
      ---         BLOCKEND  ---      ---       LVL=0

      00FF698AH   BLOCK     CODE     ---       LVL=0
      R15         REGSYM    ---      BYTE      x
      R10         REGSYM    ---      BYTE      y
      00FF698AH   LINE      CODE     ---       #205
      00FF698EH   LINE      CODE     ---       #207
      00FF6995H   LINE      CODE     ---       #208
      00FF69A3H   LINE      CODE     ---       #209
      00FF69AAH   LINE      CODE     ---       #210
      ---         BLOCKEND  ---      ---       LVL=0

      00FF66CCH   BLOCK     CODE     ---       LVL=0
      R15         REGSYM    ---      BYTE      bmp_data
      00FF66D2H   BLOCK     CODE     NEAR LAB  LVL=1
      R14         REGSYM    ---      BYTE      y
      R13         REGSYM    ---      BYTE      x
      ---         BLOCKEND  ---      ---       LVL=1
      00FF66CCH   LINE      CODE     ---       #219
      00FF66D2H   LINE      CODE     ---       #220
      00FF66D2H   LINE      CODE     ---       #223
L251 LINKER/LOCATER V4.66.93.0                                                        07/12/2024  21:17:14  PAGE 59


      00FF66D4H   LINE      CODE     ---       #225
      00FF66DBH   LINE      CODE     ---       #226
      00FF66E0H   LINE      CODE     ---       #227
      00FF66E5H   LINE      CODE     ---       #228
      00FF66F3H   LINE      CODE     ---       #229
      00FF66FAH   LINE      CODE     ---       #230
      ---         BLOCKEND  ---      ---       LVL=0
      R15         REGSYM    ---      BYTE      x
      R14         REGSYM    ---      BYTE      y
      R13         REGSYM    ---      BYTE      data1
      R15         REGSYM    ---      BYTE      x
      R14         REGSYM    ---      BYTE      y
      REG=3       REGSYM    ---      ---       ch

      00FF4E2FH   BLOCK     CODE     ---       LVL=0
      00000431H   SYMBOL    EDATA    BYTE      x
      00000432H   SYMBOL    EDATA    BYTE      y
      REG=3       REGSYM    ---      ---       ch
      00FF4E3BH   BLOCK     CODE     NEAR LAB  LVL=1
      00000433H   SYMBOL    EDATA    BYTE      c
      00000434H   SYMBOL    EDATA    BYTE      i
      00000435H   SYMBOL    EDATA    BYTE      j
      ---         BLOCKEND  ---      ---       LVL=1
      00FF4E2FH   LINE      CODE     ---       #302
      00FF4E3BH   LINE      CODE     ---       #303
      00FF4E3BH   LINE      CODE     ---       #304
      00FF4E44H   LINE      CODE     ---       #306
      00FF4E47H   LINE      CODE     ---       #308
      00FF4E5EH   LINE      CODE     ---       #309
      00FF4E75H   LINE      CODE     ---       #311
      00FF4E80H   LINE      CODE     ---       #312
      00FF4EB1H   LINE      CODE     ---       #314
      00FF4EBEH   LINE      CODE     ---       #315
      00FF4EEFH   LINE      CODE     ---       #317
      00FF4EF9H   LINE      CODE     ---       #318
      00FF4F02H   LINE      CODE     ---       #319
      00FF4F14H   LINE      CODE     ---       #320
      ---         BLOCKEND  ---      ---       LVL=0
      R14         REGSYM    ---      BYTE      x
      R15         REGSYM    ---      BYTE      y
      WR4         REGSYM    ---      WORD      num
      R15         REGSYM    ---      BYTE      x
      R14         REGSYM    ---      BYTE      y
      WR12        REGSYM    ---      INT       num
      WR12        REGSYM    ---      WORD      y
      R15         REGSYM    ---      BYTE      num
      R14         REGSYM    ---      BYTE      length

      00FF4C47H   BLOCK     CODE     ---       LVL=0
      00000406H   SYMBOL    EDATA    WORD      x
      00000408H   SYMBOL    EDATA    WORD      y
      DR12        REGSYM    ---      FLOAT     dat
      0000040AH   SYMBOL    EDATA    BYTE      num
      0000040BH   SYMBOL    EDATA    BYTE      pointnum
      00FF4C57H   BLOCK     CODE     NEAR LAB  LVL=1
      0000040CH   SYMBOL    EDATA    BYTE      length
      0000040DH   SYMBOL    EDATA    ---       buff
      0000042FH   SYMBOL    EDATA    CHAR      start
      00000430H   SYMBOL    EDATA    CHAR      end
      R7          REGSYM    ---      CHAR      point
      ---         BLOCKEND  ---      ---       LVL=1
      00FF4C47H   LINE      CODE     ---       #412
      00FF4C57H   LINE      CODE     ---       #413
      00FF4C57H   LINE      CODE     ---       #418
      00FF4C66H   LINE      CODE     ---       #419
L251 LINKER/LOCATER V4.66.93.0                                                        07/12/2024  21:17:14  PAGE 60


      00FF4C75H   LINE      CODE     ---       #421
      00FF4C97H   LINE      CODE     ---       #424
      00FF4CB0H   LINE      CODE     ---       #425
      00FF4CB5H   LINE      CODE     ---       #426
      00FF4CB5H   LINE      CODE     ---       #427
      00FF4CBFH   LINE      CODE     ---       #428
      00FF4CCFH   LINE      CODE     ---       #429
      00FF4CDFH   LINE      CODE     ---       #430
      00FF4CE4H   LINE      CODE     ---       #432
      00FF4CEEH   LINE      CODE     ---       #433
      00FF4CF7H   LINE      CODE     ---       #434
      00FF4D00H   LINE      CODE     ---       #435
      00FF4D09H   LINE      CODE     ---       #437
      00FF4D16H   LINE      CODE     ---       #438
      00FF4D22H   LINE      CODE     ---       #440
      00FF4D2DH   LINE      CODE     ---       #442
      00FF4D3CH   LINE      CODE     ---       #443
      ---         BLOCKEND  ---      ---       LVL=0
      WR4         REGSYM    ---      WORD      high
      REG=3       REGSYM    ---      ---       p
      REG=3       REGSYM    ---      ---       p
      R7          REGSYM    ---      BYTE      dat
      R7          REGSYM    ---      BYTE      cmd
      WR8         REGSYM    ---      WORD      hex
      REG=7       REGSYM    ---      ---       Print
      R5          REGSYM    ---      BYTE      hexcheck
      R10         REGSYM    ---      BYTE      TEMP
      R15         REGSYM    ---      BYTE      x
      R10         REGSYM    ---      BYTE      y
      R15         REGSYM    ---      BYTE      bmp_data
      R14         REGSYM    ---      BYTE      y
      R13         REGSYM    ---      BYTE      x
      R15         REGSYM    ---      BYTE      x
      R14         REGSYM    ---      BYTE      y
      R13         REGSYM    ---      BYTE      data1
      R15         REGSYM    ---      BYTE      x
      R14         REGSYM    ---      BYTE      y
      REG=3       REGSYM    ---      ---       ch
      REG=3       REGSYM    ---      ---       ch
      R14         REGSYM    ---      BYTE      x
      R15         REGSYM    ---      BYTE      y
      WR4         REGSYM    ---      WORD      num
      R15         REGSYM    ---      BYTE      x
      R14         REGSYM    ---      BYTE      y
      WR12        REGSYM    ---      INT       num
      WR12        REGSYM    ---      WORD      y
      R15         REGSYM    ---      BYTE      num
      R14         REGSYM    ---      BYTE      length
      DR12        REGSYM    ---      FLOAT     dat
      R7          REGSYM    ---      CHAR      point
      WR4         REGSYM    ---      WORD      high
      REG=3       REGSYM    ---      ---       p
      REG=3       REGSYM    ---      ---       p

      ---         MODULE    ---      ---       SEEKFREE_AT24C02
      000000D0H   SFRSYM    DATA     BYTE      PSW
      000000B7H   SFRSYM    DATA     BYTE      IPH
      00000088H   SFRSYM    DATA     BYTE      TCON
      00000098H   SFRSYM    DATA     BYTE      SCON
      000000BCH   SFRSYM    DATA     BYTE      ADC_CONTR
      000000DEH   SFRSYM    DATA     BYTE      ADCCFG
      000000B8H   SFRSYM    DATA     BYTE      IP
      000000A8H   SFRSYM    DATA     BYTE      IE
      000000F8H   SFRSYM    DATA     BYTE      P7
      000000E8H   SFRSYM    DATA     BYTE      P6
L251 LINKER/LOCATER V4.66.93.0                                                        07/12/2024  21:17:14  PAGE 61


      000000C8H   SFRSYM    DATA     BYTE      P5
      000000C0H   SFRSYM    DATA     BYTE      P4
      000000B0H   SFRSYM    DATA     BYTE      P3
      000000A0H   SFRSYM    DATA     BYTE      P2
      00000090H   SFRSYM    DATA     BYTE      P1
      00000080H   SFRSYM    DATA     BYTE      P0
      R14         REGSYM    ---      BYTE      byte_reg
      R15         REGSYM    ---      BYTE      dat
      R15         REGSYM    ---      BYTE      byte_reg
      REG=3       REGSYM    ---      ---       dat_add
      REG=3       REGSYM    ---      ---       dat_add

      ---         MODULE    ---      ---       SEEKFREE_BLUETOOTH_CH9141
      00FF6A88H   PUBLIC    CODE     ---       bluetooth_ch9141_uart_callback
      000000D0H   SFRSYM    DATA     BYTE      PSW
      000000FEH   SFRSYM    DATA     BYTE      S4BUF
      000000B7H   SFRSYM    DATA     BYTE      IPH
      00000080H.7 SFRSYM    DATA     BIT       P07
      00000088H   SFRSYM    DATA     BYTE      TCON
      00000098H   SFRSYM    DATA     BYTE      SCON
      000000BCH   SFRSYM    DATA     BYTE      ADC_CONTR
      000000DEH   SFRSYM    DATA     BYTE      ADCCFG
      000000B8H   SFRSYM    DATA     BYTE      IP
      000000A8H   SFRSYM    DATA     BYTE      IE
      000000F8H   SFRSYM    DATA     BYTE      P7
      000000E8H   SFRSYM    DATA     BYTE      P6
      000000C8H   SFRSYM    DATA     BYTE      P5
      000000C0H   SFRSYM    DATA     BYTE      P4
      000000B0H   SFRSYM    DATA     BYTE      P3
      000000A0H   SFRSYM    DATA     BYTE      P2
      00000090H   SFRSYM    DATA     BYTE      P1
      00000080H   SFRSYM    DATA     BYTE      P0
      0000055EH   SYMBOL    EDATA    ---       bluetooth_ch9141_buffer
      0000059EH   SYMBOL    EDATA    BYTE      bluetooth_ch9141_data
      0000059FH   SYMBOL    EDATA    ---       bluetooth_ch9141_fifo

      00FF6A88H   BLOCK     CODE     ---       LVL=0
      00FF6A88H   LINE      CODE     ---       #67
      00FF6A88H   LINE      CODE     ---       #70
      00FF6A8EH   LINE      CODE     ---       #71
      ---         BLOCKEND  ---      ---       LVL=0
      DR12        REGSYM    ---      DWORD     len
      REG=7       REGSYM    ---      ---       buff
      DR8         REGSYM    ---      DWORD     len

      ---         MODULE    ---      ---       SEEKFREE_ICM20602
      00000737H   PUBLIC    EDATA    INT       icm_acc_x
      00000739H   PUBLIC    EDATA    INT       icm_acc_y
      0000073BH   PUBLIC    EDATA    INT       icm_acc_z
      0000073DH   PUBLIC    EDATA    INT       icm_gyro_x
      0000073FH   PUBLIC    EDATA    INT       icm_gyro_y
      00000741H   PUBLIC    EDATA    INT       icm_gyro_z
      000000D0H   SFRSYM    DATA     BYTE      PSW
      000000B7H   SFRSYM    DATA     BYTE      IPH
      000000C0H.3 SFRSYM    DATA     BIT       P43
      000000C0H.2 SFRSYM    DATA     BIT       P42
      00000088H   SFRSYM    DATA     BYTE      TCON
      000000C0H.1 SFRSYM    DATA     BIT       P41
      00000098H   SFRSYM    DATA     BYTE      SCON
      000000C0H.0 SFRSYM    DATA     BIT       P40
      000000BCH   SFRSYM    DATA     BYTE      ADC_CONTR
      000000DEH   SFRSYM    DATA     BYTE      ADCCFG
      000000B8H   SFRSYM    DATA     BYTE      IP
      000000A8H   SFRSYM    DATA     BYTE      IE
      000000F8H   SFRSYM    DATA     BYTE      P7
L251 LINKER/LOCATER V4.66.93.0                                                        07/12/2024  21:17:14  PAGE 62


      000000E8H   SFRSYM    DATA     BYTE      P6
      000000C8H   SFRSYM    DATA     BYTE      P5
      000000C0H   SFRSYM    DATA     BYTE      P4
      000000B0H   SFRSYM    DATA     BYTE      P3
      000000A0H   SFRSYM    DATA     BYTE      P2
      00000090H   SFRSYM    DATA     BYTE      P1
      00000080H   SFRSYM    DATA     BYTE      P0
      R15         REGSYM    ---      BYTE      dat
      R6          REGSYM    ---      BYTE      byte
      R7          REGSYM    ---      BYTE      i
      R7          REGSYM    ---      BYTE      cmd
      R15         REGSYM    ---      BYTE      val
      R7          REGSYM    ---      BYTE      cmd
      REG=3       REGSYM    ---      ---       val
      R7          REGSYM    ---      BYTE      cmd
      REG=3       REGSYM    ---      ---       val

      ---         MODULE    ---      ---       SEEKFREE_IPS114_SPI
      000000D0H   SFRSYM    DATA     BYTE      PSW
      000000B7H   SFRSYM    DATA     BYTE      IPH
      000000A0H.7 SFRSYM    DATA     BIT       P27
      000000A0H.5 SFRSYM    DATA     BIT       P25
      00000088H   SFRSYM    DATA     BYTE      TCON
      000000A0H.3 SFRSYM    DATA     BIT       P23
      00000098H   SFRSYM    DATA     BYTE      SCON
      000000A0H.2 SFRSYM    DATA     BIT       P22
      000000A0H.1 SFRSYM    DATA     BIT       P21
      000000A0H.0 SFRSYM    DATA     BIT       P20
      000000BCH   SFRSYM    DATA     BYTE      ADC_CONTR
      000000DEH   SFRSYM    DATA     BYTE      ADCCFG
      000000B8H   SFRSYM    DATA     BYTE      IP
      000000A8H   SFRSYM    DATA     BYTE      IE
      000000F8H   SFRSYM    DATA     BYTE      P7
      000000E8H   SFRSYM    DATA     BYTE      P6
      000000C8H   SFRSYM    DATA     BYTE      P5
      000000C0H   SFRSYM    DATA     BYTE      P4
      000000B0H   SFRSYM    DATA     BYTE      P3
      000000A0H   SFRSYM    DATA     BYTE      P2
      00000090H   SFRSYM    DATA     BYTE      P1
      00000080H   SFRSYM    DATA     BYTE      P0
      R7          REGSYM    ---      BYTE      dat
      R6          REGSYM    ---      BYTE      i
      R7          REGSYM    ---      BYTE      dat
      R6          REGSYM    ---      BYTE      i
      WR4         REGSYM    ---      WORD      dat
      R10         REGSYM    ---      BYTE      i
      WR12        REGSYM    ---      WORD      x2
      WR14        REGSYM    ---      WORD      y2
      WR14        REGSYM    ---      WORD      color
      R13         REGSYM    ---      BYTE      i
      WR2         REGSYM    ---      WORD      x
      WR0         REGSYM    ---      WORD      y
      WR14        REGSYM    ---      WORD      color
      WR12        REGSYM    ---      WORD      x
      WR14        REGSYM    ---      WORD      y
      REG=3       REGSYM    ---      ---       dat
      WR12        REGSYM    ---      WORD      x
      WR14        REGSYM    ---      WORD      y
      WR12        REGSYM    ---      WORD      x
      WR14        REGSYM    ---      WORD      y
      R10         REGSYM    ---      BYTE      dat
      WR12        REGSYM    ---      WORD      x
      WR14        REGSYM    ---      WORD      y
      WR12        REGSYM    ---      WORD      x
      WR14        REGSYM    ---      WORD      y
L251 LINKER/LOCATER V4.66.93.0                                                        07/12/2024  21:17:14  PAGE 63


      WR2         REGSYM    ---      WORD      dat
      WR12        REGSYM    ---      WORD      y
      R15         REGSYM    ---      BYTE      num
      R14         REGSYM    ---      BYTE      length
      DR12        REGSYM    ---      FLOAT     dat
      R7          REGSYM    ---      CHAR      point
      R7          REGSYM    ---      BYTE      dat
      R7          REGSYM    ---      BYTE      dat
      WR4         REGSYM    ---      WORD      dat
      WR12        REGSYM    ---      WORD      x2
      WR14        REGSYM    ---      WORD      y2
      WR14        REGSYM    ---      WORD      color
      R13         REGSYM    ---      BYTE      i
      WR2         REGSYM    ---      WORD      x
      WR0         REGSYM    ---      WORD      y
      WR14        REGSYM    ---      WORD      color
      WR12        REGSYM    ---      WORD      x
      WR14        REGSYM    ---      WORD      y
      REG=3       REGSYM    ---      ---       dat
      WR12        REGSYM    ---      WORD      x
      WR14        REGSYM    ---      WORD      y
      WR12        REGSYM    ---      WORD      x
      WR14        REGSYM    ---      WORD      y
      R10         REGSYM    ---      BYTE      dat
      WR12        REGSYM    ---      WORD      x
      WR14        REGSYM    ---      WORD      y
      WR12        REGSYM    ---      WORD      x
      WR14        REGSYM    ---      WORD      y
      WR2         REGSYM    ---      WORD      dat
      WR12        REGSYM    ---      WORD      y
      R15         REGSYM    ---      BYTE      num
      R14         REGSYM    ---      BYTE      length
      DR12        REGSYM    ---      FLOAT     dat
      R7          REGSYM    ---      CHAR      point

      ---         MODULE    ---      ---       SEEKFREE_TSL1401
      0000013DH   PUBLIC    EDATA    BYTE      tsl1401_finish_flag
      0000013EH   PUBLIC    EDATA    ---       ccd_data
      000000D0H   SFRSYM    DATA     BYTE      PSW
      000000B7H   SFRSYM    DATA     BYTE      IPH
      000000B0H.3 SFRSYM    DATA     BIT       P33
      00000088H   SFRSYM    DATA     BYTE      TCON
      000000B0H.2 SFRSYM    DATA     BIT       P32
      00000098H   SFRSYM    DATA     BYTE      SCON
      000000BCH   SFRSYM    DATA     BYTE      ADC_CONTR
      000000DEH   SFRSYM    DATA     BYTE      ADCCFG
      000000B8H   SFRSYM    DATA     BYTE      IP
      000000A8H   SFRSYM    DATA     BYTE      IE
      000000F8H   SFRSYM    DATA     BYTE      P7
      000000E8H   SFRSYM    DATA     BYTE      P6
      000000C8H   SFRSYM    DATA     BYTE      P5
      000000C0H   SFRSYM    DATA     BYTE      P4
      000000B0H   SFRSYM    DATA     BYTE      P3
      000000A0H   SFRSYM    DATA     BYTE      P2
      00000090H   SFRSYM    DATA     BYTE      P1
      00000080H   SFRSYM    DATA     BYTE      P0
      REG=3       REGSYM    ---      ---       dat
      R15         REGSYM    ---      BYTE      i

      ---         MODULE    ---      ---       SEEKFREE_VIRSCO
      00000743H   PUBLIC    EDATA    ---       virtual_scope_data
      000000D0H   SFRSYM    DATA     BYTE      PSW
      000000B7H   SFRSYM    DATA     BYTE      IPH
      00000088H   SFRSYM    DATA     BYTE      TCON
      00000098H   SFRSYM    DATA     BYTE      SCON
L251 LINKER/LOCATER V4.66.93.0                                                        07/12/2024  21:17:14  PAGE 64


      000000BCH   SFRSYM    DATA     BYTE      ADC_CONTR
      000000DEH   SFRSYM    DATA     BYTE      ADCCFG
      000000B8H   SFRSYM    DATA     BYTE      IP
      000000A8H   SFRSYM    DATA     BYTE      IE
      000000F8H   SFRSYM    DATA     BYTE      P7
      000000E8H   SFRSYM    DATA     BYTE      P6
      000000C8H   SFRSYM    DATA     BYTE      P5
      000000C0H   SFRSYM    DATA     BYTE      P4
      000000B0H   SFRSYM    DATA     BYTE      P3
      000000A0H   SFRSYM    DATA     BYTE      P2
      00000090H   SFRSYM    DATA     BYTE      P1
      00000080H   SFRSYM    DATA     BYTE      P0
      REG=7       REGSYM    ---      ---       Buf
      R10         REGSYM    ---      BYTE      CRC_CNT
      WR6         REGSYM    ---      WORD      CRC_Temp
      R5          REGSYM    ---      BYTE      i
      R4          REGSYM    ---      BYTE      j
      WR0         REGSYM    ---      INT       data1
      WR30        REGSYM    ---      INT       data2
      WR8         REGSYM    ---      INT       data3
      WR10        REGSYM    ---      INT       data4
      WR6         REGSYM    ---      WORD      CRC16

      ---         MODULE    ---      ---       SEEKFREE_WIRELESS
      00FF6AA1H   PUBLIC    CODE     ---       wireless_uart_callback
      000000D0H   SFRSYM    DATA     BYTE      PSW
      000000FEH   SFRSYM    DATA     BYTE      S4BUF
      000000B7H   SFRSYM    DATA     BYTE      IPH
      00000080H.7 SFRSYM    DATA     BIT       P07
      00000088H   SFRSYM    DATA     BYTE      TCON
      00000098H   SFRSYM    DATA     BYTE      SCON
      000000BCH   SFRSYM    DATA     BYTE      ADC_CONTR
      000000DEH   SFRSYM    DATA     BYTE      ADCCFG
      000000B8H   SFRSYM    DATA     BYTE      IP
      000000A8H   SFRSYM    DATA     BYTE      IE
      000000F8H   SFRSYM    DATA     BYTE      P7
      000000E8H   SFRSYM    DATA     BYTE      P6
      000000C8H   SFRSYM    DATA     BYTE      P5
      000000C0H   SFRSYM    DATA     BYTE      P4
      000000B0H   SFRSYM    DATA     BYTE      P3
      000000A0H   SFRSYM    DATA     BYTE      P2
      00000090H   SFRSYM    DATA     BYTE      P1
      00000080H   SFRSYM    DATA     BYTE      P0
      000005B3H   SYMBOL    EDATA    BYTE      wireless_uart_data
      000005B4H   SYMBOL    EDATA    ---       wireless_uart_fifo
      000005C8H   SYMBOL    EDATA    ---       wireless_uart_buffer

      00FF6AA1H   BLOCK     CODE     ---       LVL=0
      00FF6AA1H   LINE      CODE     ---       #48
      00FF6AA1H   LINE      CODE     ---       #51
      00FF6AA7H   LINE      CODE     ---       #52
      ---         BLOCKEND  ---      ---       LVL=0
      REG=3       REGSYM    ---      ---       buff
      REG=7       REGSYM    ---      ---       buff
      DR8         REGSYM    ---      DWORD     len

      ---         MODULE    ---      ---       SEEKFREE_WIRELESS_CH573
      00FF6ABAH   PUBLIC    CODE     ---       wireless_ch573_callback
      000000D0H   SFRSYM    DATA     BYTE      PSW
      000000FEH   SFRSYM    DATA     BYTE      S4BUF
      000000B7H   SFRSYM    DATA     BYTE      IPH
      00000080H.7 SFRSYM    DATA     BIT       P07
      00000088H   SFRSYM    DATA     BYTE      TCON
      00000098H   SFRSYM    DATA     BYTE      SCON
      000000BCH   SFRSYM    DATA     BYTE      ADC_CONTR
L251 LINKER/LOCATER V4.66.93.0                                                        07/12/2024  21:17:14  PAGE 65


      000000DEH   SFRSYM    DATA     BYTE      ADCCFG
      000000B8H   SFRSYM    DATA     BYTE      IP
      000000A8H   SFRSYM    DATA     BYTE      IE
      000000F8H   SFRSYM    DATA     BYTE      P7
      000000E8H   SFRSYM    DATA     BYTE      P6
      000000C8H   SFRSYM    DATA     BYTE      P5
      000000C0H   SFRSYM    DATA     BYTE      P4
      000000B0H   SFRSYM    DATA     BYTE      P3
      000000A0H   SFRSYM    DATA     BYTE      P2
      00000090H   SFRSYM    DATA     BYTE      P1
      00000080H   SFRSYM    DATA     BYTE      P0
      00000608H   SYMBOL    EDATA    ---       wireless_ch573_buffer
      00000648H   SYMBOL    EDATA    BYTE      wireless_ch573_data
      00000649H   SYMBOL    EDATA    ---       wireless_ch573_fifo

      00FF6ABAH   BLOCK     CODE     ---       LVL=0
      00FF6ABAH   LINE      CODE     ---       #39
      00FF6ABAH   LINE      CODE     ---       #42
      00FF6AC0H   LINE      CODE     ---       #43
      ---         BLOCKEND  ---      ---       LVL=0
      REG=3       REGSYM    ---      ---       buff
      REG=7       REGSYM    ---      ---       buff
      DR8         REGSYM    ---      DWORD     len

      ---         MODULE    ---      ---       isr
      00FF653FH   PUBLIC    CODE     ---       UART1_Isr
      00FF6A32H   PUBLIC    CODE     ---       UART2_Isr
      00FF6A50H   PUBLIC    CODE     ---       UART3_Isr
      00FF5E30H   PUBLIC    CODE     ---       UART4_Isr
      00FF4917H   PUBLIC    CODE     ---       Get_Ratio
      00FF6C84H   PUBLIC    CODE     ---       INT0_Isr
      00FF0011H   PUBLIC    CODE     ---       INT1_Isr
      00FF6C5CH   PUBLIC    CODE     ---       INT2_Isr
      00FF6C64H   PUBLIC    CODE     ---       INT3_Isr
      00FF6C6CH   PUBLIC    CODE     ---       INT4_Isr
      00FF0012H   PUBLIC    CODE     ---       TM0_Isr
      00FF0019H   PUBLIC    CODE     ---       TM1_Isr
      00FF6C74H   PUBLIC    CODE     ---       TM2_Isr
      00FF6C7CH   PUBLIC    CODE     ---       TM3_Isr
      00FF3191H   PUBLIC    CODE     ---       TM4_Isr
      000004FCH   PUBLIC    EDATA    FLOAT     Act_PwmR
      00000500H   PUBLIC    EDATA    FLOAT     Ratio
      00000504H   PUBLIC    EDATA    FLOAT     sum_L
      00000508H   PUBLIC    EDATA    FLOAT     Exp_Speed
      0000050CH   PUBLIC    EDATA    CHAR      Read_Nums
      0000050DH   PUBLIC    EDATA    CHAR      Flag_Stop
      0000050EH   PUBLIC    EDATA    FLOAT     Exp_Speed_gain
      00000512H   PUBLIC    EDATA    FLOAT     sum_R
      00000516H   PUBLIC    EDATA    FLOAT     Plus_Mid
      0000051AH   PUBLIC    EDATA    FLOAT     Plus
      0000051EH   PUBLIC    EDATA    CHAR      count
      0000051FH   PUBLIC    EDATA    FLOAT     Exp_Speed_L
      00000523H   PUBLIC    EDATA    FLOAT     Exp_Speed_R
      00000527H   PUBLIC    EDATA    FLOAT     Sum_Dis
      0000052BH   PUBLIC    EDATA    FLOAT     Angle_Edge
      0000052FH   PUBLIC    EDATA    CHAR      Distance_Num
      00000530H   PUBLIC    EDATA    FLOAT     Flag_Out_L
      00000534H   PUBLIC    EDATA    CHAR      Speed_Delay
      00000535H   PUBLIC    EDATA    FLOAT     Flag_Out_R
      00000539H   PUBLIC    EDATA    CHAR      Edge_Delay
      0000053AH   PUBLIC    EDATA    CHAR      Isr_Flag_10
      0000053BH   PUBLIC    EDATA    INT       gx
      0000053DH   PUBLIC    EDATA    INT       gy
      0000053FH   PUBLIC    EDATA    INT       gz
      00000541H   PUBLIC    EDATA    FLOAT     Diff_Mid
L251 LINKER/LOCATER V4.66.93.0                                                        07/12/2024  21:17:14  PAGE 66


      00000545H   PUBLIC    EDATA    FLOAT     Diff
      00000549H   PUBLIC    EDATA    FLOAT     Act_PwmL
      0000054DH   PUBLIC    EDATA    FLOAT     Ratio_Mid
      000000D0H   SFRSYM    DATA     BYTE      PSW
      000000EFH   SFRSYM    DATA     BYTE      AUXINTIF
      000000FDH   SFRSYM    DATA     BYTE      S4CON
      000000ACH   SFRSYM    DATA     BYTE      S3CON
      0000009AH   SFRSYM    DATA     BYTE      S2CON
      000000B7H   SFRSYM    DATA     BYTE      IPH
      000000C7H   SFRSYM    DATA     BYTE      IAP_CONTR
      000000C8H.2 SFRSYM    DATA     BIT       P52
      00000088H   SFRSYM    DATA     BYTE      TCON
      00000098H   SFRSYM    DATA     BYTE      SCON
      00000099H   SFRSYM    DATA     BYTE      SBUF
      000000BCH   SFRSYM    DATA     BYTE      ADC_CONTR
      000000DEH   SFRSYM    DATA     BYTE      ADCCFG
      000000B8H   SFRSYM    DATA     BYTE      IP
      000000A8H   SFRSYM    DATA     BYTE      IE
      000000F8H   SFRSYM    DATA     BYTE      P7
      000000E8H   SFRSYM    DATA     BYTE      P6
      000000C8H   SFRSYM    DATA     BYTE      P5
      000000C0H   SFRSYM    DATA     BYTE      P4
      000000B0H   SFRSYM    DATA     BYTE      P3
      000000A0H   SFRSYM    DATA     BYTE      P2
      00000090H   SFRSYM    DATA     BYTE      P1
      00000080H   SFRSYM    DATA     BYTE      P0

      00FF3191H   BLOCK     CODE     ---       LVL=0
      00FF3191H   LINE      CODE     ---       #41
      00FF31A7H   LINE      CODE     ---       #43
      00FF31AAH   LINE      CODE     ---       #44
      00FF31B3H   LINE      CODE     ---       #45
      00FF31B9H   LINE      CODE     ---       #46
      00FF31BCH   LINE      CODE     ---       #47
      00FF31BFH   LINE      CODE     ---       #48
      00FF31C2H   LINE      CODE     ---       #49
      00FF31C5H   LINE      CODE     ---       #52
      00FF31D1H   LINE      CODE     ---       #53
      00FF31DBH   LINE      CODE     ---       #54
      00FF31E3H   LINE      CODE     ---       #56
      00FF3205H   LINE      CODE     ---       #58
      00FF320BH   LINE      CODE     ---       #59
      00FF320DH   LINE      CODE     ---       #62
      00FF3235H   LINE      CODE     ---       #63
      00FF3235H   LINE      CODE     ---       #66
      00FF3260H   LINE      CODE     ---       #68
      00FF3276H   LINE      CODE     ---       #69
      00FF3280H   LINE      CODE     ---       #70
      00FF3280H   LINE      CODE     ---       #82
      00FF32A6H   LINE      CODE     ---       #88
      00FF32ACH   LINE      CODE     ---       #90
      00FF32BBH   LINE      CODE     ---       #91
      00FF32C2H   LINE      CODE     ---       #93
      00FF32C7H   LINE      CODE     ---       #94
      00FF32D0H   LINE      CODE     ---       #96
      00FF32D6H   LINE      CODE     ---       #98
      00FF32DBH   LINE      CODE     ---       #99
      00FF32DBH   LINE      CODE     ---       #100
      00FF3301H   LINE      CODE     ---       #101
      00FF3301H   LINE      CODE     ---       #106
      00FF3318H   LINE      CODE     ---       #107
      00FF3346H   LINE      CODE     ---       #108
      00FF335BH   LINE      CODE     ---       #109
      00FF336AH   LINE      CODE     ---       #110
      00FF3377H   LINE      CODE     ---       #112
L251 LINKER/LOCATER V4.66.93.0                                                        07/12/2024  21:17:14  PAGE 67


      00FF3393H   LINE      CODE     ---       #113
      00FF33AFH   LINE      CODE     ---       #114
      00FF33B1H   LINE      CODE     ---       #117
      00FF33DFH   LINE      CODE     ---       #118
      00FF33F9H   LINE      CODE     ---       #119
      00FF33F9H   LINE      CODE     ---       #121
      00FF340CH   LINE      CODE     ---       #122
      00FF341FH   LINE      CODE     ---       #125
      00FF3428H   LINE      CODE     ---       #126
      00FF342DH   LINE      CODE     ---       #128
      00FF3453H   LINE      CODE     ---       #129
      00FF3457H   LINE      CODE     ---       #130
      00FF3477H   LINE      CODE     ---       #131
      00FF347CH   LINE      CODE     ---       #135
      00FF3492H   LINE      CODE     ---       #137
      00FF349BH   LINE      CODE     ---       #138
      00FF349DH   LINE      CODE     ---       #139
      00FF349FH   LINE      CODE     ---       #142
      00FF34AAH   LINE      CODE     ---       #143
      00FF34B5H   LINE      CODE     ---       #144
      00FF34B5H   LINE      CODE     ---       #147
      00FF34BFH   LINE      CODE     ---       #149
      00FF34CAH   LINE      CODE     ---       #150
      00FF34D4H   LINE      CODE     ---       #151
      00FF34D6H   LINE      CODE     ---       #153
      00FF34DFH   LINE      CODE     ---       #156
      00FF34E8H   LINE      CODE     ---       #158
      00FF34F1H   LINE      CODE     ---       #159
      00FF34F6H   LINE      CODE     ---       #160
      ---         BLOCKEND  ---      ---       LVL=0

      00FF4917H   BLOCK     CODE     ---       LVL=0
      00000551H   SYMBOL    EDATA    FLOAT     sum_01
      00000555H   SYMBOL    EDATA    FLOAT     sum_34
      00000559H   SYMBOL    EDATA    FLOAT     sum
      00FF4917H   LINE      CODE     ---       #165
      00FF4917H   LINE      CODE     ---       #166
      00FF4917H   LINE      CODE     ---       #171
      00FF4937H   LINE      CODE     ---       #172
      00FF4959H   LINE      CODE     ---       #173
      00FF4968H   LINE      CODE     ---       #174
      00FF4973H   LINE      CODE     ---       #176
      00FF4986H   LINE      CODE     ---       #177
      00FF4999H   LINE      CODE     ---       #178
      00FF49A2H   LINE      CODE     ---       #180
      00FF49B3H   LINE      CODE     ---       #182
      00FF49C2H   LINE      CODE     ---       #183
      00FF49C8H   LINE      CODE     ---       #184
      00FF49CCH   LINE      CODE     ---       #185
      00FF49D1H   LINE      CODE     ---       #186
      00FF49D2H   LINE      CODE     ---       #189
      00FF49E4H   LINE      CODE     ---       #190
      00FF49EBH   LINE      CODE     ---       #192
      00FF4A08H   LINE      CODE     ---       #194
      00FF4A0EH   LINE      CODE     ---       #195
      00FF4A23H   LINE      CODE     ---       #197
      00FF4A2DH   LINE      CODE     ---       #198
      00FF4A2EH   LINE      CODE     ---       #199
      00FF4A43H   LINE      CODE     ---       #201
      00FF4A4DH   LINE      CODE     ---       #202
      00FF4A4DH   LINE      CODE     ---       #204
      00FF4A4DH   LINE      CODE     ---       #205
      ---         BLOCKEND  ---      ---       LVL=0

      00FF653FH   BLOCK     CODE     ---       LVL=0
L251 LINKER/LOCATER V4.66.93.0                                                        07/12/2024  21:17:14  PAGE 68


      00FF6543H   BLOCK     CODE     NEAR LAB  LVL=1
      R11         REGSYM    ---      BYTE      res
      0000055DH   SYMBOL    EDATA    BYTE      dwon_count
      ---         BLOCKEND  ---      ---       LVL=1
      00FF653FH   LINE      CODE     ---       #227
      00FF6543H   LINE      CODE     ---       #228
      00FF6543H   LINE      CODE     ---       #231
      00FF6548H   LINE      CODE     ---       #233
      00FF654BH   LINE      CODE     ---       #234
      00FF6550H   LINE      CODE     ---       #235
      00FF6550H   LINE      CODE     ---       #236
      00FF6555H   LINE      CODE     ---       #238
      00FF6558H   LINE      CODE     ---       #239
      00FF655AH   LINE      CODE     ---       #241
      00FF655DH   LINE      CODE     ---       #243
      00FF656DH   LINE      CODE     ---       #244
      00FF6570H   LINE      CODE     ---       #245
      00FF6572H   LINE      CODE     ---       #248
      00FF6577H   LINE      CODE     ---       #249
      00FF6577H   LINE      CODE     ---       #250
      ---         BLOCKEND  ---      ---       LVL=0

      00FF6A32H   BLOCK     CODE     ---       LVL=0
      00FF6A32H   LINE      CODE     ---       #254
      00FF6A36H   LINE      CODE     ---       #256
      00FF6A3BH   LINE      CODE     ---       #258
      00FF6A3EH   LINE      CODE     ---       #259
      00FF6A43H   LINE      CODE     ---       #260
      00FF6A43H   LINE      CODE     ---       #261
      00FF6A48H   LINE      CODE     ---       #263
      00FF6A4BH   LINE      CODE     ---       #266
      ---         BLOCKEND  ---      ---       LVL=0

      00FF6A50H   BLOCK     CODE     ---       LVL=0
      00FF6A50H   LINE      CODE     ---       #271
      00FF6A54H   LINE      CODE     ---       #273
      00FF6A59H   LINE      CODE     ---       #275
      00FF6A5CH   LINE      CODE     ---       #276
      00FF6A61H   LINE      CODE     ---       #277
      00FF6A61H   LINE      CODE     ---       #278
      00FF6A66H   LINE      CODE     ---       #280
      00FF6A69H   LINE      CODE     ---       #283
      ---         BLOCKEND  ---      ---       LVL=0

      00FF5E30H   BLOCK     CODE     ---       LVL=0
      00FF5E30H   LINE      CODE     ---       #288
      00FF5E48H   LINE      CODE     ---       #290
      00FF5E4DH   LINE      CODE     ---       #292
      00FF5E50H   LINE      CODE     ---       #293
      00FF5E55H   LINE      CODE     ---       #294
      00FF5E55H   LINE      CODE     ---       #295
      00FF5E5AH   LINE      CODE     ---       #297
      00FF5E5DH   LINE      CODE     ---       #300
      00FF5E67H   LINE      CODE     ---       #302
      00FF5E6AH   LINE      CODE     ---       #303
      00FF5E6CH   LINE      CODE     ---       #304
      00FF5E72H   LINE      CODE     ---       #306
      00FF5E75H   LINE      CODE     ---       #307
      00FF5E77H   LINE      CODE     ---       #308
      00FF5E7DH   LINE      CODE     ---       #310
      00FF5E80H   LINE      CODE     ---       #311
      00FF5E80H   LINE      CODE     ---       #313
      ---         BLOCKEND  ---      ---       LVL=0

      00FF6C84H   BLOCK     CODE     ---       LVL=0
L251 LINKER/LOCATER V4.66.93.0                                                        07/12/2024  21:17:14  PAGE 69


      00FF6C84H   LINE      CODE     ---       #316
      00FF6C86H   LINE      CODE     ---       #318
      00FF6C88H   LINE      CODE     ---       #319
      ---         BLOCKEND  ---      ---       LVL=0

      00FF0011H   BLOCK     CODE     ---       LVL=0
      00FF0011H   LINE      CODE     ---       #320
      00FF0011H   LINE      CODE     ---       #323
      ---         BLOCKEND  ---      ---       LVL=0

      00FF6C5CH   BLOCK     CODE     ---       LVL=0
      00FF6C5CH   LINE      CODE     ---       #324
      00FF6C5EH   LINE      CODE     ---       #326
      00FF6C61H   LINE      CODE     ---       #327
      ---         BLOCKEND  ---      ---       LVL=0

      00FF6C64H   BLOCK     CODE     ---       LVL=0
      00FF6C64H   LINE      CODE     ---       #328
      00FF6C66H   LINE      CODE     ---       #330
      00FF6C69H   LINE      CODE     ---       #331
      ---         BLOCKEND  ---      ---       LVL=0

      00FF6C6CH   BLOCK     CODE     ---       LVL=0
      00FF6C6CH   LINE      CODE     ---       #333
      00FF6C6EH   LINE      CODE     ---       #335
      00FF6C71H   LINE      CODE     ---       #336
      ---         BLOCKEND  ---      ---       LVL=0

      00FF0012H   BLOCK     CODE     ---       LVL=0
      00FF0012H   LINE      CODE     ---       #338
      00FF0012H   LINE      CODE     ---       #341
      ---         BLOCKEND  ---      ---       LVL=0

      00FF0019H   BLOCK     CODE     ---       LVL=0
      00FF0019H   LINE      CODE     ---       #342
      00FF0019H   LINE      CODE     ---       #345
      ---         BLOCKEND  ---      ---       LVL=0

      00FF6C74H   BLOCK     CODE     ---       LVL=0
      00FF6C74H   LINE      CODE     ---       #346
      00FF6C76H   LINE      CODE     ---       #348
      00FF6C79H   LINE      CODE     ---       #350
      ---         BLOCKEND  ---      ---       LVL=0

      00FF6C7CH   BLOCK     CODE     ---       LVL=0
      00FF6C7CH   LINE      CODE     ---       #351
      00FF6C7EH   LINE      CODE     ---       #353
      00FF6C81H   LINE      CODE     ---       #355
      ---         BLOCKEND  ---      ---       LVL=0

      ---         MODULE    ---      ---       main
      00FF4315H   PUBLIC    CODE     ---       main
      00FF4B4BH   PUBLIC    CODE     ---       Init_all
      00FF67F4H   PUBLIC    CODE     ---       Filter_Window
      00FF5B7FH   PUBLIC    CODE     ---       Speed_Gain
      000006ADH   PUBLIC    EDATA    CHAR      KeyValue
      000006AEH   PUBLIC    EDATA    FLOAT     Dis_Process
      000006B2H   PUBLIC    EDATA    FLOAT     Adjust_Val
      000000D0H   SFRSYM    DATA     BYTE      PSW
      000000B7H   SFRSYM    DATA     BYTE      IPH
      000000E9H   SFRSYM    DATA     BYTE      WTST
      00000088H   SFRSYM    DATA     BYTE      TCON
      00000098H   SFRSYM    DATA     BYTE      SCON
      000000BCH   SFRSYM    DATA     BYTE      ADC_CONTR
      000000DEH   SFRSYM    DATA     BYTE      ADCCFG
L251 LINKER/LOCATER V4.66.93.0                                                        07/12/2024  21:17:14  PAGE 70


      000000B8H   SFRSYM    DATA     BYTE      IP
      000000A8H   SFRSYM    DATA     BYTE      IE
      000000F8H   SFRSYM    DATA     BYTE      P7
      000000E8H   SFRSYM    DATA     BYTE      P6
      000000C8H   SFRSYM    DATA     BYTE      P5
      000000C0H   SFRSYM    DATA     BYTE      P4
      000000B0H   SFRSYM    DATA     BYTE      P3
      000000A0H   SFRSYM    DATA     BYTE      P2
      00000090H   SFRSYM    DATA     BYTE      P1
      00000080H   SFRSYM    DATA     BYTE      P0

      00FF67F4H   BLOCK     CODE     ---       LVL=0
      WR4         REGSYM    ---      WORD      Dis
      00FF67F6H   BLOCK     CODE     NEAR LAB  LVL=1
      000006B6H   SYMBOL    EDATA    ---       filter_buf
      WR4         REGSYM    ---      INT       i
      WR6         REGSYM    ---      WORD      filter_sum
      ---         BLOCKEND  ---      ---       LVL=1
      00FF67F4H   LINE      CODE     ---       #24
      00FF67F6H   LINE      CODE     ---       #25
      00FF67F6H   LINE      CODE     ---       #28
      00FF67F8H   LINE      CODE     ---       #29
      00FF67FCH   LINE      CODE     ---       #30
      00FF67FEH   LINE      CODE     ---       #32
      00FF680AH   LINE      CODE     ---       #33
      00FF6810H   LINE      CODE     ---       #34
      00FF6818H   LINE      CODE     ---       #35
      00FF681EH   LINE      CODE     ---       #36
      ---         BLOCKEND  ---      ---       LVL=0

      00FF4315H   BLOCK     CODE     ---       LVL=0
      00FF4315H   LINE      CODE     ---       #38
      00FF4315H   LINE      CODE     ---       #40
      00FF4318H   LINE      CODE     ---       #41
      00FF431BH   LINE      CODE     ---       #42
      00FF4321H   LINE      CODE     ---       #43
      00FF4321H   LINE      CODE     ---       #46
      00FF435CH   LINE      CODE     ---       #49
      00FF435FH   LINE      CODE     ---       #50
      00FF4367H   LINE      CODE     ---       #51
      00FF4384H   LINE      CODE     ---       #52
      00FF43A7H   LINE      CODE     ---       #53
      00FF43BFH   LINE      CODE     ---       #54
      00FF43D9H   LINE      CODE     ---       #57
      00FF43E5H   LINE      CODE     ---       #59
      00FF43E8H   LINE      CODE     ---       #60
      00FF43FBH   LINE      CODE     ---       #61
      00FF4402H   LINE      CODE     ---       #63
      00FF4413H   LINE      CODE     ---       #64
      00FF4413H   LINE      CODE     ---       #65
      00FF4416H   LINE      CODE     ---       #67
      00FF441DH   LINE      CODE     ---       #78
      00FF443CH   LINE      CODE     ---       #80
      00FF4446H   LINE      CODE     ---       #81
      00FF4463H   LINE      CODE     ---       #82
      00FF4465H   LINE      CODE     ---       #83
      00FF447EH   LINE      CODE     ---       #85
      00FF4488H   LINE      CODE     ---       #86
      00FF44ABH   LINE      CODE     ---       #87
      00FF44ADH   LINE      CODE     ---       #89
      00FF44B2H   LINE      CODE     ---       #91
      00FF44B7H   LINE      CODE     ---       #92
      ---         BLOCKEND  ---      ---       LVL=0

      00FF5B7FH   BLOCK     CODE     ---       LVL=0
L251 LINKER/LOCATER V4.66.93.0                                                        07/12/2024  21:17:14  PAGE 71


      WR30        REGSYM    ---      INT       i
      000006C8H   SYMBOL    EDATA    ---       Speed_Buf
      00FF5B7FH   LINE      CODE     ---       #96
      00FF5B7FH   LINE      CODE     ---       #97
      00FF5B7FH   LINE      CODE     ---       #98
      00FF5B81H   LINE      CODE     ---       #100
      00FF5B99H   LINE      CODE     ---       #101
      00FF5B99H   LINE      CODE     ---       #103
      00FF5BAFH   LINE      CODE     ---       #104
      00FF5BC2H   LINE      CODE     ---       #105
      00FF5BCAH   LINE      CODE     ---       #106
      00FF5BD9H   LINE      CODE     ---       #108
      00FF5BDFH   LINE      CODE     ---       #109
      00FF5BE7H   LINE      CODE     ---       #110
      00FF5BE9H   LINE      CODE     ---       #113
      00FF5BEFH   LINE      CODE     ---       #114
      00FF5BF7H   LINE      CODE     ---       #115
      00FF5BF7H   LINE      CODE     ---       #116
      ---         BLOCKEND  ---      ---       LVL=0

      00FF4B4BH   BLOCK     CODE     ---       LVL=0
      00FF4B4BH   LINE      CODE     ---       #120
      00FF4B4BH   LINE      CODE     ---       #122
      00FF4B4EH   LINE      CODE     ---       #123
      00FF4B51H   LINE      CODE     ---       #124
      00FF4B5DH   LINE      CODE     ---       #126
      00FF4B60H   LINE      CODE     ---       #129
      00FF4B69H   LINE      CODE     ---       #130
      00FF4B72H   LINE      CODE     ---       #133
      00FF4B75H   LINE      CODE     ---       #137
      00FF4B78H   LINE      CODE     ---       #139
      00FF4B7BH   LINE      CODE     ---       #142
      00FF4B7EH   LINE      CODE     ---       #145
      00FF4B89H   LINE      CODE     ---       #148
      00FF4B8EH   LINE      CODE     ---       #149
      00FF4B95H   LINE      CODE     ---       #152
      00FF4B98H   LINE      CODE     ---       #155
      00FF4B9BH   LINE      CODE     ---       #158
      00FF4B9EH   LINE      CODE     ---       #161
      00FF4BC9H   LINE      CODE     ---       #164
      00FF4C08H   LINE      CODE     ---       #165
      ---         BLOCKEND  ---      ---       LVL=0

      ---         MODULE    ---      ---       motor
      00FF51B6H   PUBLIC    CODE     ---       Right_SetSpeed
      00FF6338H   PUBLIC    CODE     ---       Motor_Init
      00FF527DH   PUBLIC    CODE     ---       Left_SetSpeed
      00FF681FH   PUBLIC    CODE     ---       Limit_Out
      00FF5344H   PUBLIC    CODE     ---       Get_Speed
      00FF6B5FH   PUBLIC    CODE     ---       Num2Abs
      00000709H   PUBLIC    EDATA    FLOAT     Speed_L
      0000070DH   PUBLIC    EDATA    FLOAT     Speed_R
      000003FAH   PUBLIC    EDATA    BYTE      ?Limit_Out?BYTE
      000000D0H   SFRSYM    DATA     BYTE      PSW
      000000B7H   SFRSYM    DATA     BYTE      IPH
      000000B0H.5 SFRSYM    DATA     BIT       P35
      000000C8H.3 SFRSYM    DATA     BIT       P53
      00000088H   SFRSYM    DATA     BYTE      TCON
      00000098H   SFRSYM    DATA     BYTE      SCON
      000000BCH   SFRSYM    DATA     BYTE      ADC_CONTR
      000000DEH   SFRSYM    DATA     BYTE      ADCCFG
      000000B8H   SFRSYM    DATA     BYTE      IP
      000000A8H   SFRSYM    DATA     BYTE      IE
      000000F8H   SFRSYM    DATA     BYTE      P7
      000000E8H   SFRSYM    DATA     BYTE      P6
L251 LINKER/LOCATER V4.66.93.0                                                        07/12/2024  21:17:14  PAGE 72


      000000C8H   SFRSYM    DATA     BYTE      P5
      000000C0H   SFRSYM    DATA     BYTE      P4
      000000B0H   SFRSYM    DATA     BYTE      P3
      000000A0H   SFRSYM    DATA     BYTE      P2
      00000090H   SFRSYM    DATA     BYTE      P1
      00000080H   SFRSYM    DATA     BYTE      P0

      00FF681FH   BLOCK     CODE     ---       LVL=0
      REG=7       REGSYM    ---      ---       Output
      DR24        REGSYM    ---      FLOAT     Limit_Min
      00000402H   SYMBOL    EDATA    FLOAT     Limit_Max
      00FF681FH   LINE      CODE     ---       #16
      00FF6823H   LINE      CODE     ---       #18
      00FF6835H   LINE      CODE     ---       #19
      00FF6849H   LINE      CODE     ---       #20
      ---         BLOCKEND  ---      ---       LVL=0

      00FF6B5FH   BLOCK     CODE     ---       LVL=0
      DR28        REGSYM    ---      FLOAT     x
      00FF6B5FH   LINE      CODE     ---       #22
      00FF6B61H   LINE      CODE     ---       #24
      00FF6B68H   LINE      CODE     ---       #25
      00FF6B6DH   LINE      CODE     ---       #26
      00FF6B6FH   LINE      CODE     ---       #27
      ---         BLOCKEND  ---      ---       LVL=0

      00FF6338H   BLOCK     CODE     ---       LVL=0
      00FF6338H   LINE      CODE     ---       #29
      00FF6338H   LINE      CODE     ---       #31
      00FF6349H   LINE      CODE     ---       #32
      00FF635AH   LINE      CODE     ---       #33
      00FF636BH   LINE      CODE     ---       #34
      ---         BLOCKEND  ---      ---       LVL=0

      00FF527DH   BLOCK     CODE     ---       LVL=0
      DR12        REGSYM    ---      FLOAT     speed
      00FF5281H   BLOCK     CODE     NEAR LAB  LVL=1
      00000711H   SYMBOL    EDATA    INT       Special_NumL
      ---         BLOCKEND  ---      ---       LVL=1
      00FF527DH   LINE      CODE     ---       #37
      00FF5281H   LINE      CODE     ---       #38
      00FF5281H   LINE      CODE     ---       #40
      00FF5291H   LINE      CODE     ---       #41
      00FF5299H   LINE      CODE     ---       #43
      00FF529FH   LINE      CODE     ---       #44
      00FF52A5H   LINE      CODE     ---       #46
      00FF52AEH   LINE      CODE     ---       #47
      00FF52B7H   LINE      CODE     ---       #48
      00FF52BCH   LINE      CODE     ---       #49
      00FF52BCH   LINE      CODE     ---       #52
      00FF52D1H   LINE      CODE     ---       #53
      00FF52E4H   LINE      CODE     ---       #54
      00FF52EDH   LINE      CODE     ---       #56
      00FF5300H   LINE      CODE     ---       #57
      00FF5300H   LINE      CODE     ---       #58
      00FF5302H   LINE      CODE     ---       #59
      00FF530BH   LINE      CODE     ---       #61
      00FF5314H   LINE      CODE     ---       #62
      00FF5329H   LINE      CODE     ---       #63
      00FF532BH   LINE      CODE     ---       #66
      00FF532DH   LINE      CODE     ---       #67
      00FF5336H   LINE      CODE     ---       #68
      00FF533FH   LINE      CODE     ---       #69
      00FF533FH   LINE      CODE     ---       #70
      00FF5341H   LINE      CODE     ---       #71
L251 LINKER/LOCATER V4.66.93.0                                                        07/12/2024  21:17:14  PAGE 73


      00FF5341H   LINE      CODE     ---       #72
      ---         BLOCKEND  ---      ---       LVL=0

      00FF51B6H   BLOCK     CODE     ---       LVL=0
      DR12        REGSYM    ---      FLOAT     speed
      00FF51BAH   BLOCK     CODE     NEAR LAB  LVL=1
      00000713H   SYMBOL    EDATA    INT       Special_NumR
      ---         BLOCKEND  ---      ---       LVL=1
      00FF51B6H   LINE      CODE     ---       #74
      00FF51BAH   LINE      CODE     ---       #75
      00FF51BAH   LINE      CODE     ---       #77
      00FF51CAH   LINE      CODE     ---       #78
      00FF51D2H   LINE      CODE     ---       #80
      00FF51D8H   LINE      CODE     ---       #81
      00FF51DEH   LINE      CODE     ---       #83
      00FF51E7H   LINE      CODE     ---       #84
      00FF51F0H   LINE      CODE     ---       #85
      00FF51F5H   LINE      CODE     ---       #86
      00FF51F5H   LINE      CODE     ---       #89
      00FF520AH   LINE      CODE     ---       #90
      00FF521DH   LINE      CODE     ---       #91
      00FF5226H   LINE      CODE     ---       #93
      00FF5239H   LINE      CODE     ---       #94
      00FF5239H   LINE      CODE     ---       #95
      00FF523BH   LINE      CODE     ---       #96
      00FF5244H   LINE      CODE     ---       #98
      00FF524DH   LINE      CODE     ---       #99
      00FF5262H   LINE      CODE     ---       #100
      00FF5264H   LINE      CODE     ---       #103
      00FF5266H   LINE      CODE     ---       #104
      00FF526FH   LINE      CODE     ---       #105
      00FF5278H   LINE      CODE     ---       #106
      00FF5278H   LINE      CODE     ---       #107
      00FF527AH   LINE      CODE     ---       #108
      00FF527AH   LINE      CODE     ---       #109
      ---         BLOCKEND  ---      ---       LVL=0

      00FF5344H   BLOCK     CODE     ---       LVL=0
      00000715H   SYMBOL    EDATA    FLOAT     Speed_L_Last
      00000719H   SYMBOL    EDATA    FLOAT     Speed_R_Last
      00FF5344H   LINE      CODE     ---       #111
      00FF5344H   LINE      CODE     ---       #112
      00FF5344H   LINE      CODE     ---       #115
      00FF5359H   LINE      CODE     ---       #116
      00FF5371H   LINE      CODE     ---       #117
      00FF5378H   LINE      CODE     ---       #120
      00FF538CH   LINE      CODE     ---       #121
      00FF53A2H   LINE      CODE     ---       #122
      00FF53A7H   LINE      CODE     ---       #124
      00FF53D4H   LINE      CODE     ---       #125
      00FF53F1H   LINE      CODE     ---       #126
      00FF53F9H   LINE      CODE     ---       #127
      00FF5401H   LINE      CODE     ---       #129
      ---         BLOCKEND  ---      ---       LVL=0
      DR12        REGSYM    ---      FLOAT     Speed

      ---         MODULE    ---      ---       ADC
      00FF47CCH   PUBLIC    CODE     ---       ADC_GetValue
      00FF684AH   PUBLIC    CODE     ---       ADC_InitAll
      0000065DH   PUBLIC    EDATA    ---       ADC_Array_Original
      00000699H   PUBLIC    EDATA    ---       ADC_proc
      000000D0H   SFRSYM    DATA     BYTE      PSW
      000000B7H   SFRSYM    DATA     BYTE      IPH
      00000088H   SFRSYM    DATA     BYTE      TCON
      00000098H   SFRSYM    DATA     BYTE      SCON
L251 LINKER/LOCATER V4.66.93.0                                                        07/12/2024  21:17:14  PAGE 74


      000000BCH   SFRSYM    DATA     BYTE      ADC_CONTR
      000000DEH   SFRSYM    DATA     BYTE      ADCCFG
      000000B8H   SFRSYM    DATA     BYTE      IP
      000000A8H   SFRSYM    DATA     BYTE      IE
      000000F8H   SFRSYM    DATA     BYTE      P7
      000000E8H   SFRSYM    DATA     BYTE      P6
      000000C8H   SFRSYM    DATA     BYTE      P5
      000000C0H   SFRSYM    DATA     BYTE      P4
      000000B0H   SFRSYM    DATA     BYTE      P3
      000000A0H   SFRSYM    DATA     BYTE      P2
      00000090H   SFRSYM    DATA     BYTE      P1
      00000080H   SFRSYM    DATA     BYTE      P0

      00FF684AH   BLOCK     CODE     ---       LVL=0
      00FF684AH   LINE      CODE     ---       #11
      00FF684AH   LINE      CODE     ---       #13
      00FF6851H   LINE      CODE     ---       #14
      00FF685AH   LINE      CODE     ---       #16
      00FF6863H   LINE      CODE     ---       #18
      00FF686CH   LINE      CODE     ---       #19
      ---         BLOCKEND  ---      ---       LVL=0

      00FF47CCH   BLOCK     CODE     ---       LVL=0
      00FF47CEH   BLOCK     CODE     NEAR LAB  LVL=1
      DR28        REGSYM    ---      FLOAT     temp
      R15         REGSYM    ---      CHAR      i
      R14         REGSYM    ---      CHAR      j
      ---         BLOCKEND  ---      ---       LVL=1
      00FF47CCH   LINE      CODE     ---       #23
      00FF47CEH   LINE      CODE     ---       #24
      00FF47CEH   LINE      CODE     ---       #27
      00FF47D0H   LINE      CODE     ---       #29
      00FF47EDH   LINE      CODE     ---       #30
      00FF480CH   LINE      CODE     ---       #32
      00FF482BH   LINE      CODE     ---       #34
      00FF484AH   LINE      CODE     ---       #35
      00FF4869H   LINE      CODE     ---       #36
      00FF4873H   LINE      CODE     ---       #38
      00FF4875H   LINE      CODE     ---       #40
      00FF4877H   LINE      CODE     ---       #41
      00FF4879H   LINE      CODE     ---       #43
      00FF4898H   LINE      CODE     ---       #44
      00FF489FH   LINE      CODE     ---       #45
      00FF48B8H   LINE      CODE     ---       #47
      00FF48D1H   LINE      CODE     ---       #48
      00FF48E8H   LINE      CODE     ---       #50
      00FF490AH   LINE      CODE     ---       #52
      00FF4914H   LINE      CODE     ---       #53
      ---         BLOCKEND  ---      ---       LVL=0

      ---         MODULE    ---      ---       PID
      00FF44BAH   PUBLIC    CODE     ---       PID_Incremental_Calc
      00FF586EH   PUBLIC    CODE     ---       PID_Incremental_Init
      00FF54BAH   PUBLIC    CODE     ---       PID_Calculate
      00FF5E99H   PUBLIC    CODE     ---       PID_Init
      0000023EH   PUBLIC    EDATA    ---       Turn
      0000027BH   PUBLIC    EDATA    ---       Right_Wheel
      000002B8H   PUBLIC    EDATA    ---       Left_Wheel
      000002F5H   PUBLIC    EDATA    ---       Turn_PID
      000003FEH   PUBLIC    EDATA    BYTE      ?PID_Init?BYTE
      000003F2H   PUBLIC    EDATA    BYTE      ?PID_Calculate?BYTE
      000003FEH   PUBLIC    EDATA    BYTE      ?PID_Incremental_Init?BYTE
      000003F2H   PUBLIC    EDATA    BYTE      ?PID_Incremental_Calc?BYTE
      000000D0H   SFRSYM    DATA     BYTE      PSW
      000000B7H   SFRSYM    DATA     BYTE      IPH
L251 LINKER/LOCATER V4.66.93.0                                                        07/12/2024  21:17:14  PAGE 75


      00000088H   SFRSYM    DATA     BYTE      TCON
      00000098H   SFRSYM    DATA     BYTE      SCON
      000000BCH   SFRSYM    DATA     BYTE      ADC_CONTR
      000000DEH   SFRSYM    DATA     BYTE      ADCCFG
      000000B8H   SFRSYM    DATA     BYTE      IP
      000000A8H   SFRSYM    DATA     BYTE      IE
      000000F8H   SFRSYM    DATA     BYTE      P7
      000000E8H   SFRSYM    DATA     BYTE      P6
      000000C8H   SFRSYM    DATA     BYTE      P5
      000000C0H   SFRSYM    DATA     BYTE      P4
      000000B0H   SFRSYM    DATA     BYTE      P3
      000000A0H   SFRSYM    DATA     BYTE      P2
      00000090H   SFRSYM    DATA     BYTE      P1
      00000080H   SFRSYM    DATA     BYTE      P0

      00FF5E99H   BLOCK     CODE     ---       LVL=0
      REG=2       REGSYM    ---      ---       PID_Struct
      DR4         REGSYM    ---      FLOAT     Kpa
      00000406H   SYMBOL    EDATA    FLOAT     Kpb
      0000040AH   SYMBOL    EDATA    FLOAT     Ki
      0000040EH   SYMBOL    EDATA    FLOAT     Kd
      00000412H   SYMBOL    EDATA    FLOAT     Out_Limit
      00000416H   SYMBOL    EDATA    FLOAT     Integral_Limit
      00FF5E99H   LINE      CODE     ---       #18
      00FF5E9BH   LINE      CODE     ---       #20
      00FF5EA3H   LINE      CODE     ---       #21
      00FF5EAFH   LINE      CODE     ---       #22
      00FF5EBBH   LINE      CODE     ---       #23
      00FF5EC7H   LINE      CODE     ---       #25
      00FF5ED0H   LINE      CODE     ---       #26
      00FF5ED8H   LINE      CODE     ---       #28
      00FF5EE0H   LINE      CODE     ---       #29
      00FF5EECH   LINE      CODE     ---       #30
      00FF5EF8H   LINE      CODE     ---       #31
      ---         BLOCKEND  ---      ---       LVL=0

      00FF54BAH   BLOCK     CODE     ---       LVL=0
      REG=6       REGSYM    ---      ---       PID_Struct
      DR28        REGSYM    ---      FLOAT     Exp_Val
      000003FAH   SYMBOL    EDATA    FLOAT     Act_Val
      00FF54BAH   LINE      CODE     ---       #34
      00FF54BCH   LINE      CODE     ---       #36
      00FF54CAH   LINE      CODE     ---       #38
      00FF5523H   LINE      CODE     ---       #42
      00FF5532H   LINE      CODE     ---       #45
      00FF554BH   LINE      CODE     ---       #46
      00FF554DH   LINE      CODE     ---       #47
      00FF555BH   LINE      CODE     ---       #48
      00FF5563H   LINE      CODE     ---       #49
      ---         BLOCKEND  ---      ---       LVL=0

      00FF586EH   BLOCK     CODE     ---       LVL=0
      REG=2       REGSYM    ---      ---       pid
      DR4         REGSYM    ---      FLOAT     Kp
      00000406H   SYMBOL    EDATA    FLOAT     Ki
      0000040AH   SYMBOL    EDATA    FLOAT     Kd
      0000040EH   SYMBOL    EDATA    FLOAT     Out_Limit
      00000412H   SYMBOL    EDATA    FLOAT     Integral_Limit
      R15         REGSYM    ---      BYTE      use_lowpass_filter
      00FF586EH   LINE      CODE     ---       #61
      00FF5874H   LINE      CODE     ---       #63
      00FF587BH   LINE      CODE     ---       #64
      00FF5887H   LINE      CODE     ---       #65
      00FF5893H   LINE      CODE     ---       #67
      00FF589DH   LINE      CODE     ---       #68
L251 LINKER/LOCATER V4.66.93.0                                                        07/12/2024  21:17:14  PAGE 76


      00FF58A5H   LINE      CODE     ---       #69
      00FF58ADH   LINE      CODE     ---       #70
      00FF58B5H   LINE      CODE     ---       #72
      00FF58BDH   LINE      CODE     ---       #73
      00FF58C9H   LINE      CODE     ---       #74
      00FF58D8H   LINE      CODE     ---       #75
      00FF58E4H   LINE      CODE     ---       #76
      00FF58E8H   LINE      CODE     ---       #77
      00FF58F8H   LINE      CODE     ---       #78
      ---         BLOCKEND  ---      ---       LVL=0

      00FF44BAH   BLOCK     CODE     ---       LVL=0
      REG=3       REGSYM    ---      ---       pid
      DR28        REGSYM    ---      FLOAT     setpoint
      000003FAH   SYMBOL    EDATA    FLOAT     input_value
      00FF44C0H   BLOCK     CODE     NEAR LAB  LVL=1
      000003FEH   SYMBOL    EDATA    FLOAT     derivative
      ---         BLOCKEND  ---      ---       LVL=1
      00FF44BAH   LINE      CODE     ---       #81
      00FF44C0H   LINE      CODE     ---       #82
      00FF44C0H   LINE      CODE     ---       #84
      00FF44D0H   LINE      CODE     ---       #85
      00FF44E0H   LINE      CODE     ---       #86
      00FF44F1H   LINE      CODE     ---       #87
      00FF4522H   LINE      CODE     ---       #89
      00FF454AH   LINE      CODE     ---       #91
      00FF4574H   LINE      CODE     ---       #92
      00FF458CH   LINE      CODE     ---       #94
      00FF45B2H   LINE      CODE     ---       #96
      00FF45D8H   LINE      CODE     ---       #99
      00FF45DEH   LINE      CODE     ---       #101
      00FF4618H   LINE      CODE     ---       #102
      00FF4618H   LINE      CODE     ---       #105
      00FF4635H   LINE      CODE     ---       #107
      00FF4645H   LINE      CODE     ---       #109
      00FF464DH   LINE      CODE     ---       #110
      ---         BLOCKEND  ---      ---       LVL=0

      ---         MODULE    ---      ---       MPU6050
      00FF6B3BH   PUBLIC    CODE     ---       i2c_nack
      00FF6C40H   PUBLIC    CODE     ---       Delay1ms
      00FF5A07H   PUBLIC    CODE     ---       loadfirmware
      00FF6AEAH   PUBLIC    CODE     ---       i2c_ack
      00FF6B4DH   PUBLIC    CODE     ---       i2c_start
      00FF5DC5H   PUBLIC    CODE     ---       i2c_read_bits
      00FF662CH   PUBLIC    CODE     ---       i2c_read_byte
      00FF58FBH   PUBLIC    CODE     ---       xdmpUpdates
      00FF6012H   PUBLIC    CODE     ---       MPU_Get_Gyroscope
      00FF66FFH   PUBLIC    CODE     ---       i2c_read_bit
      00FF5B05H   PUBLIC    CODE     ---       i2c_mem_read
      00FF5564H   PUBLIC    CODE     ---       loadcfgupd
      00FF001EH   PUBLIC    CODE     ---       I2C_SDA_H
      00FF5A88H   PUBLIC    CODE     ---       i2c_write_bits
      00FF69F2H   PUBLIC    CODE     ---       getDeviceID
      00FF0056H   PUBLIC    CODE     ---       I2C_SDA_L
      00FF6732H   PUBLIC    CODE     ---       i2c_write_byte
      00FF6875H   PUBLIC    CODE     ---       i2c_wait_ack
      00FF6BB2H   PUBLIC    CODE     ---       i2c_stop
      00FF005EH   PUBLIC    CODE     ---       I2C_SCL_H
      00FF0086H   PUBLIC    CODE     ---       I2C_SCL_L
      00FF5FB6H   PUBLIC    CODE     ---       i2c_write_bit
      00FF5EF9H   PUBLIC    CODE     ---       i2c_mem_write
      00FF3A92H   PUBLIC    CODE     ---       MPU6050_Refresh_DMP
      00FF0046H   PUBLIC    CODE     ---       MPU_Read_Bits
      00FF6C4AH   PUBLIC    CODE     ---       MPU_Read_Bit
L251 LINKER/LOCATER V4.66.93.0                                                        07/12/2024  21:17:14  PAGE 77


      00FF6C14H   PUBLIC    CODE     ---       MPU_Read_Len
      00FF0006H   PUBLIC    CODE     ---       I2C_SDA_Read
      00FF6BEDH   PUBLIC    CODE     ---       MPU_Write_Bits
      00FF6AFFH   PUBLIC    CODE     ---       MPU_Write_Byte
      00FF3D2CH   PUBLIC    CODE     ---       dmpInitialize
      00FF6C1FH   PUBLIC    CODE     ---       i2c_timeout_delay
      00FF6BC1H   PUBLIC    CODE     ---       readdmp
      00FF6BFAH   PUBLIC    CODE     ---       MPU_Write_Bit
      00FF6C2AH   PUBLIC    CODE     ---       MPU_Write_Len
      00FF6B14H   PUBLIC    CODE     ---       MPU_Delay_Ms
      00FF6C35H   PUBLIC    CODE     ---       i2c_delay
      00FF0026H   PUBLIC    CODE     ---       getFIFOCount
      00FF6765H   PUBLIC    CODE     ---       initMPU6050
      00FF69ADH   PUBLIC    CODE     ---       MPU6050_DMP_Init
      00000491H   PUBLIC    EDATA    FLOAT     z_add
      00000495H   PUBLIC    EDATA    FLOAT     z_last
      00000499H   PUBLIC    EDATA    FLOAT     Roll
      0000049DH   PUBLIC    EDATA    FLOAT     x1
      000004A1H   PUBLIC    EDATA    FLOAT     y1
      000004A5H   PUBLIC    EDATA    FLOAT     z1
      000004A9H   PUBLIC    EDATA    FLOAT     z_now
      000004ADH   PUBLIC    EDATA    FLOAT     Yaw
      000004B1H   PUBLIC    EDATA    ---       Q
      000004C1H   PUBLIC    EDATA    ---       dmpdatas
      000004EBH   PUBLIC    EDATA    CHAR      mpu_state
      000004ECH   PUBLIC    EDATA    FLOAT     Pitch
      00FF1A26H   PUBLIC    CODE     ---       dmpUpdates
      00FF1A55H   PUBLIC    CODE     ---       dmpcfgupddata
      00FF1B15H   PUBLIC    CODE     ---       dmpmemorydata
      00000402H   PUBLIC    EDATA    BYTE      ?MPU_Get_Gyroscope?BYTE
      000000D0H   SFRSYM    DATA     BYTE      PSW
      000000B7H   SFRSYM    DATA     BYTE      IPH
      000000C8H.1 SFRSYM    DATA     BIT       P51
      00000088H   SFRSYM    DATA     BYTE      TCON
      000000C8H.0 SFRSYM    DATA     BIT       P50
      00000098H   SFRSYM    DATA     BYTE      SCON
      000000BCH   SFRSYM    DATA     BYTE      ADC_CONTR
      000000DEH   SFRSYM    DATA     BYTE      ADCCFG
      000000B8H   SFRSYM    DATA     BYTE      IP
      000000A8H   SFRSYM    DATA     BYTE      IE
      000000F8H   SFRSYM    DATA     BYTE      P7
      000000E8H   SFRSYM    DATA     BYTE      P6
      000000C8H   SFRSYM    DATA     BYTE      P5
      000000C0H   SFRSYM    DATA     BYTE      P4
      000000B0H   SFRSYM    DATA     BYTE      P3
      000000A0H   SFRSYM    DATA     BYTE      P2
      00000090H   SFRSYM    DATA     BYTE      P1
      00000080H   SFRSYM    DATA     BYTE      P0

      00FF6C1FH   BLOCK     CODE     ---       LVL=0
      R10         REGSYM    ---      CHAR      i
      00FF6C1FH   LINE      CODE     ---       #10
      00FF6C1FH   LINE      CODE     ---       #11
      00FF6C1FH   LINE      CODE     ---       #13
      00FF6C22H   LINE      CODE     ---       #14
      00FF6C29H   LINE      CODE     ---       #15
      ---         BLOCKEND  ---      ---       LVL=0

      00FF6C35H   BLOCK     CODE     ---       LVL=0
      R10         REGSYM    ---      CHAR      i
      00FF6C35H   LINE      CODE     ---       #17
      00FF6C35H   LINE      CODE     ---       #18
      00FF6C35H   LINE      CODE     ---       #20
      00FF6C38H   LINE      CODE     ---       #21
      00FF6C3FH   LINE      CODE     ---       #22
L251 LINKER/LOCATER V4.66.93.0                                                        07/12/2024  21:17:14  PAGE 78


      ---         BLOCKEND  ---      ---       LVL=0

      00FF005EH   BLOCK     CODE     ---       LVL=0
      00FF005EH   LINE      CODE     ---       #25
      00FF005EH   LINE      CODE     ---       #27
      00FF0060H   LINE      CODE     ---       #28
      ---         BLOCKEND  ---      ---       LVL=0

      00FF0086H   BLOCK     CODE     ---       LVL=0
      00FF0086H   LINE      CODE     ---       #31
      00FF0086H   LINE      CODE     ---       #33
      00FF0088H   LINE      CODE     ---       #34
      ---         BLOCKEND  ---      ---       LVL=0

      00FF001EH   BLOCK     CODE     ---       LVL=0
      00FF001EH   LINE      CODE     ---       #37
      00FF001EH   LINE      CODE     ---       #39
      00FF0020H   LINE      CODE     ---       #40
      ---         BLOCKEND  ---      ---       LVL=0

      00FF0056H   BLOCK     CODE     ---       LVL=0
      00FF0056H   LINE      CODE     ---       #43
      00FF0056H   LINE      CODE     ---       #45
      00FF0058H   LINE      CODE     ---       #46
      ---         BLOCKEND  ---      ---       LVL=0

      00FF0006H   BLOCK     CODE     ---       LVL=0
      00FF0006H   LINE      CODE     ---       #49
      00FF0006H   LINE      CODE     ---       #51
      00FF000AH   LINE      CODE     ---       #52
      ---         BLOCKEND  ---      ---       LVL=0

      00FF6B4DH   BLOCK     CODE     ---       LVL=0
      00FF6B4DH   LINE      CODE     ---       #60
      00FF6B4DH   LINE      CODE     ---       #62
      00FF6B50H   LINE      CODE     ---       #63
      00FF6B53H   LINE      CODE     ---       #64
      00FF6B56H   LINE      CODE     ---       #66
      00FF6B59H   LINE      CODE     ---       #67
      00FF6B5CH   LINE      CODE     ---       #68
      ---         BLOCKEND  ---      ---       LVL=0

      00FF6BB2H   BLOCK     CODE     ---       LVL=0
      00FF6BB2H   LINE      CODE     ---       #77
      00FF6BB2H   LINE      CODE     ---       #79
      00FF6BB5H   LINE      CODE     ---       #80
      00FF6BB8H   LINE      CODE     ---       #81
      00FF6BBBH   LINE      CODE     ---       #83
      00FF6BBEH   LINE      CODE     ---       #84
      ---         BLOCKEND  ---      ---       LVL=0

      00FF6AEAH   BLOCK     CODE     ---       LVL=0
      00FF6AEAH   LINE      CODE     ---       #93
      00FF6AEAH   LINE      CODE     ---       #95
      00FF6AEDH   LINE      CODE     ---       #96
      00FF6AF0H   LINE      CODE     ---       #97
      00FF6AF3H   LINE      CODE     ---       #99
      00FF6AF6H   LINE      CODE     ---       #100
      00FF6AF9H   LINE      CODE     ---       #101
      00FF6AFCH   LINE      CODE     ---       #102
      ---         BLOCKEND  ---      ---       LVL=0

      00FF6B3BH   BLOCK     CODE     ---       LVL=0
      00FF6B3BH   LINE      CODE     ---       #111
      00FF6B3BH   LINE      CODE     ---       #113
L251 LINKER/LOCATER V4.66.93.0                                                        07/12/2024  21:17:14  PAGE 79


      00FF6B3EH   LINE      CODE     ---       #114
      00FF6B41H   LINE      CODE     ---       #115
      00FF6B44H   LINE      CODE     ---       #117
      00FF6B47H   LINE      CODE     ---       #118
      00FF6B4AH   LINE      CODE     ---       #119
      ---         BLOCKEND  ---      ---       LVL=0

      00FF6875H   BLOCK     CODE     ---       LVL=0
      00FF6877H   BLOCK     CODE     NEAR LAB  LVL=1
      WR14        REGSYM    ---      WORD      time_temp
      ---         BLOCKEND  ---      ---       LVL=1
      00FF6875H   LINE      CODE     ---       #129
      00FF6877H   LINE      CODE     ---       #130
      00FF6877H   LINE      CODE     ---       #131
      00FF6879H   LINE      CODE     ---       #133
      00FF687CH   LINE      CODE     ---       #134
      00FF687FH   LINE      CODE     ---       #135
      00FF6881H   LINE      CODE     ---       #137
      00FF6883H   LINE      CODE     ---       #138
      00FF6886H   LINE      CODE     ---       #139
      00FF688CH   LINE      CODE     ---       #141
      00FF688FH   LINE      CODE     ---       #142
      00FF6893H   LINE      CODE     ---       #143
      00FF6898H   LINE      CODE     ---       #145
      00FF689BH   LINE      CODE     ---       #146
      00FF689CH   LINE      CODE     ---       #147
      ---         BLOCKEND  ---      ---       LVL=0

      00FF6732H   BLOCK     CODE     ---       LVL=0
      R15         REGSYM    ---      BYTE      dat
      00FF6736H   BLOCK     CODE     NEAR LAB  LVL=1
      R14         REGSYM    ---      BYTE      i
      ---         BLOCKEND  ---      ---       LVL=1
      00FF6732H   LINE      CODE     ---       #155
      00FF6736H   LINE      CODE     ---       #156
      00FF6736H   LINE      CODE     ---       #157
      00FF6736H   LINE      CODE     ---       #159
      00FF6739H   LINE      CODE     ---       #160
      00FF673CH   LINE      CODE     ---       #162
      00FF6745H   LINE      CODE     ---       #163
      00FF674AH   LINE      CODE     ---       #165
      00FF674DH   LINE      CODE     ---       #166
      00FF674FH   LINE      CODE     ---       #167
      00FF6752H   LINE      CODE     ---       #168
      00FF6755H   LINE      CODE     ---       #169
      00FF6758H   LINE      CODE     ---       #170
      00FF675BH   LINE      CODE     ---       #171
      00FF675EH   LINE      CODE     ---       #172
      00FF6762H   LINE      CODE     ---       #173
      ---         BLOCKEND  ---      ---       LVL=0

      00FF662CH   BLOCK     CODE     ---       LVL=0
      R15         REGSYM    ---      BYTE      ack
      00FF6632H   BLOCK     CODE     NEAR LAB  LVL=1
      R13         REGSYM    ---      BYTE      i
      R14         REGSYM    ---      BYTE      receive
      ---         BLOCKEND  ---      ---       LVL=1
      00FF662CH   LINE      CODE     ---       #181
      00FF6632H   LINE      CODE     ---       #182
      00FF6632H   LINE      CODE     ---       #183
      00FF6634H   LINE      CODE     ---       #185
      00FF6637H   LINE      CODE     ---       #187
      00FF663AH   LINE      CODE     ---       #188
      00FF663DH   LINE      CODE     ---       #189
      00FF6640H   LINE      CODE     ---       #190
L251 LINKER/LOCATER V4.66.93.0                                                        07/12/2024  21:17:14  PAGE 80


      00FF6642H   LINE      CODE     ---       #191
      00FF6647H   LINE      CODE     ---       #192
      00FF6649H   LINE      CODE     ---       #193
      00FF664CH   LINE      CODE     ---       #194
      00FF6650H   LINE      CODE     ---       #195
      00FF6654H   LINE      CODE     ---       #196
      00FF6659H   LINE      CODE     ---       #198
      00FF665CH   LINE      CODE     ---       #200
      00FF665EH   LINE      CODE     ---       #201
      ---         BLOCKEND  ---      ---       LVL=0

      00FF5EF9H   BLOCK     CODE     ---       LVL=0
      0000040FH   SYMBOL    EDATA    BYTE      DevAddress
      00000410H   SYMBOL    EDATA    BYTE      MemAddress
      REG=3       REGSYM    ---      ---       pData
      00000411H   SYMBOL    EDATA    WORD      Len
      00FF5EF9H   LINE      CODE     ---       #209
      00FF5F09H   LINE      CODE     ---       #211
      00FF5F0CH   LINE      CODE     ---       #212
      00FF5F15H   LINE      CODE     ---       #213
      00FF5F1AH   LINE      CODE     ---       #214
      00FF5F1EH   LINE      CODE     ---       #215
      00FF5F25H   LINE      CODE     ---       #216
      00FF5F2AH   LINE      CODE     ---       #217
      00FF5F2EH   LINE      CODE     ---       #218
      00FF5F30H   LINE      CODE     ---       #220
      00FF5F38H   LINE      CODE     ---       #221
      00FF5F3DH   LINE      CODE     ---       #222
      00FF5F41H   LINE      CODE     ---       #223
      00FF5F51H   LINE      CODE     ---       #224
      00FF5F54H   LINE      CODE     ---       #225
      00FF5F55H   LINE      CODE     ---       #226
      ---         BLOCKEND  ---      ---       LVL=0

      00FF5B05H   BLOCK     CODE     ---       LVL=0
      00000414H   SYMBOL    EDATA    BYTE      DevAddress
      00000415H   SYMBOL    EDATA    BYTE      MemAddress
      REG=3       REGSYM    ---      ---       pBuffer
      00000416H   SYMBOL    EDATA    WORD      Len
      00FF5B05H   LINE      CODE     ---       #234
      00FF5B15H   LINE      CODE     ---       #236
      00FF5B18H   LINE      CODE     ---       #237
      00FF5B21H   LINE      CODE     ---       #238
      00FF5B26H   LINE      CODE     ---       #239
      00FF5B2AH   LINE      CODE     ---       #240
      00FF5B31H   LINE      CODE     ---       #241
      00FF5B36H   LINE      CODE     ---       #242
      00FF5B3AH   LINE      CODE     ---       #243
      00FF5B3DH   LINE      CODE     ---       #244
      00FF5B48H   LINE      CODE     ---       #245
      00FF5B4DH   LINE      CODE     ---       #246
      00FF5B51H   LINE      CODE     ---       #247
      00FF5B53H   LINE      CODE     ---       #249
      00FF5B68H   LINE      CODE     ---       #250
      00FF5B78H   LINE      CODE     ---       #251
      00FF5B7BH   LINE      CODE     ---       #252
      00FF5B7CH   LINE      CODE     ---       #253
      ---         BLOCKEND  ---      ---       LVL=0

      00FF5FB6H   BLOCK     CODE     ---       LVL=0
      R13         REGSYM    ---      BYTE      DevAddress
      R14         REGSYM    ---      BYTE      addr
      R15         REGSYM    ---      BYTE      bitNum
      R12         REGSYM    ---      BYTE      Data
      00FF5FC0H   BLOCK     CODE     NEAR LAB  LVL=1
L251 LINKER/LOCATER V4.66.93.0                                                        07/12/2024  21:17:14  PAGE 81


      0000040CH   SYMBOL    EDATA    BYTE      b
      ---         BLOCKEND  ---      ---       LVL=1
      00FF5FB6H   LINE      CODE     ---       #262
      00FF5FC0H   LINE      CODE     ---       #263
      00FF5FC0H   LINE      CODE     ---       #265
      00FF5FCDH   LINE      CODE     ---       #267
      00FF5FFCH   LINE      CODE     ---       #268
      00FF600DH   LINE      CODE     ---       #269
      00FF600DH   LINE      CODE     ---       #271
      00FF600FH   LINE      CODE     ---       #272
      ---         BLOCKEND  ---      ---       LVL=0

      00FF5A88H   BLOCK     CODE     ---       LVL=0
      0000040CH   SYMBOL    EDATA    BYTE      DevAddress
      R12         REGSYM    ---      BYTE      addr
      R13         REGSYM    ---      BYTE      bitStart
      R14         REGSYM    ---      BYTE      length
      R15         REGSYM    ---      BYTE      Data
      00FF5A96H   BLOCK     CODE     NEAR LAB  LVL=1
      000004F0H   SYMBOL    EDATA    BYTE      b
      000004F1H   SYMBOL    EDATA    BYTE      mask
      ---         BLOCKEND  ---      ---       LVL=1
      00FF5A88H   LINE      CODE     ---       #282
      00FF5A96H   LINE      CODE     ---       #283
      00FF5A96H   LINE      CODE     ---       #292
      00FF5AA3H   LINE      CODE     ---       #294
      00FF5AC9H   LINE      CODE     ---       #295
      00FF5AD2H   LINE      CODE     ---       #296
      00FF5AD4H   LINE      CODE     ---       #297
      00FF5AE3H   LINE      CODE     ---       #298
      00FF5AEDH   LINE      CODE     ---       #300
      00FF5B00H   LINE      CODE     ---       #301
      00FF5B00H   LINE      CODE     ---       #303
      00FF5B02H   LINE      CODE     ---       #304
      ---         BLOCKEND  ---      ---       LVL=0

      00FF66FFH   BLOCK     CODE     ---       LVL=0
      R11         REGSYM    ---      BYTE      DevAddress
      R10         REGSYM    ---      BYTE      addr
      0000040CH   SYMBOL    EDATA    BYTE      bitNum
      REG=3       REGSYM    ---      ---       Data
      00FF6707H   BLOCK     CODE     NEAR LAB  LVL=1
      0000040DH   SYMBOL    EDATA    BYTE      b
      ---         BLOCKEND  ---      ---       LVL=1
      00FF66FFH   LINE      CODE     ---       #312
      00FF6707H   LINE      CODE     ---       #313
      00FF6707H   LINE      CODE     ---       #315
      00FF6714H   LINE      CODE     ---       #317
      00FF672AH   LINE      CODE     ---       #318
      00FF672DH   LINE      CODE     ---       #319
      00FF672DH   LINE      CODE     ---       #322
      00FF672FH   LINE      CODE     ---       #323
      00FF672FH   LINE      CODE     ---       #324
      ---         BLOCKEND  ---      ---       LVL=0

      00FF5DC5H   BLOCK     CODE     ---       LVL=0
      R11         REGSYM    ---      BYTE      DevAddress
      R10         REGSYM    ---      BYTE      addr
      R14         REGSYM    ---      BYTE      bitStart
      R15         REGSYM    ---      BYTE      length
      0000040CH   SYMBOL    EDATA    ---       Data
      00FF5DCFH   BLOCK     CODE     NEAR LAB  LVL=1
      000004F2H   SYMBOL    EDATA    BYTE      b
      000004F3H   SYMBOL    EDATA    BYTE      mask
      ---         BLOCKEND  ---      ---       LVL=1
L251 LINKER/LOCATER V4.66.93.0                                                        07/12/2024  21:17:14  PAGE 82


      00FF5DC5H   LINE      CODE     ---       #333
      00FF5DCFH   LINE      CODE     ---       #334
      00FF5DCFH   LINE      CODE     ---       #341
      00FF5DDCH   LINE      CODE     ---       #344
      00FF5DFEH   LINE      CODE     ---       #345
      00FF5E06H   LINE      CODE     ---       #346
      00FF5E1DH   LINE      CODE     ---       #347
      00FF5E28H   LINE      CODE     ---       #348
      00FF5E2BH   LINE      CODE     ---       #349
      00FF5E2BH   LINE      CODE     ---       #351
      00FF5E2DH   LINE      CODE     ---       #352
      ---         BLOCKEND  ---      ---       LVL=0

      00FF6C40H   BLOCK     CODE     ---       LVL=0
      DR4         REGSYM    ---      DWORD     i
      00FF6C40H   LINE      CODE     ---       #356
      00FF6C40H   LINE      CODE     ---       #357
      00FF6C40H   LINE      CODE     ---       #359
      00FF6C41H   LINE      CODE     ---       #360
      00FF6C45H   LINE      CODE     ---       #361
      00FF6C49H   LINE      CODE     ---       #362
      ---         BLOCKEND  ---      ---       LVL=0

      00FF6B14H   BLOCK     CODE     ---       LVL=0
      WR14        REGSYM    ---      WORD      Milliseconds
      00FF6B14H   LINE      CODE     ---       #365
      00FF6B18H   LINE      CODE     ---       #367
      00FF6B25H   LINE      CODE     ---       #369
      ---         BLOCKEND  ---      ---       LVL=0

      00FF6C2AH   BLOCK     CODE     ---       LVL=0
      R7          REGSYM    ---      BYTE      reg
      R6          REGSYM    ---      BYTE      len
      REG=0       REGSYM    ---      ---       buf
      00FF6C2AH   LINE      CODE     ---       #377
      00FF6C2EH   LINE      CODE     ---       #379
      ---         BLOCKEND  ---      ---       LVL=0

      00FF6C14H   BLOCK     CODE     ---       LVL=0
      R7          REGSYM    ---      BYTE      reg
      R6          REGSYM    ---      BYTE      len
      REG=0       REGSYM    ---      ---       buf
      00FF6C14H   LINE      CODE     ---       #388
      00FF6C18H   LINE      CODE     ---       #390
      ---         BLOCKEND  ---      ---       LVL=0

      00FF6AFFH   BLOCK     CODE     ---       LVL=0
      R10         REGSYM    ---      BYTE      reg
      0000040EH   SYMBOL    EDATA    BYTE      Data
      00FF6AFFH   LINE      CODE     ---       #398
      00FF6B05H   LINE      CODE     ---       #400
      ---         BLOCKEND  ---      ---       LVL=0
      R10         REGSYM    ---      BYTE      reg

      00FF6BFAH   BLOCK     CODE     ---       LVL=0
      R7          REGSYM    ---      BYTE      addr
      R6          REGSYM    ---      BYTE      bitNum
      R10         REGSYM    ---      BYTE      Data
      00FF6BFAH   LINE      CODE     ---       #414
      00FF6C00H   LINE      CODE     ---       #416
      ---         BLOCKEND  ---      ---       LVL=0

      00FF6BEDH   BLOCK     CODE     ---       LVL=0
      R7          REGSYM    ---      BYTE      addr
      R6          REGSYM    ---      BYTE      bitStart
L251 LINKER/LOCATER V4.66.93.0                                                        07/12/2024  21:17:14  PAGE 83


      R5          REGSYM    ---      BYTE      length
      R4          REGSYM    ---      BYTE      Data
      00FF6BEDH   LINE      CODE     ---       #420
      00FF6BF5H   LINE      CODE     ---       #422
      ---         BLOCKEND  ---      ---       LVL=0

      00FF6C4AH   BLOCK     CODE     ---       LVL=0
      R7          REGSYM    ---      BYTE      addr
      R6          REGSYM    ---      BYTE      bitNum
      REG=0       REGSYM    ---      ---       Data
      00FF6C4AH   LINE      CODE     ---       #426
      00FF6C4EH   LINE      CODE     ---       #428
      ---         BLOCKEND  ---      ---       LVL=0

      00FF0046H   BLOCK     CODE     ---       LVL=0
      R7          REGSYM    ---      BYTE      addr
      R6          REGSYM    ---      BYTE      bitStart
      R10         REGSYM    ---      BYTE      length
      REG=0       REGSYM    ---      ---       Data
      00FF0046H   LINE      CODE     ---       #432
      00FF004CH   LINE      CODE     ---       #434
      ---         BLOCKEND  ---      ---       LVL=0
      R11         REGSYM    ---      BYTE      res
      R10         REGSYM    ---      BYTE      fsr
      R10         REGSYM    ---      BYTE      fsr
      WR6         REGSYM    ---      WORD      lpf
      R10         REGSYM    ---      BYTE      Data
      WR14        REGSYM    ---      WORD      rate
      000004F4H   SYMBOL    EDATA    BYTE      Data
      WR4         REGSYM    ---      INT       raw
      DR4         REGSYM    ---      FLOAT     temp

      00FF6012H   BLOCK     CODE     ---       LVL=0
      00000406H   SYMBOL    EDATA    ---       gx
      REG=3       REGSYM    ---      ---       gy
      0000040AH   SYMBOL    EDATA    ---       gz
      00FF601AH   BLOCK     CODE     NEAR LAB  LVL=1
      0000040EH   SYMBOL    EDATA    ---       buf
      R11         REGSYM    ---      BYTE      res
      ---         BLOCKEND  ---      ---       LVL=1
      00FF6012H   LINE      CODE     ---       #543
      00FF601AH   LINE      CODE     ---       #544
      00FF601AH   LINE      CODE     ---       #546
      00FF6026H   LINE      CODE     ---       #547
      00FF6028H   LINE      CODE     ---       #549
      00FF603FH   LINE      CODE     ---       #550
      00FF6052H   LINE      CODE     ---       #551
      00FF6067H   LINE      CODE     ---       #552
      00FF6067H   LINE      CODE     ---       #553
      00FF6067H   LINE      CODE     ---       #554
      ---         BLOCKEND  ---      ---       LVL=0
      REG=3       REGSYM    ---      ---       ay
      R11         REGSYM    ---      BYTE      res

      00FF5A07H   BLOCK     CODE     ---       LVL=0
      00FF5A09H   BLOCK     CODE     NEAR LAB  LVL=1
      WR14        REGSYM    ---      WORD      datanum
      0000040CH   SYMBOL    EDATA    BYTE      ye
      0000040DH   SYMBOL    EDATA    BYTE      i
      R12         REGSYM    ---      BYTE      bank
      R13         REGSYM    ---      BYTE      addr
      ---         BLOCKEND  ---      ---       LVL=1
      00FF5A07H   LINE      CODE     ---       #790
      00FF5A09H   LINE      CODE     ---       #791
      00FF5A09H   LINE      CODE     ---       #792
L251 LINKER/LOCATER V4.66.93.0                                                        07/12/2024  21:17:14  PAGE 84


      00FF5A0BH   LINE      CODE     ---       #794
      00FF5A0DH   LINE      CODE     ---       #795
      00FF5A0FH   LINE      CODE     ---       #797
      00FF5A0FH   LINE      CODE     ---       #799
      00FF5A14H   LINE      CODE     ---       #800
      00FF5A18H   LINE      CODE     ---       #802
      00FF5A1EH   LINE      CODE     ---       #803
      00FF5A21H   LINE      CODE     ---       #805
      00FF5A28H   LINE      CODE     ---       #806
      00FF5A2FH   LINE      CODE     ---       #807
      00FF5A41H   LINE      CODE     ---       #808
      00FF5A45H   LINE      CODE     ---       #809
      00FF5A48H   LINE      CODE     ---       #810
      00FF5A5BH   LINE      CODE     ---       #811
      00FF5A62H   LINE      CODE     ---       #812
      00FF5A6AH   LINE      CODE     ---       #813
      00FF5A71H   LINE      CODE     ---       #814
      00FF5A83H   LINE      CODE     ---       #815
      00FF5A83H   LINE      CODE     ---       #816
      00FF5A85H   LINE      CODE     ---       #817
      ---         BLOCKEND  ---      ---       LVL=0

      00FF5564H   BLOCK     CODE     ---       LVL=0
      00FF5566H   BLOCK     CODE     NEAR LAB  LVL=1
      R14         REGSYM    ---      BYTE      line
      0000040CH   SYMBOL    EDATA    BYTE      bank
      R15         REGSYM    ---      BYTE      datacounts
      R13         REGSYM    ---      BYTE      bytes2write
      0000040DH   SYMBOL    EDATA    BYTE      offset
      000004F5H   SYMBOL    EDATA    BYTE      writingcounts
      R12         REGSYM    ---      BYTE      special
      ---         BLOCKEND  ---      ---       LVL=1
      00FF5564H   LINE      CODE     ---       #819
      00FF5566H   LINE      CODE     ---       #820
      00FF5566H   LINE      CODE     ---       #823
      00FF5568H   LINE      CODE     ---       #829
      00FF556BH   LINE      CODE     ---       #831
      00FF5581H   LINE      CODE     ---       #832
      00FF5597H   LINE      CODE     ---       #833
      00FF55ABH   LINE      CODE     ---       #834
      00FF55B4H   LINE      CODE     ---       #835
      00FF55BDH   LINE      CODE     ---       #836
      00FF55CEH   LINE      CODE     ---       #837
      00FF55D2H   LINE      CODE     ---       #838
      00FF55D4H   LINE      CODE     ---       #839
      00FF55D8H   LINE      CODE     ---       #841
      00FF55ECH   LINE      CODE     ---       #842
      00FF55F1H   LINE      CODE     ---       #847
      00FF55F9H   LINE      CODE     ---       #848
      00FF55FBH   LINE      CODE     ---       #850
      00FF55FEH   LINE      CODE     ---       #851
      00FF5605H   LINE      CODE     ---       #853
      00FF5607H   LINE      CODE     ---       #854
      ---         BLOCKEND  ---      ---       LVL=0

      00FF58FBH   BLOCK     CODE     ---       LVL=0
      0000040CH   SYMBOL    EDATA    BYTE      datacounts
      00FF5901H   BLOCK     CODE     NEAR LAB  LVL=1
      000004F6H   SYMBOL    EDATA    BYTE      writingcounts
      R7          REGSYM    ---      BYTE      bank
      R14         REGSYM    ---      BYTE      offset
      R15         REGSYM    ---      BYTE      bytes2write
      ---         BLOCKEND  ---      ---       LVL=1
      00FF58FBH   LINE      CODE     ---       #857
      00FF5901H   LINE      CODE     ---       #858
L251 LINKER/LOCATER V4.66.93.0                                                        07/12/2024  21:17:14  PAGE 85


      00FF5901H   LINE      CODE     ---       #862
      00FF591CH   LINE      CODE     ---       #863
      00FF5937H   LINE      CODE     ---       #864
      00FF5952H   LINE      CODE     ---       #865
      00FF5957H   LINE      CODE     ---       #866
      00FF595EH   LINE      CODE     ---       #867
      00FF5973H   LINE      CODE     ---       #868
      00FF5977H   LINE      CODE     ---       #869
      00FF5981H   LINE      CODE     ---       #870
      00FF5983H   LINE      CODE     ---       #871
      ---         BLOCKEND  ---      ---       LVL=0

      00FF0026H   BLOCK     CODE     ---       LVL=0
      0000040CH   SYMBOL    EDATA    ---       i
      00FF0026H   LINE      CODE     ---       #875
      00FF0026H   LINE      CODE     ---       #876
      00FF0026H   LINE      CODE     ---       #878
      00FF0032H   LINE      CODE     ---       #879
      00FF0042H   LINE      CODE     ---       #880
      ---         BLOCKEND  ---      ---       LVL=0

      00FF6BC1H   BLOCK     CODE     ---       LVL=0
      REG=7       REGSYM    ---      ---       Data
      00FF6BC1H   LINE      CODE     ---       #886
      00FF6BC1H   LINE      CODE     ---       #888
      00FF6BCFH   LINE      CODE     ---       #889
      ---         BLOCKEND  ---      ---       LVL=0

      00FF3D2CH   BLOCK     CODE     ---       LVL=0
      00000406H   SYMBOL    EDATA    BYTE      hwRevision
      00000407H   SYMBOL    EDATA    BYTE      otpValid
      00000408H   SYMBOL    EDATA    BYTE      mpuIntStatus
      00000409H   SYMBOL    EDATA    BYTE      xgOffsetTC
      0000040AH   SYMBOL    EDATA    BYTE      ygOffsetTC
      0000040BH   SYMBOL    EDATA    BYTE      zgOffsetTC
      000004F7H   SYMBOL    EDATA    WORD      fifoCount
      00FF3D2CH   LINE      CODE     ---       #892
      00FF3D2CH   LINE      CODE     ---       #893
      00FF3D2CH   LINE      CODE     ---       #897
      00FF3D37H   LINE      CODE     ---       #898
      00FF3D3EH   LINE      CODE     ---       #899
      00FF3D48H   LINE      CODE     ---       #900
      00FF3D50H   LINE      CODE     ---       #901
      00FF3D58H   LINE      CODE     ---       #902
      00FF3D64H   LINE      CODE     ---       #903
      00FF3D6BH   LINE      CODE     ---       #904
      00FF3D75H   LINE      CODE     ---       #905
      00FF3D83H   LINE      CODE     ---       #906
      00FF3D92H   LINE      CODE     ---       #907
      00FF3DA1H   LINE      CODE     ---       #911
      00FF3DACH   LINE      CODE     ---       #912
      00FF3DB3H   LINE      CODE     ---       #913
      00FF3DB8H   LINE      CODE     ---       #914
      00FF3DBAH   LINE      CODE     ---       #915
      00FF3DBFH   LINE      CODE     ---       #916
      00FF3DC1H   LINE      CODE     ---       #917
      00FF3DCFH   LINE      CODE     ---       #918
      00FF3DD7H   LINE      CODE     ---       #919
      00FF3DDFH   LINE      CODE     ---       #920
      00FF3DEDH   LINE      CODE     ---       #921
      00FF3DFBH   LINE      CODE     ---       #922
      00FF3E09H   LINE      CODE     ---       #923
      00FF3E11H   LINE      CODE     ---       #924
      00FF3E18H   LINE      CODE     ---       #925
      00FF3E20H   LINE      CODE     ---       #926
L251 LINKER/LOCATER V4.66.93.0                                                        07/12/2024  21:17:14  PAGE 86


      00FF3E2CH   LINE      CODE     ---       #927
      00FF3E39H   LINE      CODE     ---       #928
      00FF3E46H   LINE      CODE     ---       #929
      00FF3E4CH   LINE      CODE     ---       #930
      00FF3E4EH   LINE      CODE     ---       #931
      00FF3E55H   LINE      CODE     ---       #932
      00FF3E57H   LINE      CODE     ---       #933
      00FF3E62H   LINE      CODE     ---       #934
      00FF3E69H   LINE      CODE     ---       #936
      00FF3E74H   LINE      CODE     ---       #938
      00FF3E7CH   LINE      CODE     ---       #939
      00FF3E84H   LINE      CODE     ---       #940
      00FF3E8CH   LINE      CODE     ---       #941
      00FF3E93H   LINE      CODE     ---       #942
      00FF3E9EH   LINE      CODE     ---       #943
      00FF3EA9H   LINE      CODE     ---       #944
      00FF3EB4H   LINE      CODE     ---       #945
      00FF3EBFH   LINE      CODE     ---       #946
      00FF3EC6H   LINE      CODE     ---       #947
      00FF3EC8H   LINE      CODE     ---       #948
      00FF3ECFH   LINE      CODE     ---       #949
      00FF3ED1H   LINE      CODE     ---       #950
      00FF3ED8H   LINE      CODE     ---       #951
      00FF3EDAH   LINE      CODE     ---       #952
      00FF3EE7H   LINE      CODE     ---       #953
      00FF3EF2H   LINE      CODE     ---       #955
      00FF3EFEH   LINE      CODE     ---       #956
      00FF3F05H   LINE      CODE     ---       #957
      00FF3F07H   LINE      CODE     ---       #958
      00FF3F14H   LINE      CODE     ---       #959
      00FF3F1FH   LINE      CODE     ---       #961
      00FF3F2BH   LINE      CODE     ---       #962
      00FF3F32H   LINE      CODE     ---       #963
      00FF3F34H   LINE      CODE     ---       #964
      00FF3F3EH   LINE      CODE     ---       #965
      00FF3F49H   LINE      CODE     ---       #966
      00FF3F55H   LINE      CODE     ---       #968
      00FF3F57H   LINE      CODE     ---       #969
      ---         BLOCKEND  ---      ---       LVL=0

      00FF6765H   BLOCK     CODE     ---       LVL=0
      00FF6765H   LINE      CODE     ---       #972
      00FF6765H   LINE      CODE     ---       #974
      00FF6773H   LINE      CODE     ---       #975
      00FF6780H   LINE      CODE     ---       #976
      00FF678DH   LINE      CODE     ---       #977
      ---         BLOCKEND  ---      ---       LVL=0

      00FF69F2H   BLOCK     CODE     ---       LVL=0
      00000406H   SYMBOL    EDATA    BYTE      b
      00FF69F2H   LINE      CODE     ---       #981
      00FF69F2H   LINE      CODE     ---       #982
      00FF69F2H   LINE      CODE     ---       #983
      00FF69F7H   LINE      CODE     ---       #984
      00FF6A06H   LINE      CODE     ---       #985
      00FF6A11H   LINE      CODE     ---       #987
      ---         BLOCKEND  ---      ---       LVL=0

      00FF69ADH   BLOCK     CODE     ---       LVL=0
      00FF69ADH   LINE      CODE     ---       #989
      00FF69ADH   LINE      CODE     ---       #991
      00FF69B0H   LINE      CODE     ---       #992
      00FF69B5H   LINE      CODE     ---       #993
      00FF69BAH   LINE      CODE     ---       #994
      00FF69C5H   LINE      CODE     ---       #995
L251 LINKER/LOCATER V4.66.93.0                                                        07/12/2024  21:17:14  PAGE 87


      ---         BLOCKEND  ---      ---       LVL=0

      00FF3A92H   BLOCK     CODE     ---       LVL=0
      00FF3A94H   BLOCK     CODE     NEAR LAB  LVL=1
      000004F9H   SYMBOL    EDATA    BYTE      zd
      000004FAH   SYMBOL    EDATA    WORD      i
      ---         BLOCKEND  ---      ---       LVL=1
      00FF3A92H   LINE      CODE     ---       #999
      00FF3A94H   LINE      CODE     ---       #1000
      00FF3A94H   LINE      CODE     ---       #1004
      00FF3A9BH   LINE      CODE     ---       #1005
      00FF3AA7H   LINE      CODE     ---       #1006
      00FF3ABAH   LINE      CODE     ---       #1008
      00FF3AC5H   LINE      CODE     ---       #1009
      00FF3AC8H   LINE      CODE     ---       #1010
      00FF3AD0H   LINE      CODE     ---       #1012
      00FF3AE3H   LINE      CODE     ---       #1014
      00FF3AECH   LINE      CODE     ---       #1016
      00FF3B0AH   LINE      CODE     ---       #1017
      00FF3B22H   LINE      CODE     ---       #1018
      00FF3B3AH   LINE      CODE     ---       #1019
      00FF3B52H   LINE      CODE     ---       #1020
      00FF3B52H   LINE      CODE     ---       #1025
      00FF3B9AH   LINE      CODE     ---       #1026
      00FF3C11H   LINE      CODE     ---       #1027
      00FF3C95H   LINE      CODE     ---       #1029
      00FF3CB0H   LINE      CODE     ---       #1030
      00FF3CC6H   LINE      CODE     ---       #1032
      00FF3CD6H   LINE      CODE     ---       #1033
      00FF3CF5H   LINE      CODE     ---       #1034
      00FF3D14H   LINE      CODE     ---       #1036
      00FF3D1CH   LINE      CODE     ---       #1038
      00FF3D29H   LINE      CODE     ---       #1040
      ---         BLOCKEND  ---      ---       LVL=0

      ---         MODULE    ---      ---       TOF
      00FF5D58H   PUBLIC    CODE     ---       vl53l0x_get_distance
      00FF229EH   PUBLIC    CODE     ---       vl53l0x_init
      0000075CH   PUBLIC    EDATA    WORD      vl53l0x_distance_mm
      0000075EH   PUBLIC    EDATA    BYTE      vl53l0x_finsh_flag
      000000D0H   SFRSYM    DATA     BYTE      PSW
      000000B7H   SFRSYM    DATA     BYTE      IPH
      000000B0H.3 SFRSYM    DATA     BIT       P33
      00000088H   SFRSYM    DATA     BYTE      TCON
      000000B0H.2 SFRSYM    DATA     BIT       P32
      00000098H   SFRSYM    DATA     BYTE      SCON
      000000BCH   SFRSYM    DATA     BYTE      ADC_CONTR
      000000DEH   SFRSYM    DATA     BYTE      ADCCFG
      000000B8H   SFRSYM    DATA     BYTE      IP
      000000A8H   SFRSYM    DATA     BYTE      IE
      000000F8H   SFRSYM    DATA     BYTE      P7
      000000E8H   SFRSYM    DATA     BYTE      P6
      000000C8H   SFRSYM    DATA     BYTE      P5
      000000C0H   SFRSYM    DATA     BYTE      P4
      000000B0H   SFRSYM    DATA     BYTE      P3
      000000A0H   SFRSYM    DATA     BYTE      P2
      00000090H   SFRSYM    DATA     BYTE      P1
      00000080H   SFRSYM    DATA     BYTE      P0
      00FF6A12H   SYMBOL    CODE     ---       vl53l0x_simiic_sendack
      00FF657CH   SYMBOL    CODE     ---       vl53l0x_timeout_microseconds_to_mclks
      00FF6501H   SYMBOL    CODE     ---       vl53l0x_timeout_mclks_to_microseconds
      00FF691AH   SYMBOL    CODE     ---       vl53l0x_set_signal_rate_limit
      00FF65B8H   SYMBOL    CODE     ---       vl53l0x_read_ch
      00FF6B92H   SYMBOL    CODE     ---       vl53l0x_decode_timeout
      00FF67C6H   SYMBOL    CODE     ---       vl53l0x_send_ch
L251 LINKER/LOCATER V4.66.93.0                                                        07/12/2024  21:17:14  PAGE 88


      00FF4650H   SYMBOL    CODE     ---       vl53l0x_get_spad_info
      00FF6698H   SYMBOL    CODE     ---       vl53l0x_encode_timeout
      00FF606AH   SYMBOL    CODE     ---       vl53l0x_get_sequence_step_enables
      00FF0066H   SYMBOL    CODE     ---       vl53l0x_sccb_waitack
      00FF6C07H   SYMBOL    CODE     ---       vl53l0x_simiic_delay
      00FF5BF8H   SYMBOL    CODE     ---       vl53l0x_perform_single_ref_calibration
      00FF50DBH   SYMBOL    CODE     ---       vl53l0x_get_sequence_step_timeouts
      00FF6BD0H   SYMBOL    CODE     ---       vl53l0x_simiic_start
      00FF6116H   SYMBOL    CODE     ---       vl53l0x_simiic_read_regs
      00FF5CE5H   SYMBOL    CODE     ---       vl53l0x_get_measurement_timing_budget
      00FF6663H   SYMBOL    CODE     ---       vl53l0x_simiic_write_dats
      00FF68F1H   SYMBOL    CODE     ---       vl53l0x_simiic_read_reg
      00FF616AH   SYMBOL    CODE     ---       vl53l0x_simiic_read_regs_1
      00FF4F17H   SYMBOL    CODE     ---       vl53l0x_set_measurement_timing_budget
      00FF6B70H   SYMBOL    CODE     ---       vl53l0x_simiic_stop
      00FF69D0H   SYMBOL    CODE     ---       vl53l0x_simiic_write_reg
      00FF625CH   SYMBOL    CODE     ---       vl53l0x_get_vcsel_pulse_period

      00FF6C07H   BLOCK     CODE     ---       LVL=0
      WR6         REGSYM    ---      WORD      j
      00FF6C07H   LINE      CODE     ---       #77
      00FF6C07H   LINE      CODE     ---       #78
      00FF6C07H   LINE      CODE     ---       #79
      00FF6C0BH   LINE      CODE     ---       #80
      00FF6C13H   LINE      CODE     ---       #81
      ---         BLOCKEND  ---      ---       LVL=0

      00FF6BD0H   BLOCK     CODE     ---       LVL=0
      00FF6BD0H   LINE      CODE     ---       #84
      00FF6BD0H   LINE      CODE     ---       #86
      00FF6BD2H   LINE      CODE     ---       #87
      00FF6BD4H   LINE      CODE     ---       #88
      00FF6BD7H   LINE      CODE     ---       #89
      00FF6BD9H   LINE      CODE     ---       #90
      00FF6BDCH   LINE      CODE     ---       #91
      00FF6BDEH   LINE      CODE     ---       #92
      ---         BLOCKEND  ---      ---       LVL=0

      00FF6B70H   BLOCK     CODE     ---       LVL=0
      00FF6B70H   LINE      CODE     ---       #95
      00FF6B70H   LINE      CODE     ---       #97
      00FF6B72H   LINE      CODE     ---       #98
      00FF6B74H   LINE      CODE     ---       #99
      00FF6B77H   LINE      CODE     ---       #100
      00FF6B79H   LINE      CODE     ---       #101
      00FF6B7CH   LINE      CODE     ---       #102
      00FF6B7EH   LINE      CODE     ---       #103
      ---         BLOCKEND  ---      ---       LVL=0

      00FF6A12H   BLOCK     CODE     ---       LVL=0
      R15         REGSYM    ---      BYTE      ack_dat
      00FF6A12H   LINE      CODE     ---       #108
      00FF6A16H   LINE      CODE     ---       #110
      00FF6A18H   LINE      CODE     ---       #111
      00FF6A1BH   LINE      CODE     ---       #112
      00FF6A23H   LINE      CODE     ---       #113
      00FF6A25H   LINE      CODE     ---       #115
      00FF6A27H   LINE      CODE     ---       #116
      00FF6A2AH   LINE      CODE     ---       #117
      00FF6A2CH   LINE      CODE     ---       #118
      00FF6A2FH   LINE      CODE     ---       #119
      ---         BLOCKEND  ---      ---       LVL=0

      00FF0066H   BLOCK     CODE     ---       LVL=0
      00FF0066H   LINE      CODE     ---       #122
L251 LINKER/LOCATER V4.66.93.0                                                        07/12/2024  21:17:14  PAGE 89


      00FF0066H   LINE      CODE     ---       #124
      00FF0068H   LINE      CODE     ---       #126
      00FF006BH   LINE      CODE     ---       #128
      00FF006DH   LINE      CODE     ---       #129
      00FF0070H   LINE      CODE     ---       #131
      00FF0073H   LINE      CODE     ---       #134
      00FF0075H   LINE      CODE     ---       #135
      00FF0078H   LINE      CODE     ---       #136
      00FF0078H   LINE      CODE     ---       #138
      00FF007AH   LINE      CODE     ---       #139
      00FF007DH   LINE      CODE     ---       #140
      00FF0081H   LINE      CODE     ---       #141
      ---         BLOCKEND  ---      ---       LVL=0

      00FF67C6H   BLOCK     CODE     ---       LVL=0
      R15         REGSYM    ---      BYTE      c
      00FF67CAH   BLOCK     CODE     NEAR LAB  LVL=1
      R14         REGSYM    ---      BYTE      i
      ---         BLOCKEND  ---      ---       LVL=1
      00FF67C6H   LINE      CODE     ---       #147
      00FF67CAH   LINE      CODE     ---       #148
      00FF67CAH   LINE      CODE     ---       #149
      00FF67CDH   LINE      CODE     ---       #150
      00FF67CFH   LINE      CODE     ---       #152
      00FF67D8H   LINE      CODE     ---       #153
      00FF67DAH   LINE      CODE     ---       #154
      00FF67DCH   LINE      CODE     ---       #155
      00FF67DFH   LINE      CODE     ---       #156
      00FF67E1H   LINE      CODE     ---       #157
      00FF67E4H   LINE      CODE     ---       #158
      00FF67E6H   LINE      CODE     ---       #159
      00FF67EEH   LINE      CODE     ---       #160
      00FF67F1H   LINE      CODE     ---       #161
      ---         BLOCKEND  ---      ---       LVL=0

      00FF65B8H   BLOCK     CODE     ---       LVL=0
      R15         REGSYM    ---      BYTE      ack_x
      00FF65BEH   BLOCK     CODE     NEAR LAB  LVL=1
      R13         REGSYM    ---      BYTE      i
      R14         REGSYM    ---      BYTE      c
      ---         BLOCKEND  ---      ---       LVL=1
      00FF65B8H   LINE      CODE     ---       #167
      00FF65BEH   LINE      CODE     ---       #168
      00FF65BEH   LINE      CODE     ---       #171
      00FF65C0H   LINE      CODE     ---       #172
      00FF65C2H   LINE      CODE     ---       #173
      00FF65C5H   LINE      CODE     ---       #174
      00FF65C7H   LINE      CODE     ---       #176
      00FF65CAH   LINE      CODE     ---       #178
      00FF65CDH   LINE      CODE     ---       #179
      00FF65CFH   LINE      CODE     ---       #180
      00FF65D2H   LINE      CODE     ---       #181
      00FF65D4H   LINE      CODE     ---       #182
      00FF65D7H   LINE      CODE     ---       #183
      00FF65D9H   LINE      CODE     ---       #184
      00FF65DCH   LINE      CODE     ---       #186
      00FF65DEH   LINE      CODE     ---       #187
      00FF65E2H   LINE      CODE     ---       #190
      00FF65E4H   LINE      CODE     ---       #191
      00FF65E7H   LINE      CODE     ---       #192
      00FF65ECH   LINE      CODE     ---       #194
      00FF65EEH   LINE      CODE     ---       #195
      ---         BLOCKEND  ---      ---       LVL=0

      00FF6663H   BLOCK     CODE     ---       LVL=0
L251 LINKER/LOCATER V4.66.93.0                                                        07/12/2024  21:17:14  PAGE 90


      0000043BH   SYMBOL    EDATA    BYTE      dev_add
      0000043CH   SYMBOL    EDATA    ---       dat
      DR12        REGSYM    ---      DWORD     len
      00FF6663H   LINE      CODE     ---       #207
      00FF666FH   LINE      CODE     ---       #209
      00FF6672H   LINE      CODE     ---       #210
      00FF6678H   LINE      CODE     ---       #211
      00FF667AH   LINE      CODE     ---       #213
      00FF668AH   LINE      CODE     ---       #214
      00FF6692H   LINE      CODE     ---       #217
      00FF6695H   LINE      CODE     ---       #218
      ---         BLOCKEND  ---      ---       LVL=0

      00FF69D0H   BLOCK     CODE     ---       LVL=0
      R13         REGSYM    ---      BYTE      dev_add
      R14         REGSYM    ---      BYTE      reg
      R15         REGSYM    ---      BYTE      dat
      00FF69D0H   LINE      CODE     ---       #230
      00FF69D8H   LINE      CODE     ---       #232
      00FF69DBH   LINE      CODE     ---       #233
      00FF69E0H   LINE      CODE     ---       #234
      00FF69E5H   LINE      CODE     ---       #235
      00FF69EAH   LINE      CODE     ---       #236
      00FF69EDH   LINE      CODE     ---       #237
      ---         BLOCKEND  ---      ---       LVL=0

      00FF68F1H   BLOCK     CODE     ---       LVL=0
      R15         REGSYM    ---      BYTE      dev_add
      R14         REGSYM    ---      BYTE      reg
      00FF68F7H   BLOCK     CODE     NEAR LAB  LVL=1
      R15         REGSYM    ---      BYTE      dat
      ---         BLOCKEND  ---      ---       LVL=1
      00FF68F1H   LINE      CODE     ---       #248
      00FF68F7H   LINE      CODE     ---       #249
      00FF68F7H   LINE      CODE     ---       #251
      00FF68FAH   LINE      CODE     ---       #252
      00FF68FFH   LINE      CODE     ---       #253
      00FF6904H   LINE      CODE     ---       #256
      00FF6907H   LINE      CODE     ---       #257
      00FF6910H   LINE      CODE     ---       #258
      00FF6914H   LINE      CODE     ---       #259
      00FF6917H   LINE      CODE     ---       #261
      00FF6917H   LINE      CODE     ---       #262
      ---         BLOCKEND  ---      ---       LVL=0

      00FF6116H   BLOCK     CODE     ---       LVL=0
      00000442H   SYMBOL    EDATA    BYTE      dev_add
      00000443H   SYMBOL    EDATA    BYTE      reg
      REG=3       REGSYM    ---      ---       dat_add
      00000444H   SYMBOL    EDATA    DWORD     num
      00FF6116H   LINE      CODE     ---       #275
      00FF6122H   LINE      CODE     ---       #277
      00FF6125H   LINE      CODE     ---       #278
      00FF612EH   LINE      CODE     ---       #279
      00FF6135H   LINE      CODE     ---       #282
      00FF6138H   LINE      CODE     ---       #283
      00FF6143H   LINE      CODE     ---       #284
      00FF6145H   LINE      CODE     ---       #286
      00FF614DH   LINE      CODE     ---       #287
      00FF614FH   LINE      CODE     ---       #288
      00FF615DH   LINE      CODE     ---       #289
      00FF6164H   LINE      CODE     ---       #290
      00FF6167H   LINE      CODE     ---       #291
      ---         BLOCKEND  ---      ---       LVL=0

L251 LINKER/LOCATER V4.66.93.0                                                        07/12/2024  21:17:14  PAGE 91


      00FF616AH   BLOCK     CODE     ---       LVL=0
      000003FDH   SYMBOL    EDATA    BYTE      dev_add
      000003FEH   SYMBOL    EDATA    BYTE      reg
      REG=3       REGSYM    ---      ---       dat_add
      000003FFH   SYMBOL    EDATA    DWORD     num
      00FF616AH   LINE      CODE     ---       #304
      00FF6176H   LINE      CODE     ---       #306
      00FF6179H   LINE      CODE     ---       #307
      00FF6182H   LINE      CODE     ---       #308
      00FF6189H   LINE      CODE     ---       #311
      00FF618CH   LINE      CODE     ---       #312
      00FF6197H   LINE      CODE     ---       #313
      00FF6199H   LINE      CODE     ---       #315
      00FF61A1H   LINE      CODE     ---       #316
      00FF61A3H   LINE      CODE     ---       #317
      00FF61B1H   LINE      CODE     ---       #318
      00FF61B8H   LINE      CODE     ---       #319
      00FF61BBH   LINE      CODE     ---       #320
      ---         BLOCKEND  ---      ---       LVL=0

      00FF4650H   BLOCK     CODE     ---       LVL=0
      00000418H   SYMBOL    EDATA    ---       index
      REG=3       REGSYM    ---      ---       type_is_aperture
      00FF4658H   BLOCK     CODE     NEAR LAB  LVL=1
      0000041CH   SYMBOL    EDATA    BYTE      tmp
      0000041DH   SYMBOL    EDATA    BYTE      return_state
      0000041EH   SYMBOL    EDATA    WORD      loop_count
      ---         BLOCKEND  ---      ---       LVL=1
      00FF4650H   LINE      CODE     ---       #352
      00FF4658H   LINE      CODE     ---       #353
      00FF4658H   LINE      CODE     ---       #354
      00FF465DH   LINE      CODE     ---       #355
      00FF4661H   LINE      CODE     ---       #356
      00FF4667H   LINE      CODE     ---       #358
      00FF4667H   LINE      CODE     ---       #360
      00FF4672H   LINE      CODE     ---       #361
      00FF467DH   LINE      CODE     ---       #362
      00FF4686H   LINE      CODE     ---       #364
      00FF4691H   LINE      CODE     ---       #365
      00FF46A5H   LINE      CODE     ---       #366
      00FF46B4H   LINE      CODE     ---       #367
      00FF46BFH   LINE      CODE     ---       #368
      00FF46CAH   LINE      CODE     ---       #370
      00FF46D5H   LINE      CODE     ---       #372
      00FF46E0H   LINE      CODE     ---       #373
      00FF46EAH   LINE      CODE     ---       #375
      00FF46EFH   LINE      CODE     ---       #376
      00FF46F1H   LINE      CODE     ---       #378
      00FF4705H   LINE      CODE     ---       #379
      00FF470FH   LINE      CODE     ---       #380
      00FF4719H   LINE      CODE     ---       #382
      00FF471FH   LINE      CODE     ---       #383
      00FF4721H   LINE      CODE     ---       #384
      00FF4728H   LINE      CODE     ---       #387
      00FF4731H   LINE      CODE     ---       #389
      00FF4731H   LINE      CODE     ---       #390
      00FF4731H   LINE      CODE     ---       #391
      00FF473CH   LINE      CODE     ---       #392
      00FF4750H   LINE      CODE     ---       #394
      00FF475DH   LINE      CODE     ---       #395
      00FF4767H   LINE      CODE     ---       #397
      00FF4771H   LINE      CODE     ---       #398
      00FF477CH   LINE      CODE     ---       #399
      00FF4790H   LINE      CODE     ---       #400
      00FF479CH   LINE      CODE     ---       #401
L251 LINKER/LOCATER V4.66.93.0                                                        07/12/2024  21:17:14  PAGE 92


      00FF47A7H   LINE      CODE     ---       #402
      00FF47B1H   LINE      CODE     ---       #404
      00FF47BBH   LINE      CODE     ---       #405
      00FF47C5H   LINE      CODE     ---       #406
      00FF47C5H   LINE      CODE     ---       #408
      00FF47C9H   LINE      CODE     ---       #409
      ---         BLOCKEND  ---      ---       LVL=0

      00FF6501H   BLOCK     CODE     ---       LVL=0
      WR30        REGSYM    ---      WORD      timeout_period_mclks
      R5          REGSYM    ---      BYTE      vcsel_period_pclks
      00FF6503H   BLOCK     CODE     NEAR LAB  LVL=1
      DR24        REGSYM    ---      DWORD     macro_period_ns
      ---         BLOCKEND  ---      ---       LVL=1
      00FF6501H   LINE      CODE     ---       #419
      00FF6503H   LINE      CODE     ---       #420
      00FF6503H   LINE      CODE     ---       #421
      00FF6524H   LINE      CODE     ---       #423
      ---         BLOCKEND  ---      ---       LVL=0

      00FF657CH   BLOCK     CODE     ---       LVL=0
      DR28        REGSYM    ---      DWORD     timeout_period_us
      R3          REGSYM    ---      BYTE      vcsel_period_pclks
      00FF657EH   BLOCK     CODE     NEAR LAB  LVL=1
      DR8         REGSYM    ---      DWORD     macro_period_ns
      ---         BLOCKEND  ---      ---       LVL=1
      00FF657CH   LINE      CODE     ---       #434
      00FF657EH   LINE      CODE     ---       #435
      00FF657EH   LINE      CODE     ---       #436
      00FF659FH   LINE      CODE     ---       #438
      ---         BLOCKEND  ---      ---       LVL=0

      00FF6B92H   BLOCK     CODE     ---       LVL=0
      WR4         REGSYM    ---      WORD      reg_val
      00FF6B92H   LINE      CODE     ---       #448
      00FF6B94H   LINE      CODE     ---       #451
      00FF6BA1H   LINE      CODE     ---       #453
      ---         BLOCKEND  ---      ---       LVL=0

      00FF6698H   BLOCK     CODE     ---       LVL=0
      WR2         REGSYM    ---      WORD      timeout_mclks
      00FF669AH   BLOCK     CODE     NEAR LAB  LVL=1
      DR8         REGSYM    ---      DWORD     ls_byte
      WR4         REGSYM    ---      WORD      ms_byte
      WR6         REGSYM    ---      WORD      return_data
      ---         BLOCKEND  ---      ---       LVL=1
      00FF6698H   LINE      CODE     ---       #462
      00FF669AH   LINE      CODE     ---       #463
      00FF669AH   LINE      CODE     ---       #464
      00FF669AH   LINE      CODE     ---       #465
      00FF669EH   LINE      CODE     ---       #466
      00FF669EH   LINE      CODE     ---       #468
      00FF66A4H   LINE      CODE     ---       #471
      00FF66AAH   LINE      CODE     ---       #472
      00FF66ACH   LINE      CODE     ---       #474
      00FF66B5H   LINE      CODE     ---       #475
      00FF66B7H   LINE      CODE     ---       #476
      00FF66C1H   LINE      CODE     ---       #477
      00FF66CBH   LINE      CODE     ---       #478
      00FF66CBH   LINE      CODE     ---       #479
      00FF66CBH   LINE      CODE     ---       #480
      ---         BLOCKEND  ---      ---       LVL=0

      00FF606AH   BLOCK     CODE     ---       LVL=0
      REG=3       REGSYM    ---      ---       enables
L251 LINKER/LOCATER V4.66.93.0                                                        07/12/2024  21:17:14  PAGE 93


      00FF606EH   BLOCK     CODE     NEAR LAB  LVL=1
      0000043BH   SYMBOL    EDATA    BYTE      sequence_config
      ---         BLOCKEND  ---      ---       LVL=1
      00FF606AH   LINE      CODE     ---       #489
      00FF606EH   LINE      CODE     ---       #490
      00FF606EH   LINE      CODE     ---       #491
      00FF6073H   LINE      CODE     ---       #492
      00FF6084H   LINE      CODE     ---       #494
      00FF608EH   LINE      CODE     ---       #495
      00FF609AH   LINE      CODE     ---       #496
      00FF60A8H   LINE      CODE     ---       #497
      00FF60B4H   LINE      CODE     ---       #498
      00FF60BFH   LINE      CODE     ---       #499
      ---         BLOCKEND  ---      ---       LVL=0

      00FF625CH   BLOCK     CODE     ---       LVL=0
      WR6         REGSYM    ---      INT       type
      00000441H   SYMBOL    EDATA    BYTE      data_buffer
      00FF625CH   LINE      CODE     ---       #508
      00FF625CH   LINE      CODE     ---       #509
      00FF625CH   LINE      CODE     ---       #510
      00FF6261H   LINE      CODE     ---       #511
      00FF6265H   LINE      CODE     ---       #513
      00FF6272H   LINE      CODE     ---       #514
      00FF6272H   LINE      CODE     ---       #515
      00FF6274H   LINE      CODE     ---       #516
      00FF627AH   LINE      CODE     ---       #518
      00FF628EH   LINE      CODE     ---       #519
      00FF629CH   LINE      CODE     ---       #520
      00FF629EH   LINE      CODE     ---       #523
      00FF62A4H   LINE      CODE     ---       #524
      00FF62A4H   LINE      CODE     ---       #525
      00FF62A8H   LINE      CODE     ---       #526
      ---         BLOCKEND  ---      ---       LVL=0

      00FF50DBH   BLOCK     CODE     ---       LVL=0
      0000043BH   SYMBOL    EDATA    ---       enables
      REG=3       REGSYM    ---      ---       timeouts
      00FF50E3H   BLOCK     CODE     NEAR LAB  LVL=1
      0000043FH   SYMBOL    EDATA    ---       reg_buffer
      WR6         REGSYM    ---      WORD      reg16_buffer
      ---         BLOCKEND  ---      ---       LVL=1
      00FF50DBH   LINE      CODE     ---       #536
      00FF50E3H   LINE      CODE     ---       #537
      00FF50E3H   LINE      CODE     ---       #539
      00FF50E3H   LINE      CODE     ---       #541
      00FF50EDH   LINE      CODE     ---       #543
      00FF5101H   LINE      CODE     ---       #544
      00FF510DH   LINE      CODE     ---       #545
      00FF511BH   LINE      CODE     ---       #547
      00FF512FH   LINE      CODE     ---       #548
      00FF513BH   LINE      CODE     ---       #549
      00FF5142H   LINE      CODE     ---       #550
      00FF5150H   LINE      CODE     ---       #552
      00FF515DH   LINE      CODE     ---       #554
      00FF5171H   LINE      CODE     ---       #555
      00FF517DH   LINE      CODE     ---       #556
      00FF5184H   LINE      CODE     ---       #558
      00FF518EH   LINE      CODE     ---       #560
      00FF51A0H   LINE      CODE     ---       #561
      00FF51A0H   LINE      CODE     ---       #563
      00FF51B3H   LINE      CODE     ---       #564
      ---         BLOCKEND  ---      ---       LVL=0

      00FF5BF8H   BLOCK     CODE     ---       LVL=0
L251 LINKER/LOCATER V4.66.93.0                                                        07/12/2024  21:17:14  PAGE 94


      R10         REGSYM    ---      BYTE      vhv_init_byte
      00FF5BFCH   BLOCK     CODE     NEAR LAB  LVL=1
      R15         REGSYM    ---      BYTE      return_state
      00000418H   SYMBOL    EDATA    BYTE      data_buffer
      00000419H   SYMBOL    EDATA    WORD      loop_count
      ---         BLOCKEND  ---      ---       LVL=1
      00FF5BF8H   LINE      CODE     ---       #573
      00FF5BFCH   LINE      CODE     ---       #574
      00FF5BFCH   LINE      CODE     ---       #575
      00FF5BFEH   LINE      CODE     ---       #576
      00FF5C03H   LINE      CODE     ---       #577
      00FF5C09H   LINE      CODE     ---       #578
      00FF5C09H   LINE      CODE     ---       #580
      00FF5C13H   LINE      CODE     ---       #581
      00FF5C13H   LINE      CODE     ---       #582
      00FF5C15H   LINE      CODE     ---       #584
      00FF5C1FH   LINE      CODE     ---       #586
      00FF5C22H   LINE      CODE     ---       #587
      00FF5C24H   LINE      CODE     ---       #588
      00FF5C24H   LINE      CODE     ---       #589
      00FF5C36H   LINE      CODE     ---       #591
      00FF5C4AH   LINE      CODE     ---       #592
      00FF5C52H   LINE      CODE     ---       #594
      00FF5C56H   LINE      CODE     ---       #596
      00FF5C56H   LINE      CODE     ---       #597
      00FF5C56H   LINE      CODE     ---       #598
      00FF5C61H   LINE      CODE     ---       #599
      00FF5C6AH   LINE      CODE     ---       #600
      00FF5C6AH   LINE      CODE     ---       #602
      00FF5C6CH   LINE      CODE     ---       #603
      ---         BLOCKEND  ---      ---       LVL=0

      00FF4F17H   BLOCK     CODE     ---       LVL=0
      DR12        REGSYM    ---      DWORD     budget_us
      00FF4F1BH   BLOCK     CODE     NEAR LAB  LVL=1
      00000418H   SYMBOL    EDATA    BYTE      return_state
      00000419H   SYMBOL    EDATA    ---       data_buffer
      WR6         REGSYM    ---      WORD      dat
      0000041CH   SYMBOL    EDATA    DWORD     used_budget_us
      DR4         REGSYM    ---      DWORD     final_range_timeout_us
      WR6         REGSYM    ---      WORD      final_range_timeout_mclks
      00000420H   SYMBOL    EDATA    ---       enables
      00000425H   SYMBOL    EDATA    ---       timeouts
      ---         BLOCKEND  ---      ---       LVL=1
      00FF4F17H   LINE      CODE     ---       #616
      00FF4F1BH   LINE      CODE     ---       #617
      00FF4F1BH   LINE      CODE     ---       #618
      00FF4F20H   LINE      CODE     ---       #620
      00FF4F20H   LINE      CODE     ---       #628
      00FF4F20H   LINE      CODE     ---       #630
      00FF4F26H   LINE      CODE     ---       #632
      00FF4F26H   LINE      CODE     ---       #633
      00FF4F29H   LINE      CODE     ---       #634
      00FF4F29H   LINE      CODE     ---       #636
      00FF4F31H   LINE      CODE     ---       #637
      00FF4F38H   LINE      CODE     ---       #638
      00FF4F43H   LINE      CODE     ---       #640
      00FF4F49H   LINE      CODE     ---       #642
      00FF4F59H   LINE      CODE     ---       #643
      00FF4F59H   LINE      CODE     ---       #645
      00FF4F5FH   LINE      CODE     ---       #647
      00FF4F6BH   LINE      CODE     ---       #648
      00FF4F6DH   LINE      CODE     ---       #649
      00FF4F73H   LINE      CODE     ---       #651
      00FF4F85H   LINE      CODE     ---       #652
L251 LINKER/LOCATER V4.66.93.0                                                        07/12/2024  21:17:14  PAGE 95


      00FF4F85H   LINE      CODE     ---       #654
      00FF4F8BH   LINE      CODE     ---       #656
      00FF4F9DH   LINE      CODE     ---       #657
      00FF4F9DH   LINE      CODE     ---       #659
      00FF4FA3H   LINE      CODE     ---       #664
      00FF4FAFH   LINE      CODE     ---       #665
      00FF4FB7H   LINE      CODE     ---       #668
      00FF4FBDH   LINE      CODE     ---       #669
      00FF4FBFH   LINE      CODE     ---       #670
      00FF4FBFH   LINE      CODE     ---       #675
      00FF4FC3H   LINE      CODE     ---       #676
      00FF4FCAH   LINE      CODE     ---       #680
      00FF4FD0H   LINE      CODE     ---       #682
      00FF4FD6H   LINE      CODE     ---       #683
      00FF4FD6H   LINE      CODE     ---       #685
      00FF4FD9H   LINE      CODE     ---       #686
      00FF4FDFH   LINE      CODE     ---       #687
      00FF4FE3H   LINE      CODE     ---       #688
      00FF4FE7H   LINE      CODE     ---       #689
      00FF4FF4H   LINE      CODE     ---       #690
      00FF4FF4H   LINE      CODE     ---       #692
      00FF4FF8H   LINE      CODE     ---       #693
      ---         BLOCKEND  ---      ---       LVL=0

      00FF5CE5H   BLOCK     CODE     ---       LVL=0
      00FF5CE7H   BLOCK     CODE     NEAR LAB  LVL=1
      00000418H   SYMBOL    EDATA    ---       enables
      0000041DH   SYMBOL    EDATA    ---       timeouts
      DR12        REGSYM    ---      DWORD     budget_us
      ---         BLOCKEND  ---      ---       LVL=1
      00FF5CE5H   LINE      CODE     ---       #702
      00FF5CE7H   LINE      CODE     ---       #703
      00FF5CE7H   LINE      CODE     ---       #708
      00FF5CEBH   LINE      CODE     ---       #710
      00FF5CF2H   LINE      CODE     ---       #711
      00FF5CFDH   LINE      CODE     ---       #713
      00FF5D03H   LINE      CODE     ---       #715
      00FF5D0FH   LINE      CODE     ---       #716
      00FF5D0FH   LINE      CODE     ---       #718
      00FF5D15H   LINE      CODE     ---       #720
      00FF5D21H   LINE      CODE     ---       #721
      00FF5D23H   LINE      CODE     ---       #722
      00FF5D29H   LINE      CODE     ---       #724
      00FF5D33H   LINE      CODE     ---       #725
      00FF5D33H   LINE      CODE     ---       #727
      00FF5D39H   LINE      CODE     ---       #729
      00FF5D43H   LINE      CODE     ---       #730
      00FF5D43H   LINE      CODE     ---       #732
      00FF5D49H   LINE      CODE     ---       #734
      00FF5D53H   LINE      CODE     ---       #735
      00FF5D53H   LINE      CODE     ---       #737
      00FF5D55H   LINE      CODE     ---       #738
      ---         BLOCKEND  ---      ---       LVL=0

      00FF691AH   BLOCK     CODE     ---       LVL=0
      DR4         REGSYM    ---      FLOAT     limit_mcps
      00000418H   SYMBOL    EDATA    ---       data_buffer
      WR6         REGSYM    ---      WORD      limit_mcps_16bit
      00FF691AH   LINE      CODE     ---       #751
      00FF691AH   LINE      CODE     ---       #752
      00FF691AH   LINE      CODE     ---       #754
      00FF6926H   LINE      CODE     ---       #758
      00FF692CH   LINE      CODE     ---       #759
      00FF6930H   LINE      CODE     ---       #760
      00FF6934H   LINE      CODE     ---       #762
L251 LINKER/LOCATER V4.66.93.0                                                        07/12/2024  21:17:14  PAGE 96


      ---         BLOCKEND  ---      ---       LVL=0

      00FF5D58H   BLOCK     CODE     ---       LVL=0
      00FF5D5AH   BLOCK     CODE     NEAR LAB  LVL=1
      000003FAH   SYMBOL    EDATA    ---       reg_databuffer
      WR14        REGSYM    ---      WORD      distance
      ---         BLOCKEND  ---      ---       LVL=1
      00FF5D58H   LINE      CODE     ---       #774
      00FF5D5AH   LINE      CODE     ---       #775
      00FF5D5AH   LINE      CODE     ---       #778
      00FF5D6EH   LINE      CODE     ---       #779
      00FF5D76H   LINE      CODE     ---       #781
      00FF5D7BH   LINE      CODE     ---       #782
      00FF5D7DH   LINE      CODE     ---       #786
      00FF5D91H   LINE      CODE     ---       #787
      00FF5D9FH   LINE      CODE     ---       #788
      00FF5DA5H   LINE      CODE     ---       #790
      00FF5DABH   LINE      CODE     ---       #791
      00FF5DAFH   LINE      CODE     ---       #793
      00FF5DBEH   LINE      CODE     ---       #794
      00FF5DC2H   LINE      CODE     ---       #796
      00FF5DC2H   LINE      CODE     ---       #797
      ---         BLOCKEND  ---      ---       LVL=0

      00FF229EH   BLOCK     CODE     ---       LVL=0
      00FF22A2H   BLOCK     CODE     NEAR LAB  LVL=1
      00000406H   SYMBOL    EDATA    DWORD     measurement_timing_budget_us
      0000040AH   SYMBOL    EDATA    BYTE      stop_variable
      R15         REGSYM    ---      BYTE      return_state
      R14         REGSYM    ---      BYTE      reg_data_buffer
      0000040BH   SYMBOL    EDATA    ---       ref_spad_map
      00000411H   SYMBOL    EDATA    ---       data_buffer
      R13         REGSYM    ---      BYTE      i
      ---         BLOCKEND  ---      ---       LVL=1
      00FF229EH   LINE      CODE     ---       #808
      00FF22A2H   LINE      CODE     ---       #809
      00FF22A2H   LINE      CODE     ---       #810
      00FF22A2H   LINE      CODE     ---       #811
      00FF22A7H   LINE      CODE     ---       #812
      00FF22A9H   LINE      CODE     ---       #813
      00FF22A9H   LINE      CODE     ---       #816
      00FF22A9H   LINE      CODE     ---       #818
      00FF22B4H   LINE      CODE     ---       #819
      00FF22C0H   LINE      CODE     ---       #823
      00FF22C0H   LINE      CODE     ---       #832
      00FF22CAH   LINE      CODE     ---       #833
      00FF22D7H   LINE      CODE     ---       #835
      00FF22E1H   LINE      CODE     ---       #837
      00FF22ECH   LINE      CODE     ---       #838
      00FF22F7H   LINE      CODE     ---       #839
      00FF2300H   LINE      CODE     ---       #841
      00FF2314H   LINE      CODE     ---       #843
      00FF231EH   LINE      CODE     ---       #844
      00FF2328H   LINE      CODE     ---       #845
      00FF2332H   LINE      CODE     ---       #848
      00FF233CH   LINE      CODE     ---       #849
      00FF2349H   LINE      CODE     ---       #851
      00FF2352H   LINE      CODE     ---       #852
      00FF235DH   LINE      CODE     ---       #856
      00FF236AH   LINE      CODE     ---       #858
      00FF236DH   LINE      CODE     ---       #863
      00FF2378H   LINE      CODE     ---       #864
      00FF237BH   LINE      CODE     ---       #865
      00FF237BH   LINE      CODE     ---       #868
      00FF238FH   LINE      CODE     ---       #870
L251 LINKER/LOCATER V4.66.93.0                                                        07/12/2024  21:17:14  PAGE 97


      00FF239AH   LINE      CODE     ---       #871
      00FF23A4H   LINE      CODE     ---       #872
      00FF23AFH   LINE      CODE     ---       #873
      00FF23B9H   LINE      CODE     ---       #874
      00FF23C4H   LINE      CODE     ---       #876
      00FF23D5H   LINE      CODE     ---       #877
      00FF23D7H   LINE      CODE     ---       #879
      00FF23E9H   LINE      CODE     ---       #884
      00FF2417H   LINE      CODE     ---       #885
      00FF2419H   LINE      CODE     ---       #886
      00FF243CH   LINE      CODE     ---       #888
      00FF2445H   LINE      CODE     ---       #889
      00FF244CH   LINE      CODE     ---       #892
      00FF2452H   LINE      CODE     ---       #893
      00FF2455H   LINE      CODE     ---       #895
      00FF245FH   LINE      CODE     ---       #896
      00FF2466H   LINE      CODE     ---       #897
      00FF2473H   LINE      CODE     ---       #900
      00FF247EH   LINE      CODE     ---       #901
      00FF2487H   LINE      CODE     ---       #902
      00FF2491H   LINE      CODE     ---       #903
      00FF249BH   LINE      CODE     ---       #904
      00FF24A5H   LINE      CODE     ---       #905
      00FF24AFH   LINE      CODE     ---       #906
      00FF24BAH   LINE      CODE     ---       #907
      00FF24C5H   LINE      CODE     ---       #908
      00FF24CFH   LINE      CODE     ---       #909
      00FF24DAH   LINE      CODE     ---       #910
      00FF24E5H   LINE      CODE     ---       #911
      00FF24EFH   LINE      CODE     ---       #912
      00FF24FAH   LINE      CODE     ---       #913
      00FF2504H   LINE      CODE     ---       #914
      00FF250FH   LINE      CODE     ---       #915
      00FF2519H   LINE      CODE     ---       #916
      00FF2524H   LINE      CODE     ---       #917
      00FF252FH   LINE      CODE     ---       #918
      00FF253AH   LINE      CODE     ---       #919
      00FF2545H   LINE      CODE     ---       #920
      00FF254FH   LINE      CODE     ---       #921
      00FF2559H   LINE      CODE     ---       #922
      00FF2564H   LINE      CODE     ---       #923
      00FF256EH   LINE      CODE     ---       #924
      00FF2579H   LINE      CODE     ---       #925
      00FF2584H   LINE      CODE     ---       #926
      00FF258FH   LINE      CODE     ---       #927
      00FF2599H   LINE      CODE     ---       #928
      00FF25A3H   LINE      CODE     ---       #929
      00FF25ADH   LINE      CODE     ---       #930
      00FF25B7H   LINE      CODE     ---       #931
      00FF25C2H   LINE      CODE     ---       #932
      00FF25CDH   LINE      CODE     ---       #933
      00FF25D8H   LINE      CODE     ---       #934
      00FF25E3H   LINE      CODE     ---       #935
      00FF25EEH   LINE      CODE     ---       #936
      00FF25F8H   LINE      CODE     ---       #937
      00FF2602H   LINE      CODE     ---       #938
      00FF260DH   LINE      CODE     ---       #939
      00FF2617H   LINE      CODE     ---       #940
      00FF2622H   LINE      CODE     ---       #941
      00FF262DH   LINE      CODE     ---       #942
      00FF2638H   LINE      CODE     ---       #943
      00FF2642H   LINE      CODE     ---       #944
      00FF264DH   LINE      CODE     ---       #945
      00FF2658H   LINE      CODE     ---       #946
      00FF2663H   LINE      CODE     ---       #947
L251 LINKER/LOCATER V4.66.93.0                                                        07/12/2024  21:17:14  PAGE 98


      00FF266EH   LINE      CODE     ---       #948
      00FF2679H   LINE      CODE     ---       #949
      00FF2684H   LINE      CODE     ---       #950
      00FF268FH   LINE      CODE     ---       #951
      00FF2699H   LINE      CODE     ---       #952
      00FF26A4H   LINE      CODE     ---       #953
      00FF26AFH   LINE      CODE     ---       #954
      00FF26BAH   LINE      CODE     ---       #955
      00FF26C5H   LINE      CODE     ---       #956
      00FF26D0H   LINE      CODE     ---       #957
      00FF26DBH   LINE      CODE     ---       #958
      00FF26E6H   LINE      CODE     ---       #959
      00FF26F0H   LINE      CODE     ---       #960
      00FF26FAH   LINE      CODE     ---       #961
      00FF2705H   LINE      CODE     ---       #962
      00FF2710H   LINE      CODE     ---       #963
      00FF271BH   LINE      CODE     ---       #964
      00FF2725H   LINE      CODE     ---       #965
      00FF2730H   LINE      CODE     ---       #966
      00FF273BH   LINE      CODE     ---       #967
      00FF2746H   LINE      CODE     ---       #968
      00FF2750H   LINE      CODE     ---       #969
      00FF275AH   LINE      CODE     ---       #970
      00FF2765H   LINE      CODE     ---       #971
      00FF2770H   LINE      CODE     ---       #972
      00FF277AH   LINE      CODE     ---       #973
      00FF2785H   LINE      CODE     ---       #974
      00FF2790H   LINE      CODE     ---       #975
      00FF279BH   LINE      CODE     ---       #976
      00FF27A6H   LINE      CODE     ---       #977
      00FF27B0H   LINE      CODE     ---       #978
      00FF27BAH   LINE      CODE     ---       #979
      00FF27C4H   LINE      CODE     ---       #982
      00FF27CFH   LINE      CODE     ---       #983
      00FF27D9H   LINE      CODE     ---       #984
      00FF27E6H   LINE      CODE     ---       #985
      00FF27F1H   LINE      CODE     ---       #987
      00FF27F8H   LINE      CODE     ---       #992
      00FF2803H   LINE      CODE     ---       #993
      00FF280AH   LINE      CODE     ---       #996
      00FF2815H   LINE      CODE     ---       #997
      00FF281CH   LINE      CODE     ---       #999
      00FF281CH   LINE      CODE     ---       #1000
      00FF281EH   LINE      CODE     ---       #1001
      00FF281EH   LINE      CODE     ---       #1002
      00FF2829H   LINE      CODE     ---       #1003
      00FF282FH   LINE      CODE     ---       #1005
      00FF2832H   LINE      CODE     ---       #1006
      00FF2834H   LINE      CODE     ---       #1007
      00FF2834H   LINE      CODE     ---       #1008
      00FF283FH   LINE      CODE     ---       #1010
      00FF2846H   LINE      CODE     ---       #1012
      00FF2851H   LINE      CODE     ---       #1013
      00FF285CH   LINE      CODE     ---       #1014
      00FF2865H   LINE      CODE     ---       #1015
      00FF2871H   LINE      CODE     ---       #1016
      00FF287BH   LINE      CODE     ---       #1017
      00FF2885H   LINE      CODE     ---       #1018
      00FF288FH   LINE      CODE     ---       #1020
      00FF2899H   LINE      CODE     ---       #1021
      00FF2899H   LINE      CODE     ---       #1023
      00FF289BH   LINE      CODE     ---       #1024
      ---         BLOCKEND  ---      ---       LVL=0

      ---         MODULE    ---      ---       Element
L251 LINKER/LOCATER V4.66.93.0                                                        07/12/2024  21:17:14  PAGE 99


      00FF6443H   PUBLIC    CODE     ---       Elem_Up_Down
      00FF4A4EH   PUBLIC    CODE     ---       Elem_Barrier
      00FF3F58H   PUBLIC    CODE     ---       Elem_Circle
      000006E0H   PUBLIC    EDATA    FLOAT     Dis_Bar
      000006E4H   PUBLIC    EDATA    CHAR      Special_Elem
      000006E5H   PUBLIC    EDATA    CHAR      Barrier_Flag1
      000006E6H   PUBLIC    EDATA    INT       Circle_Delay2
      000006E8H   PUBLIC    EDATA    CHAR      Barrier_Flag2
      000006E9H   PUBLIC    EDATA    CHAR      Barrier_Flag3
      000006EAH   PUBLIC    EDATA    FLOAT     Circle_Flag1
      000006EEH   PUBLIC    EDATA    FLOAT     Circle_Flag2
      000006F2H   PUBLIC    EDATA    CHAR      Circle_Flag3
      000006F3H   PUBLIC    EDATA    CHAR      Barrier_Executed
      000006F4H   PUBLIC    EDATA    CHAR      Down_Flag
      000006F5H   PUBLIC    EDATA    FLOAT     Sum_Angle_Bar
      000006F9H   PUBLIC    EDATA    INT       circle_Delay1
      000000D0H   SFRSYM    DATA     BYTE      PSW
      000000B7H   SFRSYM    DATA     BYTE      IPH
      00000088H   SFRSYM    DATA     BYTE      TCON
      00000098H   SFRSYM    DATA     BYTE      SCON
      000000BCH   SFRSYM    DATA     BYTE      ADC_CONTR
      000000DEH   SFRSYM    DATA     BYTE      ADCCFG
      000000B8H   SFRSYM    DATA     BYTE      IP
      000000A8H   SFRSYM    DATA     BYTE      IE
      000000F8H   SFRSYM    DATA     BYTE      P7
      000000E8H   SFRSYM    DATA     BYTE      P6
      000000C8H   SFRSYM    DATA     BYTE      P5
      000000C0H   SFRSYM    DATA     BYTE      P4
      000000B0H   SFRSYM    DATA     BYTE      P3
      000000A0H   SFRSYM    DATA     BYTE      P2
      00000090H   SFRSYM    DATA     BYTE      P1
      00000080H   SFRSYM    DATA     BYTE      P0

      00FF6443H   BLOCK     CODE     ---       LVL=0
      DR28        REGSYM    ---      FLOAT     Angle
      00FF6445H   BLOCK     CODE     NEAR LAB  LVL=1
      000006FBH   SYMBOL    EDATA    CHAR      Elem_Over
      ---         BLOCKEND  ---      ---       LVL=1
      00FF6443H   LINE      CODE     ---       #31
      00FF6445H   LINE      CODE     ---       #32
      00FF6445H   LINE      CODE     ---       #34
      00FF6450H   LINE      CODE     ---       #35
      00FF645BH   LINE      CODE     ---       #36
      00FF6468H   LINE      CODE     ---       #38
      00FF646EH   LINE      CODE     ---       #39
      00FF6474H   LINE      CODE     ---       #41
      00FF647AH   LINE      CODE     ---       #42
      00FF6483H   LINE      CODE     ---       #43
      00FF6483H   LINE      CODE     ---       #46
      ---         BLOCKEND  ---      ---       LVL=0
      000006FCH   SYMBOL    EDATA    FLOAT     Barrier_Timer

      00FF4A4EH   BLOCK     CODE     ---       LVL=0
      DR28        REGSYM    ---      FLOAT     Gyro_Z
      DR24        REGSYM    ---      FLOAT     Speed
      00FF4A4EH   LINE      CODE     ---       #105
      00FF4A50H   LINE      CODE     ---       #107
      00FF4A64H   LINE      CODE     ---       #110
      00FF4A6BH   LINE      CODE     ---       #112
      00FF4A83H   LINE      CODE     ---       #113
      00FF4A90H   LINE      CODE     ---       #114
      00FF4A9CH   LINE      CODE     ---       #116
      00FF4A9CH   LINE      CODE     ---       #117
      00FF4ABCH   LINE      CODE     ---       #119
      00FF4AC1H   LINE      CODE     ---       #120
L251 LINKER/LOCATER V4.66.93.0                                                        07/12/2024  21:17:14  PAGE 100


      00FF4AC7H   LINE      CODE     ---       #121
      00FF4AC7H   LINE      CODE     ---       #122
      00FF4ACEH   LINE      CODE     ---       #124
      00FF4AE4H   LINE      CODE     ---       #125
      00FF4AF1H   LINE      CODE     ---       #126
      00FF4B11H   LINE      CODE     ---       #128
      00FF4B17H   LINE      CODE     ---       #129
      00FF4B19H   LINE      CODE     ---       #131
      00FF4B25H   LINE      CODE     ---       #132
      00FF4B25H   LINE      CODE     ---       #133
      00FF4B2CH   LINE      CODE     ---       #135
      00FF4B32H   LINE      CODE     ---       #136
      00FF4B36H   LINE      CODE     ---       #137
      00FF4B3BH   LINE      CODE     ---       #138
      00FF4B3FH   LINE      CODE     ---       #139
      00FF4B45H   LINE      CODE     ---       #141
      00FF4B4AH   LINE      CODE     ---       #142
      ---         BLOCKEND  ---      ---       LVL=0

      00FF3F58H   BLOCK     CODE     ---       LVL=0
      DR24        REGSYM    ---      FLOAT     Speed
      DR28        REGSYM    ---      FLOAT     Gyro_Z
      00FF3F5EH   BLOCK     CODE     NEAR LAB  LVL=1
      00000700H   SYMBOL    EDATA    CHAR      Elem_Over
      00000701H   SYMBOL    EDATA    FLOAT     Sum_Dis1
      00000705H   SYMBOL    EDATA    FLOAT     Sum_Angle_C1
      ---         BLOCKEND  ---      ---       LVL=1
      00FF3F58H   LINE      CODE     ---       #180
      00FF3F5EH   LINE      CODE     ---       #181
      00FF3F5EH   LINE      CODE     ---       #185
      00FF3F68H   LINE      CODE     ---       #187
      00FF3F6EH   LINE      CODE     ---       #188
      00FF3F72H   LINE      CODE     ---       #189
      00FF3F7BH   LINE      CODE     ---       #190
      00FF3F8CH   LINE      CODE     ---       #191
      00FF3F91H   LINE      CODE     ---       #192
      00FF3FA4H   LINE      CODE     ---       #193
      00FF3FACH   LINE      CODE     ---       #194
      00FF3FAFH   LINE      CODE     ---       #195
      00FF3FAFH   LINE      CODE     ---       #197
      00FF3FC3H   LINE      CODE     ---       #199
      00FF3FD9H   LINE      CODE     ---       #200
      00FF3FEFH   LINE      CODE     ---       #202
      00FF4007H   LINE      CODE     ---       #204
      00FF4030H   LINE      CODE     ---       #206
      00FF4034H   LINE      CODE     ---       #207
      00FF4034H   LINE      CODE     ---       #208
      00FF4036H   LINE      CODE     ---       #209
      00FF4059H   LINE      CODE     ---       #211
      00FF4063H   LINE      CODE     ---       #212
      00FF406BH   LINE      CODE     ---       #213
      00FF406BH   LINE      CODE     ---       #215
      00FF4078H   LINE      CODE     ---       #217
      00FF4092H   LINE      CODE     ---       #219
      00FF409AH   LINE      CODE     ---       #220
      00FF409CH   LINE      CODE     ---       #221
      00FF40B6H   LINE      CODE     ---       #223
      00FF40C2H   LINE      CODE     ---       #224
      00FF40C4H   LINE      CODE     ---       #227
      00FF40CFH   LINE      CODE     ---       #229
      00FF40EDH   LINE      CODE     ---       #231
      00FF4118H   LINE      CODE     ---       #233
      00FF4120H   LINE      CODE     ---       #234
      00FF4126H   LINE      CODE     ---       #235
      00FF412AH   LINE      CODE     ---       #236
L251 LINKER/LOCATER V4.66.93.0                                                        07/12/2024  21:17:14  PAGE 101


      00FF412EH   LINE      CODE     ---       #237
      00FF4134H   LINE      CODE     ---       #239
      00FF413AH   LINE      CODE     ---       #240
      00FF4143H   LINE      CODE     ---       #241
      00FF4143H   LINE      CODE     ---       #243
      00FF4143H   LINE      CODE     ---       #244
      00FF4145H   LINE      CODE     ---       #247
      00FF414BH   LINE      CODE     ---       #248
      00FF414FH   LINE      CODE     ---       #249
      00FF4153H   LINE      CODE     ---       #250
      00FF4153H   LINE      CODE     ---       #251
      ---         BLOCKEND  ---      ---       LVL=0

      ---         MODULE    ---      ---       Buzzer
      00FF6B81H   PUBLIC    CODE     ---       Buzzer_Init
      00000764H   PUBLIC    EDATA    WORD      x10_ms
      000000D0H   SFRSYM    DATA     BYTE      PSW
      000000B7H   SFRSYM    DATA     BYTE      IPH
      00000088H   SFRSYM    DATA     BYTE      TCON
      00000098H   SFRSYM    DATA     BYTE      SCON
      000000BCH   SFRSYM    DATA     BYTE      ADC_CONTR
      000000DEH   SFRSYM    DATA     BYTE      ADCCFG
      000000B8H   SFRSYM    DATA     BYTE      IP
      000000A8H   SFRSYM    DATA     BYTE      IE
      000000F8H   SFRSYM    DATA     BYTE      P7
      000000E8H   SFRSYM    DATA     BYTE      P6
      000000C8H   SFRSYM    DATA     BYTE      P5
      000000C0H   SFRSYM    DATA     BYTE      P4
      000000B0H   SFRSYM    DATA     BYTE      P3
      000000A0H   SFRSYM    DATA     BYTE      P2
      00000090H   SFRSYM    DATA     BYTE      P1
      00000080H   SFRSYM    DATA     BYTE      P0

      00FF6B81H   BLOCK     CODE     ---       LVL=0
      00FF6B81H   LINE      CODE     ---       #12
      00FF6B81H   LINE      CODE     ---       #14
      ---         BLOCKEND  ---      ---       LVL=0

      ---         MODULE    ---      ---       Key
      00FF6966H   PUBLIC    CODE     ---       Key_Init
      00FF5C6FH   PUBLIC    CODE     ---       GetKey_Value
      0000075FH   PUBLIC    EDATA    CHAR      Mode
      00000760H   PUBLIC    EDATA    CHAR      clear_Num
      000000D0H   SFRSYM    DATA     BYTE      PSW
      000000B7H   SFRSYM    DATA     BYTE      IPH
      000000F8H.3 SFRSYM    DATA     BIT       P73
      000000F8H.2 SFRSYM    DATA     BIT       P72
      000000F8H.1 SFRSYM    DATA     BIT       P71
      000000F8H.0 SFRSYM    DATA     BIT       P70
      00000088H   SFRSYM    DATA     BYTE      TCON
      00000098H   SFRSYM    DATA     BYTE      SCON
      000000BCH   SFRSYM    DATA     BYTE      ADC_CONTR
      000000DEH   SFRSYM    DATA     BYTE      ADCCFG
      000000B8H   SFRSYM    DATA     BYTE      IP
      000000A8H   SFRSYM    DATA     BYTE      IE
      000000F8H   SFRSYM    DATA     BYTE      P7
      000000E8H   SFRSYM    DATA     BYTE      P6
      000000C8H   SFRSYM    DATA     BYTE      P5
      000000C0H   SFRSYM    DATA     BYTE      P4
      000000B0H   SFRSYM    DATA     BYTE      P3
      000000A0H   SFRSYM    DATA     BYTE      P2
      00000090H   SFRSYM    DATA     BYTE      P1
      00000080H   SFRSYM    DATA     BYTE      P0

      00FF6966H   BLOCK     CODE     ---       LVL=0
L251 LINKER/LOCATER V4.66.93.0                                                        07/12/2024  21:17:14  PAGE 102


      00FF6966H   LINE      CODE     ---       #12
      00FF6966H   LINE      CODE     ---       #15
      00FF696FH   LINE      CODE     ---       #16
      00FF6978H   LINE      CODE     ---       #17
      00FF6981H   LINE      CODE     ---       #18
      ---         BLOCKEND  ---      ---       LVL=0

      00FF5C6FH   BLOCK     CODE     ---       LVL=0
      R7          REGSYM    ---      BYTE      mode
      00FF5C71H   BLOCK     CODE     NEAR LAB  LVL=1
      00000761H   SYMBOL    EDATA    BYTE      key_up
      ---         BLOCKEND  ---      ---       LVL=1
      00FF5C6FH   LINE      CODE     ---       #30
      00FF5C71H   LINE      CODE     ---       #31
      00FF5C71H   LINE      CODE     ---       #33
      00FF5C75H   LINE      CODE     ---       #34
      00FF5C7BH   LINE      CODE     ---       #35
      00FF5C99H   LINE      CODE     ---       #38
      00FF5C9EH   LINE      CODE     ---       #39
      00FF5CA6H   LINE      CODE     ---       #40
      00FF5CAFH   LINE      CODE     ---       #41
      00FF5CB8H   LINE      CODE     ---       #42
      00FF5CC1H   LINE      CODE     ---       #43
      00FF5CC1H   LINE      CODE     ---       #44
      00FF5CDDH   LINE      CODE     ---       #45
      00FF5CE3H   LINE      CODE     ---       #46
      00FF5CE4H   LINE      CODE     ---       #47
      ---         BLOCKEND  ---      ---       LVL=0

      ---         MODULE    ---      ---       UI
      00FF6C8BH   PUBLIC    CODE     ---       ui_show
      00FF6401H   PUBLIC    CODE     ---       oled_all_static_state
      00FF4D3FH   PUBLIC    CODE     ---       value_name_init
      00FF637CH   PUBLIC    CODE     ---       oled_show
      00FF56ADH   PUBLIC    CODE     ---       refresh_value
      00FF6C53H   PUBLIC    CODE     ---       ui_init
      00000008H   PUBLIC    EDATA    CHAR      page
      00000009H   PUBLIC    EDATA    ---       value
      00000079H   PUBLIC    EDATA    ---       value_name
      000000D0H   SFRSYM    DATA     BYTE      PSW
      000000B7H   SFRSYM    DATA     BYTE      IPH
      00000088H   SFRSYM    DATA     BYTE      TCON
      00000098H   SFRSYM    DATA     BYTE      SCON
      000000BCH   SFRSYM    DATA     BYTE      ADC_CONTR
      000000DEH   SFRSYM    DATA     BYTE      ADCCFG
      000000B8H   SFRSYM    DATA     BYTE      IP
      000000A8H   SFRSYM    DATA     BYTE      IE
      000000F8H   SFRSYM    DATA     BYTE      P7
      000000E8H   SFRSYM    DATA     BYTE      P6
      000000C8H   SFRSYM    DATA     BYTE      P5
      000000C0H   SFRSYM    DATA     BYTE      P4
      000000B0H   SFRSYM    DATA     BYTE      P3
      000000A0H   SFRSYM    DATA     BYTE      P2
      00000090H   SFRSYM    DATA     BYTE      P1
      00000080H   SFRSYM    DATA     BYTE      P0

      00FF4D3FH   BLOCK     CODE     ---       LVL=0
      00FF4D3FH   LINE      CODE     ---       #22
      00FF4D3FH   LINE      CODE     ---       #25
      00FF4D4EH   LINE      CODE     ---       #26
      00FF4D5DH   LINE      CODE     ---       #27
      00FF4D6CH   LINE      CODE     ---       #28
      00FF4D7BH   LINE      CODE     ---       #32
      00FF4D8AH   LINE      CODE     ---       #33
      00FF4D99H   LINE      CODE     ---       #34
L251 LINKER/LOCATER V4.66.93.0                                                        07/12/2024  21:17:14  PAGE 103


      00FF4DA8H   LINE      CODE     ---       #35
      00FF4DB7H   LINE      CODE     ---       #39
      00FF4DC6H   LINE      CODE     ---       #40
      00FF4DD5H   LINE      CODE     ---       #41
      00FF4DE4H   LINE      CODE     ---       #42
      00FF4DF3H   LINE      CODE     ---       #45
      00FF4E02H   LINE      CODE     ---       #46
      00FF4E11H   LINE      CODE     ---       #47
      00FF4E20H   LINE      CODE     ---       #48
      ---         BLOCKEND  ---      ---       LVL=0

      00FF56ADH   BLOCK     CODE     ---       LVL=0
      00FF56ADH   LINE      CODE     ---       #52
      00FF56ADH   LINE      CODE     ---       #55
      00FF56B5H   LINE      CODE     ---       #57
      00FF56BDH   LINE      CODE     ---       #58
      00FF56C5H   LINE      CODE     ---       #59
      00FF56CDH   LINE      CODE     ---       #60
      00FF56D5H   LINE      CODE     ---       #61
      00FF56D6H   LINE      CODE     ---       #62
      00FF56DAH   LINE      CODE     ---       #65
      00FF56E2H   LINE      CODE     ---       #66
      00FF56EAH   LINE      CODE     ---       #67
      00FF56F2H   LINE      CODE     ---       #68
      00FF56FAH   LINE      CODE     ---       #69
      00FF56FBH   LINE      CODE     ---       #70
      00FF56FFH   LINE      CODE     ---       #73
      00FF5707H   LINE      CODE     ---       #74
      00FF570FH   LINE      CODE     ---       #75
      00FF5717H   LINE      CODE     ---       #76
      00FF5724H   LINE      CODE     ---       #77
      00FF5725H   LINE      CODE     ---       #78
      00FF5729H   LINE      CODE     ---       #81
      00FF5731H   LINE      CODE     ---       #82
      00FF5739H   LINE      CODE     ---       #83
      00FF5741H   LINE      CODE     ---       #84
      00FF5747H   LINE      CODE     ---       #85
      ---         BLOCKEND  ---      ---       LVL=0
      WR30        REGSYM    ---      INT       pages
      WR8         REGSYM    ---      INT       y
      DR24        REGSYM    ---      FLOAT     value_new

      00FF6401H   BLOCK     CODE     ---       LVL=0
      00FF6403H   BLOCK     CODE     NEAR LAB  LVL=1
      R14         REGSYM    ---      BYTE      i
      R15         REGSYM    ---      BYTE      j
      ---         BLOCKEND  ---      ---       LVL=1
      00FF6401H   LINE      CODE     ---       #96
      00FF6403H   LINE      CODE     ---       #97
      00FF6403H   LINE      CODE     ---       #105
      00FF6405H   LINE      CODE     ---       #107
      00FF640BH   LINE      CODE     ---       #108
      00FF642AH   LINE      CODE     ---       #109
      00FF6439H   LINE      CODE     ---       #110
      00FF6440H   LINE      CODE     ---       #111
      ---         BLOCKEND  ---      ---       LVL=0

      00FF637CH   BLOCK     CODE     ---       LVL=0
      00FF637EH   BLOCK     CODE     NEAR LAB  LVL=1
      R14         REGSYM    ---      BYTE      i
      R15         REGSYM    ---      BYTE      j
      ---         BLOCKEND  ---      ---       LVL=1
      00FF637CH   LINE      CODE     ---       #114
      00FF637EH   LINE      CODE     ---       #115
      00FF637EH   LINE      CODE     ---       #117
L251 LINKER/LOCATER V4.66.93.0                                                        07/12/2024  21:17:14  PAGE 104


      00FF6381H   LINE      CODE     ---       #118
      00FF6383H   LINE      CODE     ---       #120
      00FF6389H   LINE      CODE     ---       #121
      00FF63B5H   LINE      CODE     ---       #122
      00FF63BCH   LINE      CODE     ---       #123
      ---         BLOCKEND  ---      ---       LVL=0

      00FF6C53H   BLOCK     CODE     ---       LVL=0
      00FF6C53H   LINE      CODE     ---       #126
      00FF6C53H   LINE      CODE     ---       #128
      00FF6C56H   LINE      CODE     ---       #129
      00FF6C59H   LINE      CODE     ---       #130
      ---         BLOCKEND  ---      ---       LVL=0

      00FF6C8BH   BLOCK     CODE     ---       LVL=0
      00FF6C8BH   LINE      CODE     ---       #133
      00FF6C8BH   LINE      CODE     ---       #135
      00FF6C8EH   LINE      CODE     ---       #136
      ---         BLOCKEND  ---      ---       LVL=0

      ---         MODULE    ---      ---       HCSR04
      0000071DH   PUBLIC    EDATA    INT       time
      000000D0H   SFRSYM    DATA     BYTE      PSW
      000000B7H   SFRSYM    DATA     BYTE      IPH
      000000B0H.3 SFRSYM    DATA     BIT       P33
      00000088H   SFRSYM    DATA     BYTE      TCON
      000000B0H.2 SFRSYM    DATA     BIT       P32
      00000098H   SFRSYM    DATA     BYTE      SCON
      000000BCH   SFRSYM    DATA     BYTE      ADC_CONTR
      000000DEH   SFRSYM    DATA     BYTE      ADCCFG
      000000B8H   SFRSYM    DATA     BYTE      IP
      000000A8H   SFRSYM    DATA     BYTE      IE
      000000F8H   SFRSYM    DATA     BYTE      P7
      000000E8H   SFRSYM    DATA     BYTE      P6
      000000C8H   SFRSYM    DATA     BYTE      P5
      000000C0H   SFRSYM    DATA     BYTE      P4
      000000B0H   SFRSYM    DATA     BYTE      P3
      000000A0H   SFRSYM    DATA     BYTE      P2
      00000090H   SFRSYM    DATA     BYTE      P1
      00000080H   SFRSYM    DATA     BYTE      P0
      0000071FH   SYMBOL    EDATA    FLOAT     Distance_mm
      00000723H   SYMBOL    EDATA    FLOAT     time_end
      00000727H   SYMBOL    EDATA    INT       i
      00000729H   SYMBOL    EDATA    INT       j

      ---         MODULE    ---      ---       ?C?FPADD
      00FF0EB4H   PUBLIC    CODE     ---       ?C?FPADD
      00FF0EB1H   PUBLIC    CODE     ---       ?C?FPSUB

      ---         MODULE    ---      ---       ?C?FPMUL
      00FF0F6CH   PUBLIC    CODE     ---       ?C?FPMUL

      ---         MODULE    ---      ---       ?C?FPDIV
      00FF100CH   PUBLIC    CODE     ---       ?C?FPDIV

      ---         MODULE    ---      ---       ?C?FPCMP
      00FF108FH   PUBLIC    CODE     ---       ?C?FPCMP
      00FF108DH   PUBLIC    CODE     ---       ?C?FPCMP3

      ---         MODULE    ---      ---       ?C?FPNEG
      00FF10D3H   PUBLIC    CODE     ---       ?C?FPNEG

      ---         MODULE    ---      ---       ?C?FCAST
      00FF10EBH   PUBLIC    CODE     NEAR LAB  ?C?FCASTC
      00FF10E6H   PUBLIC    CODE     NEAR LAB  ?C?FCASTI
L251 LINKER/LOCATER V4.66.93.0                                                        07/12/2024  21:17:14  PAGE 105


      00FF10E1H   PUBLIC    CODE     NEAR LAB  ?C?FCASTL

      ---         MODULE    ---      ---       ?C?CASTF
      00FF111EH   PUBLIC    CODE     NEAR LAB  ?C?CASTF

      ---         MODULE    ---      ---       PRINTF
      00000440H   PUBLIC    EDATA    ---       ?PRINTF?BYTE
      00FF115BH   PUBLIC    CODE     NEAR LAB  PRINTF

      ---         MODULE    ---      ---       SQRT?_
      00FF1187H   PUBLIC    CODE     ---       SQRT?_

      ---         MODULE    ---      ---       ASIN?_
      00FF1217H   PUBLIC    CODE     ---       ASIN?_

      ---         MODULE    ---      ---       atan2
      00FF62F3H   PUBLIC    CODE     ---       atan2?_

      ---         MODULE    ---      ---       ?C?FPGETOPN
      00FF1237H   PUBLIC    CODE     ---       ?C?FPGETOPN2
      00FF1274H   PUBLIC    CODE     ---       ?C?FPNANRESULT
      00FF127CH   PUBLIC    CODE     ---       ?C?FPOVERFLOW
      00FF1250H   PUBLIC    CODE     ---       ?C?FPRESULT
      00FF1266H   PUBLIC    CODE     ---       ?C?FPRESULT2
      00FF1279H   PUBLIC    CODE     ---       ?C?FPUNDERFLOW

      ---         MODULE    ---      ---       ?C?PRNFMT
      00FF12B5H   PUBLIC    CODE     ---       ?C?PRNFMT

      ---         MODULE    ---      ---       ATAN?_
      00FF16E4H   PUBLIC    CODE     ---       ATAN?_

      ---         MODULE    ---      ---       ?C?FPCONVERT
      00FF17C4H   PUBLIC    CODE     ---       ?C?FPCONVERT
      00FF187CH   PUBLIC    CODE     ---       ?C?FPROUND

      ---         MODULE    ---      ---       ?C?FPSERIES
      00FF18BFH   PUBLIC    CODE     ---       ?C?FP2SERIES
      00FF18C8H   PUBLIC    CODE     ---       ?C?FPSERIES

      ---         MODULE    ---      ---       ?C?FTNPWR
      00FF191CH   PUBLIC    CODE     ---       ?C?FTNPWR

      ---         MODULE    ---      ---       ?C_START
      00FF0000H   PUBLIC    CODE     ---       ?C?STARTUP
      00FF0000H   PUBLIC    CODE     ---       ?C_STARTUP

      ---         MODULE    ---      ---       ?C?INITEDATA
      00FF6497H   PUBLIC    CODE     ---       ?C?INITEDATA

      ---         MODULE    ---      ---       ?C?SIDIV
      00FF1953H   PUBLIC    CODE     ---       ?C?SIDIV

      ---         MODULE    ---      ---       ?C?LMUL
      00FF1985H   PUBLIC    CODE     ---       ?C?LMUL

      ---         MODULE    ---      ---       ?C?LIMUL
      00FF1996H   PUBLIC    CODE     ---       ?C?LIMUL

      ---         MODULE    ---      ---       ?C?ULDIV
      00FF19A1H   PUBLIC    CODE     NEAR LAB  ?C?ULDIV
      00FF199FH   PUBLIC    CODE     NEAR LAB  ?C?ULIDIV

      ---         MODULE    ---      ---       ?C?SLDIV
      00FF19F2H   PUBLIC    CODE     NEAR LAB  ?C?SLDIV
L251 LINKER/LOCATER V4.66.93.0                                                        07/12/2024  21:17:14  PAGE 106



      ---         MODULE    ---      ---       ABS
      00FF6BA2H   PUBLIC    CODE     ---       abs?_

      ---         MODULE    ---      ---       STRCPY?_
      00FF6B28H   PUBLIC    CODE     NEAR LAB  STRCPY?_

      ---         MODULE    ---      ---       memcpy
      00FF6941H   PUBLIC    CODE     ---       memcpy?_

      ---         MODULE    ---      ---       memset
      00FF6A6EH   PUBLIC    CODE     ---       memset?_

      ---         MODULE    ---      ---       ?C?INITEDATA_END
      00FF6E4BH   PUBLIC    HCONST   WORD      ?C?INITEDATA_END

Program Size: data=8.0 edata+hdata=2142 xdata=0 const=726 code=27768
L251 RUN COMPLETE.  0 WARNING(S),  0 ERROR(S)
