L251 LINKER/LOCATER V4.66.93.0                                                          07/23/2024  16:57:56  PAGE 1


L251 LINKER/LOCATER V4.66.93.0, INVOKED BY:
D:\KEIL5\KEIL5_MDK\KEIL5_MDK_32\C251\BIN\L251.EXE .\Out_File\board.obj, .\Out_File\common.obj, .\Out_File\SEEKFREE_PRINT
>> F.obj, .\Out_File\zf_adc.obj, .\Out_File\zf_delay.obj, .\Out_File\zf_eeprom.obj, .\Out_File\zf_exti.obj, .\Out_File\z
>> f_gpio.obj, .\Out_File\zf_iic.obj, .\Out_File\zf_nvic.obj, .\Out_File\zf_pwm.obj, .\Out_File\zf_spi.obj, .\Out_File\z
>> f_tim.obj, .\Out_File\zf_uart.obj, .\Out_File\zf_fifo.obj, .\Out_File\SEEKFREE_18TFT.obj, .\Out_File\SEEKFREE_ABSOLUT
>> E_ENCODER.obj, .\Out_File\SEEKFREE_FONT.obj, .\Out_File\SEEKFREE_IIC.obj, .\Out_File\SEEKFREE_MPU6050.obj, .\Out_File
>> \SEEKFREE_OLED.obj, .\Out_File\SEEKFREE_AT24C02.obj, .\Out_File\SEEKFREE_BLUETOOTH_CH9141.obj, .\Out_File\SEEKFREE_IC
>> M20602.obj, .\Out_File\SEEKFREE_IPS114_SPI.obj, .\Out_File\SEEKFREE_TSL1401.obj, .\Out_File\SEEKFREE_VIRSCO.obj, .\Ou
>> t_File\SEEKFREE_WIRELESS.obj, .\Out_File\SEEKFREE_WIRELESS_CH573.obj, .\Out_File\isr.obj, .\Out_File\main.obj, .\Out_
>> File\motor.obj, .\Out_File\ADC.obj, .\Out_File\PID.obj, .\Out_File\MPU6050.obj, .\Out_File\TOF.obj, .\Out_File\Elemen
>> t.obj, .\Out_File\Buzzer.obj, .\Out_File\Key.obj, .\Out_File\UI.obj, .\Out_File\HCSR04.obj TO .\Out_File\SEEKFREE PRI
>> NT (.\Out_File\SEEKFREE.map) CASE DISABLEWARNING (16, 57) REMOVEUNUSED CLASSES (EDATA (0X0-0XFFF), HDATA (0X0-0XFFF))
>> 


CPU MODE:     251 SOURCE MODE
INTR FRAME:   2 BYTES SAVED ON INTERRUPT
MEMORY MODEL: XSMALL WITH FLOATING POINT ARITHMETIC


INPUT MODULES INCLUDED:
  .\Out_File\board.obj (board)
         COMMENT TYPE 0: C251 V5.60.0
  .\Out_File\common.obj (common)
         COMMENT TYPE 0: C251 V5.60.0
  .\Out_File\SEEKFREE_PRINTF.obj (SEEKFREE_PRINTF)
         COMMENT TYPE 0: C251 V5.60.0
  .\Out_File\zf_adc.obj (zf_adc)
         COMMENT TYPE 0: C251 V5.60.0
  .\Out_File\zf_delay.obj (zf_delay)
         COMMENT TYPE 0: C251 V5.60.0
  .\Out_File\zf_eeprom.obj (zf_eeprom)
         COMMENT TYPE 0: C251 V5.60.0
  .\Out_File\zf_exti.obj (zf_exti)
         COMMENT TYPE 0: C251 V5.60.0
  .\Out_File\zf_gpio.obj (zf_gpio)
         COMMENT TYPE 0: C251 V5.60.0
  .\Out_File\zf_iic.obj (zf_iic)
         COMMENT TYPE 0: C251 V5.60.0
  .\Out_File\zf_nvic.obj (zf_nvic)
         COMMENT TYPE 0: C251 V5.60.0
  .\Out_File\zf_pwm.obj (zf_pwm)
         COMMENT TYPE 0: C251 V5.60.0
  .\Out_File\zf_spi.obj (zf_spi)
         COMMENT TYPE 0: C251 V5.60.0
  .\Out_File\zf_tim.obj (zf_tim)
         COMMENT TYPE 0: C251 V5.60.0
  .\Out_File\zf_uart.obj (zf_uart)
         COMMENT TYPE 0: C251 V5.60.0
  .\Out_File\zf_fifo.obj (zf_fifo)
         COMMENT TYPE 0: C251 V5.60.0
  .\Out_File\SEEKFREE_18TFT.obj (SEEKFREE_18TFT)
         COMMENT TYPE 0: C251 V5.60.0
  .\Out_File\SEEKFREE_ABSOLUTE_ENCODER.obj (SEEKFREE_ABSOLUTE_ENCODER)
         COMMENT TYPE 0: C251 V5.60.0
  .\Out_File\SEEKFREE_FONT.obj (SEEKFREE_FONT)
         COMMENT TYPE 0: C251 V5.60.0
  .\Out_File\SEEKFREE_IIC.obj (SEEKFREE_IIC)
         COMMENT TYPE 0: C251 V5.60.0
  .\Out_File\SEEKFREE_MPU6050.obj (SEEKFREE_MPU6050)
         COMMENT TYPE 0: C251 V5.60.0
  .\Out_File\SEEKFREE_OLED.obj (SEEKFREE_OLED)
         COMMENT TYPE 0: C251 V5.60.0
  .\Out_File\SEEKFREE_AT24C02.obj (SEEKFREE_AT24C02)
         COMMENT TYPE 0: C251 V5.60.0
  .\Out_File\SEEKFREE_BLUETOOTH_CH9141.obj (SEEKFREE_BLUETOOTH_CH9141)
L251 LINKER/LOCATER V4.66.93.0                                                        07/23/2024  16:57:56  PAGE 2


         COMMENT TYPE 0: C251 V5.60.0
  .\Out_File\SEEKFREE_ICM20602.obj (SEEKFREE_ICM20602)
         COMMENT TYPE 0: C251 V5.60.0
  .\Out_File\SEEKFREE_IPS114_SPI.obj (SEEKFREE_IPS114_SPI)
         COMMENT TYPE 0: C251 V5.60.0
  .\Out_File\SEEKFREE_TSL1401.obj (SEEKFREE_TSL1401)
         COMMENT TYPE 0: C251 V5.60.0
  .\Out_File\SEEKFREE_VIRSCO.obj (SEEKFREE_VIRSCO)
         COMMENT TYPE 0: C251 V5.60.0
  .\Out_File\SEEKFREE_WIRELESS.obj (SEEKFREE_WIRELESS)
         COMMENT TYPE 0: C251 V5.60.0
  .\Out_File\SEEKFREE_WIRELESS_CH573.obj (SEEKFREE_WIRELESS_CH573)
         COMMENT TYPE 0: C251 V5.60.0
  .\Out_File\isr.obj (isr)
         COMMENT TYPE 0: C251 V5.60.0
  .\Out_File\main.obj (main)
         COMMENT TYPE 0: C251 V5.60.0
  .\Out_File\motor.obj (motor)
         COMMENT TYPE 0: C251 V5.60.0
  .\Out_File\ADC.obj (ADC)
         COMMENT TYPE 0: C251 V5.60.0
  .\Out_File\PID.obj (PID)
         COMMENT TYPE 0: C251 V5.60.0
  .\Out_File\MPU6050.obj (MPU6050)
         COMMENT TYPE 0: C251 V5.60.0
  .\Out_File\TOF.obj (TOF)
         COMMENT TYPE 0: C251 V5.60.0
  .\Out_File\Element.obj (Element)
         COMMENT TYPE 0: C251 V5.60.0
  .\Out_File\Buzzer.obj (Buzzer)
         COMMENT TYPE 0: C251 V5.60.0
  .\Out_File\Key.obj (Key)
         COMMENT TYPE 0: C251 V5.60.0
  .\Out_File\UI.obj (UI)
         COMMENT TYPE 0: C251 V5.60.0
  .\Out_File\HCSR04.obj (HCSR04)
         COMMENT TYPE 0: C251 V5.60.0
  D:\KEIL5\KEIL5_MDK\KEIL5_MDK_32\C251\LIB\C2SFPXS.LIB (?C?FPADD)
         COMMENT TYPE 0: A251 V4.69.6.0
  D:\KEIL5\KEIL5_MDK\KEIL5_MDK_32\C251\LIB\C2SFPXS.LIB (?C?FPMUL)
         COMMENT TYPE 0: A251 V4.69.6.0
  D:\KEIL5\KEIL5_MDK\KEIL5_MDK_32\C251\LIB\C2SFPXS.LIB (?C?FPDIV)
         COMMENT TYPE 0: A251 V4.69.6.0
  D:\KEIL5\KEIL5_MDK\KEIL5_MDK_32\C251\LIB\C2SFPXS.LIB (?C?FPCMP)
         COMMENT TYPE 0: A251 V4.69.6.0
  D:\KEIL5\KEIL5_MDK\KEIL5_MDK_32\C251\LIB\C2SFPXS.LIB (?C?FPNEG)
         COMMENT TYPE 0: A251 V4.69.6.0
  D:\KEIL5\KEIL5_MDK\KEIL5_MDK_32\C251\LIB\C2SFPXS.LIB (?C?FCAST)
         COMMENT TYPE 0: A251 V4.69.6.0
  D:\KEIL5\KEIL5_MDK\KEIL5_MDK_32\C251\LIB\C2SFPXS.LIB (?C?CASTF)
         COMMENT TYPE 0: A251 V4.69.6.0
  D:\KEIL5\KEIL5_MDK\KEIL5_MDK_32\C251\LIB\C2SFPXS.LIB (PRINTF)
         COMMENT TYPE 0: A251 V4.69.6.0
  D:\KEIL5\KEIL5_MDK\KEIL5_MDK_32\C251\LIB\C2SFPXS.LIB (SQRT?_)
         COMMENT TYPE 0: A251 V4.69.6.0
  D:\KEIL5\KEIL5_MDK\KEIL5_MDK_32\C251\LIB\C2SFPXS.LIB (ASIN?_)
         COMMENT TYPE 0: A251 V4.69.6.0
  D:\KEIL5\KEIL5_MDK\KEIL5_MDK_32\C251\LIB\C2SFPXS.LIB (atan2)
         COMMENT TYPE 0: C251 V5.58.7
  D:\KEIL5\KEIL5_MDK\KEIL5_MDK_32\C251\LIB\C2SFPXS.LIB (?C?FPGETOPN)
         COMMENT TYPE 0: A251 V4.69.6.0
  D:\KEIL5\KEIL5_MDK\KEIL5_MDK_32\C251\LIB\C2SFPXS.LIB (?C?PRNFMT)
         COMMENT TYPE 0: A251 V4.69.6.0
  D:\KEIL5\KEIL5_MDK\KEIL5_MDK_32\C251\LIB\C2SFPXS.LIB (ATAN?_)
         COMMENT TYPE 0: A251 V4.69.6.0
L251 LINKER/LOCATER V4.66.93.0                                                        07/23/2024  16:57:56  PAGE 3


  D:\KEIL5\KEIL5_MDK\KEIL5_MDK_32\C251\LIB\C2SFPXS.LIB (?C?FPCONVERT)
         COMMENT TYPE 0: A251 V4.69.6.0
  D:\KEIL5\KEIL5_MDK\KEIL5_MDK_32\C251\LIB\C2SFPXS.LIB (?C?FPSERIES)
         COMMENT TYPE 0: A251 V4.69.6.0
  D:\KEIL5\KEIL5_MDK\KEIL5_MDK_32\C251\LIB\C2SFPXS.LIB (?C?FTNPWR)
         COMMENT TYPE 0: A251 V4.69.6.0
  D:\KEIL5\KEIL5_MDK\KEIL5_MDK_32\C251\LIB\C2SXS.LIB (?C_START)
         COMMENT TYPE 0: A251 V4.69.6.0
  D:\KEIL5\KEIL5_MDK\KEIL5_MDK_32\C251\LIB\C2SXS.LIB (?C?INITEDATA)
         COMMENT TYPE 0: A251 V4.69.6.0
  D:\KEIL5\KEIL5_MDK\KEIL5_MDK_32\C251\LIB\C2SXS.LIB (?C?SIDIV)
         COMMENT TYPE 0: A251 V4.69.6.0
  D:\KEIL5\KEIL5_MDK\KEIL5_MDK_32\C251\LIB\C2SXS.LIB (?C?LMUL)
         COMMENT TYPE 0: A251 V4.69.6.0
  D:\KEIL5\KEIL5_MDK\KEIL5_MDK_32\C251\LIB\C2SXS.LIB (?C?LIMUL)
         COMMENT TYPE 0: A251 V4.69.6.0
  D:\KEIL5\KEIL5_MDK\KEIL5_MDK_32\C251\LIB\C2SXS.LIB (?C?ULDIV)
         COMMENT TYPE 0: A251 V4.69.6.0
  D:\KEIL5\KEIL5_MDK\KEIL5_MDK_32\C251\LIB\C2SXS.LIB (?C?SLDIV)
         COMMENT TYPE 0: A251 V4.69.6.0
  D:\KEIL5\KEIL5_MDK\KEIL5_MDK_32\C251\LIB\C2SXS.LIB (ABS)
         COMMENT TYPE 0: C251 V5.58.7
  D:\KEIL5\KEIL5_MDK\KEIL5_MDK_32\C251\LIB\C2SXS.LIB (STRCPY?_)
         COMMENT TYPE 0: A251 V4.69.6.0
  D:\KEIL5\KEIL5_MDK\KEIL5_MDK_32\C251\LIB\C2SXS.LIB (memcpy)
         COMMENT TYPE 0: C251 V5.58.7
  D:\KEIL5\KEIL5_MDK\KEIL5_MDK_32\C251\LIB\C2SXS.LIB (memset)
         COMMENT TYPE 0: C251 V5.58.7
  D:\KEIL5\KEIL5_MDK\KEIL5_MDK_32\C251\LIB\C2SXS.LIB (?C?INITEDATA_END)
         COMMENT TYPE 0: A251 V4.69.6.0


ACTIVE MEMORY CLASSES OF MODULE:  .\Out_File\SEEKFREE (board)

BASE        START       END         USED      MEMORY CLASS
==========================================================
000000H     000000H     000FFFH     000862H   EDATA
000000H     000000H     000FFFH               HDATA
FF0000H     FF0000H     FFFFFFH     006D48H   CODE
000000H     FF0000H     FFFFFFH     0002DDH   HCONST
FF0000H     FF0000H     FFFFFFH     000004H   CONST
000000H     000000H     00007FH     000008H   DATA


MEMORY MAP OF MODULE:  .\Out_File\SEEKFREE (board)


START     STOP      LENGTH    ALIGN  RELOC    MEMORY CLASS   SEGMENT NAME
=========================================================================
000000H   000007H   000008H   ---    AT..     DATA           "REG BANK 0"
000008H   00013CH   000135H   BYTE   UNIT     EDATA          ?ED?UI
00013DH   00023DH   000101H   BYTE   UNIT     EDATA          ?ED?SEEKFREE_TSL1401
00023EH   000320H   0000E3H   BYTE   UNIT     EDATA          ?ED?PID
000321H   0003EDH   0000CDH   BYTE   UNIT     EDATA          ?ED?ZF_UART
0003EEH   000490H   0000A3H   BYTE   UNIT     EDATA          _EDATA_GROUP_
000491H   0004FBH   00006BH   BYTE   UNIT     EDATA          ?ED?MPU6050
0004FCH   000564H   000069H   BYTE   UNIT     EDATA          ?ED?ISR
000565H   0005B9H   000055H   BYTE   UNIT     EDATA          ?ED?SEEKFREE_BLUETOOTH_CH9141
0005BAH   00060EH   000055H   BYTE   UNIT     EDATA          ?ED?SEEKFREE_WIRELESS
00060FH   000663H   000055H   BYTE   UNIT     EDATA          ?ED?SEEKFREE_WIRELESS_CH573
000664H   0006B3H   000050H   BYTE   UNIT     EDATA          ?ED?ADC
0006B4H   0006E6H   000033H   BYTE   UNIT     EDATA          ?ED?MAIN
0006E7H   00070CH   000026H   BYTE   UNIT     EDATA          ?ED?ELEMENT
00070DH   000720H   000014H   BYTE   UNIT     EDATA          ?ED?MOTOR
000721H   00072EH   00000EH   BYTE   UNIT     EDATA          ?ED?HCSR04
L251 LINKER/LOCATER V4.66.93.0                                                        07/23/2024  16:57:56  PAGE 4


00072FH   00073AH   00000CH   BYTE   UNIT     EDATA          ?ED?SEEKFREE_MPU6050
00073BH   000746H   00000CH   BYTE   UNIT     EDATA          ?ED?SEEKFREE_ICM20602
000747H   000750H   00000AH   BYTE   UNIT     EDATA          ?ED?SEEKFREE_VIRSCO
000751H   000757H   000007H   BYTE   UNIT     EDATA          ?ED?SEEKFREE_IIC
000758H   00075BH   000004H   BYTE   UNIT     EDATA          ?ED?BOARD
00075CH   00075FH   000004H   BYTE   UNIT     EDATA          ?ED?ZF_DELAY
000760H   000762H   000003H   BYTE   UNIT     EDATA          ?ED?TOF
000763H   000765H   000003H   BYTE   UNIT     EDATA          ?ED?KEY
000766H   000767H   000002H   BYTE   UNIT     EDATA          ?ED?COMMON
000768H   000769H   000002H   BYTE   UNIT     EDATA          ?ED?BUZZER
00076AH   000869H   000100H   BYTE   UNIT     EDATA          ?STACK
00086AH   FEFFFFH   FEF796H   ---    ---      **GAP**
FF0000H   FF0002H   000003H   ---    OFFS..   CODE           ?CO?start251?4
FF0003H   FF0005H   000003H   ---    OFFS..   CODE           ?PR?IV?0
FF0006H   FF000AH   000005H   BYTE   INSEG    CODE           ?PR?I2C_SDA_READ?MPU6050
FF000BH   FF000DH   000003H   ---    OFFS..   CODE           ?PR?IV?1
FF000EH   FF0010H   000003H   BYTE   INSEG    CODE           ?PR?ENABLEGLOBALIRQ?BOARD
FF0011H   FF0011H   000001H   BYTE   INSEG    CODE           ?PR?INT1_ISR?ISR
FF0012H   FF0012H   000001H   BYTE   INSEG    CODE           ?PR?TM0_ISR?ISR
FF0013H   FF0015H   000003H   ---    OFFS..   CODE           ?PR?IV?2
FF0016H   FF0018H   000003H   BYTE   INSEG    CODE           ?PR?DISABLEGLOBALIRQ?BOARD
FF0019H   FF0019H   000001H   BYTE   INSEG    CODE           ?PR?TM1_ISR?ISR
FF001AH   FF001AH   000001H   ---    ---      **GAP**
FF001BH   FF001DH   000003H   ---    OFFS..   CODE           ?PR?IV?3
FF001EH   FF0020H   000003H   BYTE   INSEG    CODE           ?PR?I2C_SDA_H?MPU6050
FF0021H   FF0022H   000002H   ---    ---      **GAP**
FF0023H   FF0025H   000003H   ---    OFFS..   CODE           ?PR?IV?4
FF0026H   FF0042H   00001DH   BYTE   INSEG    CODE           ?PR?GETFIFOCOUNT?MPU6050
FF0043H   FF0045H   000003H   ---    OFFS..   CODE           ?PR?IV?8
FF0046H   FF0052H   00000DH   BYTE   INSEG    CODE           ?PR?MPU_READ_BITS?MPU6050
FF0053H   FF0055H   000003H   ---    OFFS..   CODE           ?PR?IV?10
FF0056H   FF0058H   000003H   BYTE   INSEG    CODE           ?PR?I2C_SDA_L?MPU6050
FF0059H   FF005AH   000002H   ---    ---      **GAP**
FF005BH   FF005DH   000003H   ---    OFFS..   CODE           ?PR?IV?11
FF005EH   FF0060H   000003H   BYTE   INSEG    CODE           ?PR?I2C_SCL_H?MPU6050
FF0061H   FF0062H   000002H   ---    ---      **GAP**
FF0063H   FF0065H   000003H   ---    OFFS..   CODE           ?PR?IV?12
FF0066H   FF0081H   00001CH   BYTE   INSEG    CODE           ?PR?VL53L0X_SCCB_WAITACK?TOF
FF0082H   FF0082H   000001H   ---    ---      **GAP**
FF0083H   FF0085H   000003H   ---    OFFS..   CODE           ?PR?IV?16
FF0086H   FF0088H   000003H   BYTE   INSEG    CODE           ?PR?I2C_SCL_L?MPU6050
FF0089H   FF008AH   000002H   ---    ---      **GAP**
FF008BH   FF008DH   000003H   ---    OFFS..   CODE           ?PR?IV?17
FF008EH   FF0091H   000004H   BYTE   UNIT     CONST          ?CO?PRINTF
FF0092H   FF0092H   000001H   ---    ---      **GAP**
FF0093H   FF0095H   000003H   ---    OFFS..   CODE           ?PR?IV?18
FF0096H   FF009AH   000005H   ---    ---      **GAP**
FF009BH   FF009DH   000003H   ---    OFFS..   CODE           ?PR?IV?19
FF009EH   FF00A2H   000005H   ---    ---      **GAP**
FF00A3H   FF00A5H   000003H   ---    OFFS..   CODE           ?PR?IV?20
FF00A6H   FF0EADH   000E08H   BYTE   UNIT     CODE           ?CO?SEEKFREE_FONT
FF0EAEH   FF1A25H   000B78H   BYTE   UNIT     CODE           ?C?LIB_CODE
FF1A26H   FF229DH   000878H   BYTE   UNIT     CODE           ?CO?MPU6050
FF229EH   FF289FH   000602H   BYTE   INSEG    CODE           ?PR?VL53L0X_INIT?TOF
FF28A0H   FF2D99H   0004FAH   BYTE   INSEG    CODE           ?PR?ZF_SPRINTF?SEEKFREE_PRINTF
FF2D9AH   FF31D4H   00043BH   BYTE   INSEG    CODE           ?PR?TM4_ISR?ISR
FF31D5H   FF35CBH   0003F7H   BYTE   INSEG    CODE           ?PR?GPIO_MODE?ZF_GPIO
FF35CCH   FF38AFH   0002E4H   BYTE   INSEG    CODE           ?PR?PWM_INIT?ZF_PWM
FF38B0H   FF3B50H   0002A1H   BYTE   INSEG    CODE           ?PR?PWM_SET_GPIO?ZF_PWM
FF3B51H   FF3DEAH   00029AH   BYTE   INSEG    CODE           ?PR?MPU6050_REFRESH_DMP?MPU6050
FF3DEBH   FF4016H   00022CH   BYTE   INSEG    CODE           ?PR?DMPINITIALIZE?MPU6050
FF4017H   FF4228H   000212H   BYTE   INSEG    CODE           ?PR?ELEM_CIRCLE?ELEMENT
FF4229H   FF43E7H   0001BFH   BYTE   INSEG    CODE           ?PR?UART_INIT?ZF_UART
FF43E8H   FF458EH   0001A7H   BYTE   INSEG    CODE           ?PR?MAIN?MAIN
FF458FH   FF4724H   000196H   BYTE   INSEG    CODE           ?PR?PID_INCREMENTAL_CALC?PID
L251 LINKER/LOCATER V4.66.93.0                                                        07/23/2024  16:57:56  PAGE 5


FF4725H   FF48A0H   00017CH   BYTE   INSEG    CODE           ?PR?VL53L0X_GET_SPAD_INFO?TOF
FF48A1H   FF49EBH   00014BH   BYTE   INSEG    CODE           ?PR?ADC_GETVALUE?ADC
FF49ECH   FF4B22H   000137H   BYTE   INSEG    CODE           ?PR?GET_RATIO?ISR
FF4B23H   FF4C29H   000107H   BYTE   INSEG    CODE           ?PR?ELEM_BARRIER?ELEMENT
FF4C2AH   FF4D25H   0000FCH   BYTE   INSEG    CODE           ?PR?INIT_ALL?MAIN
FF4D26H   FF4E1DH   0000F8H   BYTE   INSEG    CODE           ?PR?OLED_PRINTF_FLOAT?SEEKFREE_OLED
FF4E1EH   FF4F0DH   0000F0H   BYTE   INSEG    CODE           ?PR?VALUE_NAME_INIT?UI
FF4F0EH   FF4FF5H   0000E8H   BYTE   INSEG    CODE           ?PR?OLED_P8X16STR?SEEKFREE_OLED
FF4FF6H   FF50D9H   0000E4H   BYTE   INSEG    CODE           ?PR?VL53L0X_SET_MEASUREMENT_TIMING_BUDGET?TOF
FF50DAH   FF51B9H   0000E0H   BYTE   INSEG    CODE           ?PR?FIFO_WRITE_BUFFER?ZF_FIFO
FF51BAH   FF5294H   0000DBH   BYTE   INSEG    CODE           ?PR?VL53L0X_GET_SEQUENCE_STEP_TIMEOUTS?TOF
FF5295H   FF535AH   0000C6H   BYTE   INSEG    CODE           ?PR?GET_SPEED?MOTOR
FF535BH   FF5418H   0000BEH   BYTE   INSEG    CODE           ?PR?RIGHT_SETSPEED?MOTOR
FF5419H   FF54D6H   0000BEH   BYTE   INSEG    CODE           ?PR?LEFT_SETSPEED?MOTOR
FF54D7H   FF558EH   0000B8H   BYTE   INSEG    CODE           ?PR?PWM_DUTY?ZF_PWM
FF558FH   FF5638H   0000AAH   BYTE   INSEG    CODE           ?PR?PID_CALCULATE?PID
FF5639H   FF56DEH   0000A6H   BYTE   INSEG    CODE           ?PR?LOADCFGUPD?MPU6050
FF56DFH   FF5781H   0000A3H   BYTE   INSEG    CODE           ?PR?OLED_INIT?SEEKFREE_OLED
FF5782H   FF5817H   000096H   BYTE   INSEG    CODE           ?PR?REFRESH_VALUE?UI
FF5818H   FF58ABH   000094H   BYTE   INSEG    CODE           ?PR?PIT_TIMER_MS?ZF_TIM
FF58ACH   FF593DH   000092H   BYTE   INSEG    CODE           ?PR?NUMBER_CONVERSION_ASCII?SEEKFREE_PRINTF
FF593EH   FF59CAH   00008DH   BYTE   INSEG    CODE           ?PR?PID_INCREMENTAL_INIT?PID
FF59CBH   FF5A55H   00008BH   BYTE   INSEG    CODE           ?PR?XDMPUPDATES?MPU6050
FF5A56H   FF5AD6H   000081H   BYTE   INSEG    CODE           ?PR?BOARD_INIT?BOARD
FF5AD7H   FF5B57H   000081H   BYTE   INSEG    CODE           ?PR?LOADFIRMWARE?MPU6050
FF5B58H   FF5BD4H   00007DH   BYTE   INSEG    CODE           ?PR?I2C_WRITE_BITS?MPU6050
FF5BD5H   FF5C4EH   00007AH   BYTE   INSEG    CODE           ?PR?I2C_MEM_READ?MPU6050
FF5C4FH   FF5CC7H   000079H   BYTE   INSEG    CODE           ?PR?SPEED_GAIN?MAIN
FF5CC8H   FF5D3EH   000077H   BYTE   INSEG    CODE           ?PR?VL53L0X_PERFORM_SINGLE_REF_CALIBRATION?TOF
FF5D3FH   FF5DB4H   000076H   BYTE   INSEG    CODE           ?PR?GETKEY_VALUE?KEY
FF5DB5H   FF5E27H   000073H   BYTE   INSEG    CODE           ?PR?VL53L0X_GET_MEASUREMENT_TIMING_BUDGET?TOF
FF5E28H   FF5E94H   00006DH   BYTE   INSEG    CODE           ?PR?VL53L0X_GET_DISTANCE?TOF
FF5E95H   FF5EFFH   00006BH   BYTE   INSEG    CODE           ?PR?I2C_READ_BITS?MPU6050
FF5F00H   FF5F68H   000069H   BYTE   INSEG    CODE           ?PR?UART4_ISR?ISR
FF5F69H   FF5FC8H   000060H   BYTE   INSEG    CODE           ?PR?PID_INIT?PID
FF5FC9H   FF6027H   00005FH   BYTE   INSEG    CODE           ?PR?I2C_MEM_WRITE?MPU6050
FF6028H   FF6085H   00005EH   BYTE   INSEG    CODE           ?PR?ADC_INIT?ZF_ADC
FF6086H   FF60E1H   00005CH   BYTE   INSEG    CODE           ?PR?I2C_WRITE_BIT?MPU6050
FF60E2H   FF6139H   000058H   BYTE   INSEG    CODE           ?PR?MPU_GET_GYROSCOPE?MPU6050
FF613AH   FF6191H   000058H   BYTE   INSEG    CODE           ?PR?VL53L0X_GET_SEQUENCE_STEP_ENABLES?TOF
FF6192H   FF61E5H   000054H   BYTE   INSEG    CODE           ?PR?UART_PUTCHAR?ZF_UART
FF61E6H   FF6239H   000054H   BYTE   INSEG    CODE           ?PR?VL53L0X_SIMIIC_READ_REGS?TOF
FF623AH   FF628DH   000054H   BYTE   INSEG    CODE           ?PR?VL53L0X_SIMIIC_READ_REGS_1?TOF
FF628EH   FF62DEH   000051H   BYTE   INSEG    CODE           ?PR?CTIMER_COUNT_CLEAN?ZF_TIM
FF62DFH   FF632BH   00004DH   BYTE   INSEG    CODE           ?PR?CTIMER_COUNT_READ?ZF_TIM
FF632CH   FF6378H   00004DH   BYTE   INSEG    CODE           ?PR?VL53L0X_GET_VCSEL_PULSE_PERIOD?TOF
FF6379H   FF63C2H   00004AH   BYTE   INSEG    CODE           ?PR?CTIMER_COUNT_INIT?ZF_TIM
FF63C3H   FF6407H   000045H   BYTE   INSEG    CODE           ?PR?ATAN2?_?ATAN2
FF6408H   FF644BH   000044H   BYTE   INSEG    CODE           ?PR?MOTOR_INIT?MOTOR
FF644CH   FF648EH   000043H   BYTE   INSEG    CODE           ?PR?OLED_SHOW?UI
FF648FH   FF64D0H   000042H   BYTE   INSEG    CODE           ?PR?FIFO_HEAD_OFFSET?ZF_FIFO
FF64D1H   FF6512H   000042H   BYTE   INSEG    CODE           ?PR?OLED_ALL_STATIC_STATE?UI
FF6513H   FF6553H   000041H   BYTE   INSEG    CODE           ?PR?ELEM_UP_DOWN?ELEMENT
FF6554H   FF6566H   000013H   BYTE   UNIT     CODE           ?C_C51STARTUP
FF6567H   FF658FH   000029H   BYTE   UNIT     CODE           ?C_C51STARTUP?2
FF6590H   FF6592H   000003H   BYTE   UNIT     CODE           ?C_C51STARTUP?3
FF6593H   FF65D0H   00003EH   BYTE   INSEG    CODE           ?PR?PRINTF_REVERSE_ORDER?SEEKFREE_PRINTF
FF65D1H   FF660EH   00003EH   BYTE   INSEG    CODE           ?PR?VL53L0X_TIMEOUT_MCLKS_TO_MICROSECONDS?TOF
FF660FH   FF664BH   00003DH   BYTE   INSEG    CODE           ?PR?UART1_ISR?ISR
FF664CH   FF6687H   00003CH   BYTE   INSEG    CODE           ?PR?VL53L0X_TIMEOUT_MICROSECONDS_TO_MCLKS?TOF
FF6688H   FF66C2H   00003BH   BYTE   INSEG    CODE           ?PR?VL53L0X_READ_CH?TOF
FF66C3H   FF66FBH   000039H   BYTE   INSEG    CODE           ?PR?DELAY_INIT?ZF_DELAY
FF66FCH   FF6732H   000037H   BYTE   INSEG    CODE           ?PR?I2C_READ_BYTE?MPU6050
FF6733H   FF6767H   000035H   BYTE   INSEG    CODE           ?PR?VL53L0X_SIMIIC_WRITE_DATS?TOF
FF6768H   FF679BH   000034H   BYTE   INSEG    CODE           ?PR?VL53L0X_ENCODE_TIMEOUT?TOF
L251 LINKER/LOCATER V4.66.93.0                                                        07/23/2024  16:57:56  PAGE 6


FF679CH   FF67CEH   000033H   BYTE   INSEG    CODE           ?PR?OLED_FILL?SEEKFREE_OLED
FF67CFH   FF6801H   000033H   BYTE   INSEG    CODE           ?PR?I2C_READ_BIT?MPU6050
FF6802H   FF6834H   000033H   BYTE   INSEG    CODE           ?PR?I2C_WRITE_BYTE?MPU6050
FF6835H   FF6867H   000033H   BYTE   INSEG    CODE           ?PR?INITMPU6050?MPU6050
FF6868H   FF6895H   00002EH   BYTE   INSEG    CODE           ?PR?ADC_ONCE?ZF_ADC
FF6896H   FF68C3H   00002EH   BYTE   INSEG    CODE           ?PR?VL53L0X_SEND_CH?TOF
FF68C4H   FF68EEH   00002BH   BYTE   INSEG    CODE           ?PR?FILTER_WINDOW?MAIN
FF68EFH   FF6919H   00002BH   BYTE   INSEG    CODE           ?PR?LIMIT_OUT?MOTOR
FF691AH   FF6944H   00002BH   BYTE   INSEG    CODE           ?PR?ADC_INITALL?ADC
FF6945H   FF696EH   00002AH   BYTE   INSEG    CODE           ?PR?I2C_WAIT_ACK?MPU6050
FF696FH   FF6997H   000029H   BYTE   INSEG    CODE           ?PR?OLED_WRCMD?SEEKFREE_OLED
FF6998H   FF69C0H   000029H   BYTE   INSEG    CODE           ?PR?OLED_WRDAT?SEEKFREE_OLED
FF69C1H   FF69E9H   000029H   BYTE   INSEG    CODE           ?PR?VL53L0X_SIMIIC_READ_REG?TOF
FF69EAH   FF6A10H   000027H   BYTE   INSEG    CODE           ?PR?VL53L0X_SET_SIGNAL_RATE_LIMIT?TOF
FF6A11H   FF6A35H   000025H   BYTE   INSEG    CODE           ?PR?MEMCPY?_?MEMCPY
FF6A36H   FF6A59H   000024H   BYTE   INSEG    CODE           ?PR?KEY_INIT?KEY
FF6A5AH   FF6A7CH   000023H   BYTE   INSEG    CODE           ?PR?OLED_SET_POS?SEEKFREE_OLED
FF6A7DH   FF6A9FH   000023H   BYTE   INSEG    CODE           ?PR?MPU6050_DMP_INIT?MPU6050
FF6AA0H   FF6AC1H   000022H   BYTE   INSEG    CODE           ?PR?VL53L0X_SIMIIC_WRITE_REG?TOF
FF6AC2H   FF6AE1H   000020H   BYTE   INSEG    CODE           ?PR?GETDEVICEID?MPU6050
FF6AE2H   FF6B01H   000020H   BYTE   INSEG    CODE           ?PR?VL53L0X_SIMIIC_SENDACK?TOF
FF6B02H   FF6B1FH   00001EH   BYTE   INSEG    CODE           ?PR?UART2_ISR?ISR
FF6B20H   FF6B3DH   00001EH   BYTE   INSEG    CODE           ?PR?UART3_ISR?ISR
FF6B3EH   FF6B57H   00001AH   BYTE   INSEG    CODE           ?PR?MEMSET?_?MEMSET
FF6B58H   FF6B70H   000019H   BYTE   INSEG    CODE           ?PR?BLUETOOTH_CH9141_UART_CALLBACK?SEEKFREE_BLUETOOTH_CH91
                                                             -41
FF6B71H   FF6B89H   000019H   BYTE   INSEG    CODE           ?PR?WIRELESS_UART_CALLBACK?SEEKFREE_WIRELESS
FF6B8AH   FF6BA2H   000019H   BYTE   INSEG    CODE           ?PR?WIRELESS_CH573_CALLBACK?SEEKFREE_WIRELESS_CH573
FF6BA3H   FF6BB9H   000017H   BYTE   INSEG    CODE           ?PR?DELAY_MS?ZF_DELAY
FF6BBAH   FF6BCEH   000015H   BYTE   INSEG    CODE           ?PR?I2C_ACK?MPU6050
FF6BCFH   FF6BE3H   000015H   BYTE   INSEG    CODE           ?PR?MPU_WRITE_BYTE?MPU6050
FF6BE4H   FF6BF7H   000014H   BYTE   INSEG    CODE           ?PR?MPU_DELAY_MS?MPU6050
FF6BF8H   FF6C0AH   000013H   BYTE   UNIT     CODE           ?PR?STRCPY?_
FF6C0BH   FF6C1CH   000012H   BYTE   INSEG    CODE           ?PR?I2C_NACK?MPU6050
FF6C1DH   FF6C2EH   000012H   BYTE   INSEG    CODE           ?PR?I2C_START?MPU6050
FF6C2FH   FF6C3FH   000011H   BYTE   INSEG    CODE           ?PR?NUM2ABS?MOTOR
FF6C40H   FF6C50H   000011H   BYTE   INSEG    CODE           ?PR?VL53L0X_SIMIIC_STOP?TOF
FF6C51H   FF6C61H   000011H   BYTE   INSEG    CODE           ?PR?BUZZER_INIT?BUZZER
FF6C62H   FF6C71H   000010H   BYTE   INSEG    CODE           ?PR?VL53L0X_DECODE_TIMEOUT?TOF
FF6C72H   FF6C81H   000010H   BYTE   INSEG    CODE           ?PR?ABS?_?ABS
FF6C82H   FF6C90H   00000FH   BYTE   INSEG    CODE           ?PR?I2C_STOP?MPU6050
FF6C91H   FF6C9FH   00000FH   BYTE   INSEG    CODE           ?PR?READDMP?MPU6050
FF6CA0H   FF6CAEH   00000FH   BYTE   INSEG    CODE           ?PR?VL53L0X_SIMIIC_START?TOF
FF6CAFH   FF6CBCH   00000EH   BYTE   INSEG    CODE           ?PR?PUTCHAR?BOARD
FF6CBDH   FF6CC9H   00000DH   BYTE   INSEG    CODE           ?PR?MPU_WRITE_BITS?MPU6050
FF6CCAH   FF6CD6H   00000DH   BYTE   INSEG    CODE           ?PR?MPU_WRITE_BIT?MPU6050
FF6CD7H   FF6CE3H   00000DH   BYTE   INSEG    CODE           ?PR?VL53L0X_SIMIIC_DELAY?TOF
FF6CE4H   FF6CEEH   00000BH   BYTE   INSEG    CODE           ?PR?MPU_READ_LEN?MPU6050
FF6CEFH   FF6CF9H   00000BH   BYTE   INSEG    CODE           ?PR?I2C_TIMEOUT_DELAY?MPU6050
FF6CFAH   FF6D04H   00000BH   BYTE   INSEG    CODE           ?PR?MPU_WRITE_LEN?MPU6050
FF6D05H   FF6D0FH   00000BH   BYTE   INSEG    CODE           ?PR?I2C_DELAY?MPU6050
FF6D10H   FF6D19H   00000AH   BYTE   INSEG    CODE           ?PR?DELAY1MS?MPU6050
FF6D1AH   FF6D22H   000009H   BYTE   INSEG    CODE           ?PR?MPU_READ_BIT?MPU6050
FF6D23H   FF6D2BH   000009H   BYTE   INSEG    CODE           ?PR?UI_INIT?UI
FF6D2CH   FF6D33H   000008H   BYTE   INSEG    CODE           ?PR?INT2_ISR?ISR
FF6D34H   FF6D3BH   000008H   BYTE   INSEG    CODE           ?PR?INT3_ISR?ISR
FF6D3CH   FF6D43H   000008H   BYTE   INSEG    CODE           ?PR?INT4_ISR?ISR
FF6D44H   FF6D4BH   000008H   BYTE   INSEG    CODE           ?PR?TM2_ISR?ISR
FF6D4CH   FF6D53H   000008H   BYTE   INSEG    CODE           ?PR?TM3_ISR?ISR
FF6D54H   FF6D5AH   000007H   BYTE   INSEG    CODE           ?PR?INT0_ISR?ISR
FF6D5BH   FF6D60H   000006H   BYTE   INSEG    CODE           ?PR?UI_SHOW?UI
FF6D61H   FF6F28H   0001C8H   BYTE   UNIT     HCONST         ?C_INITEDATA
FF6F29H   FF6F99H   000071H   BYTE   UNIT     HCONST         ?HC?UI
FF6F9AH   FF6FF1H   000058H   BYTE   UNIT     HCONST         ?HC?ZF_PWM
FF6FF2H   FF7011H   000020H   BYTE   UNIT     HCONST         ?HC?MAIN
L251 LINKER/LOCATER V4.66.93.0                                                        07/23/2024  16:57:56  PAGE 7


FF7012H   FF7027H   000016H   BYTE   UNIT     HCONST         ?HC?TOF
FF7028H   FF7031H   00000AH   BYTE   UNIT     HCONST         ?HC?SEEKFREE_OLED
FF7032H   FF7037H   000006H   BYTE   UNIT     HCONST         ?HC?SEEKFREE_18TFT
FF7038H   FF703DH   000006H   BYTE   UNIT     HCONST         ?HC?SEEKFREE_IPS114_SPI

* * * * * * * * *   R E M O V E D     S E G M E N T S   * * * * * * * *
   *DEL*:           000019H   BYTE   INSEG    CODE           ?PR?DELAY_US?ZF_DELAY
   *DEL*:           000016H   BYTE   INSEG    CODE           ?PR?IAP_SET_TPS?ZF_EEPROM
   *DEL*:           000015H   BYTE   INSEG    CODE           ?PR?EEPROM_TRIG?ZF_EEPROM
   *DEL*:           00000EH   BYTE   INSEG    CODE           ?PR?IAP_ERASE_PAGE?ZF_EEPROM
   *DEL*:           000004H   BYTE   INSEG    CODE           ?PR?IAP_IDLE?ZF_EEPROM
   *DEL*:           000047H   BYTE   INSEG    CODE           ?PR?IAP_READ_BYTES?ZF_EEPROM
   *DEL*:           00006DH   BYTE   INSEG    CODE           ?PR?EXTERN_IAP_WRITE_BYTES?ZF_EEPROM
   *DEL*:           000006H   BYTE   INSEG    CODE           ?PR?IAP_INIT?ZF_EEPROM
   *DEL*:           000047H   BYTE   INSEG    CODE           ?PR?IAP_WRITE_BYTES?ZF_EEPROM
   *DEL*:           00000CH   BYTE   INSEG    CODE           ?PR?IAP_GET_CMD_STATE?ZF_EEPROM
   *DEL*:           000004H   BYTE   UNIT     EDATA          ?ED?IAP_READ_BYTES?ZF_EEPROM
   *DEL*:           000004H   BYTE   UNIT     EDATA          ?ED?IAP_WRITE_BYTES?ZF_EEPROM
   *DEL*:           000204H   BYTE   UNIT     EDATA          ?ED?EXTERN_IAP_WRITE_BYTES?ZF_EEPROM
   *DEL*:           00003EH   BYTE   INSEG    CODE           ?PR?EXIT_INIT?ZF_EXTI
   *DEL*:           00006EH   BYTE   INSEG    CODE           ?PR?GPIO_PULL_SET?ZF_GPIO
   *DEL*:           000017H   BYTE   INSEG    CODE           ?PR?SEND_DATA?ZF_IIC
   *DEL*:           00002FH   BYTE   INSEG    CODE           ?PR?IIC_CHANGE_PIN?ZF_IIC
   *DEL*:           00001CH   BYTE   INSEG    CODE           ?PR?RECV_DATA?ZF_IIC
   *DEL*:           000010H   BYTE   INSEG    CODE           ?PR?START?ZF_IIC
   *DEL*:           000045H   BYTE   INSEG    CODE           ?PR?WAIT?ZF_IIC
   *DEL*:           000018H   BYTE   INSEG    CODE           ?PR?SEND_ACK?ZF_IIC
   *DEL*:           000010H   BYTE   INSEG    CODE           ?PR?RECV_ACK?ZF_IIC
   *DEL*:           000010H   BYTE   INSEG    CODE           ?PR?STOP?ZF_IIC
   *DEL*:           000019H   BYTE   INSEG    CODE           ?PR?SEND_NAK?ZF_IIC
   *DEL*:           00005EH   BYTE   INSEG    CODE           ?PR?IIC_INIT?ZF_IIC
   *DEL*:           000075H   BYTE   INSEG    CODE           ?PR?IIC_READ_REG?ZF_IIC
   *DEL*:           00009CH   BYTE   INSEG    CODE           ?PR?IIC_READ_REG_BYTES?ZF_IIC
   *DEL*:           000060H   BYTE   INSEG    CODE           ?PR?IIC_WRITE_REG?ZF_IIC
   *DEL*:           000015H   BYTE   INSEG    CODE           ?PR?IIC_DELAY_US?ZF_IIC
   *DEL*:           000004H   BYTE   UNIT     EDATA          ?ED?IIC_INIT?ZF_IIC
   *DEL*:           000004H   BYTE   UNIT     EDATA          ?ED?IIC_READ_REG?ZF_IIC
   *DEL*:           000003H   BYTE   UNIT     EDATA          ?ED?IIC_READ_REG_BYTES?ZF_IIC
   *DEL*:           00006CH   BYTE   INSEG    CODE           ?PR?NVIC_SETPRIORITY?ZF_NVIC
   *DEL*:           000121H   BYTE   INSEG    CODE           ?PR?PWM_FREQ?ZF_PWM
   *DEL*:           000004H   BYTE   UNIT     EDATA          ?ED?PWM_FREQ?ZF_PWM
   *DEL*:           00001DH   BYTE   INSEG    CODE           ?PR?SPI_CHANGE_MODE?ZF_SPI
   *DEL*:           0000AEH   BYTE   INSEG    CODE           ?PR?SPI_CHANGE_PIN?ZF_SPI
   *DEL*:           0000DFH   BYTE   INSEG    CODE           ?PR?SPI_INIT?ZF_SPI
   *DEL*:           00000EH   BYTE   INSEG    CODE           ?PR?SPI_MOSI?ZF_SPI
   *DEL*:           000004H   BYTE   UNIT     EDATA          ?ED?SPI_INIT?ZF_SPI
   *DEL*:           00009DH   BYTE   INSEG    CODE           ?PR?PIT_TIMER_US?ZF_TIM
   *DEL*:           00002DH   BYTE   INSEG    CODE           ?PR?UART_PUTBUFF?ZF_UART
   *DEL*:           00001EH   BYTE   INSEG    CODE           ?PR?UART_PUTSTR?ZF_UART
   *DEL*:           000004H   BYTE   UNIT     EDATA          ?ED?UART_PUTBUFF?ZF_UART
   *DEL*:           000002H   BYTE   UNIT     EDATA          ?ED?UART_PUTSTR?ZF_UART
   *DEL*:           000113H   BYTE   INSEG    CODE           ?PR?FIFO_READ_BUFFER?ZF_FIFO
   *DEL*:           000025H   BYTE   INSEG    CODE           ?PR?FIFO_CLEAR?ZF_FIFO
   *DEL*:           000046H   BYTE   INSEG    CODE           ?PR?FIFO_END_OFFSET?ZF_FIFO
   *DEL*:           000015H   BYTE   INSEG    CODE           ?PR?FIFO_USED?ZF_FIFO
   *DEL*:           000043H   BYTE   INSEG    CODE           ?PR?FIFO_INIT?ZF_FIFO
   *DEL*:           000004H   BYTE   UNIT     EDATA          ?ED?FIFO_INIT?ZF_FIFO
   *DEL*:           00000FH   BYTE   UNIT     EDATA          ?ED?FIFO_READ_BUFFER?ZF_FIFO
   *DEL*:           00008BH   BYTE   INSEG    CODE           ?PR?LCD_SHOWUINT16?SEEKFREE_18TFT
   *DEL*:           000082H   BYTE   INSEG    CODE           ?PR?LCD_SHOWINT32_SIMSPI?SEEKFREE_18TFT
   *DEL*:           0000DDH   BYTE   INSEG    CODE           ?PR?LCD_SHOWINT16_SIMSPI?SEEKFREE_18TFT
   *DEL*:           000082H   BYTE   INSEG    CODE           ?PR?LCD_SHOWINT32?SEEKFREE_18TFT
   *DEL*:           0000DDH   BYTE   INSEG    CODE           ?PR?LCD_SHOWINT16?SEEKFREE_18TFT
   *DEL*:           00002BH   BYTE   INSEG    CODE           ?PR?LCD_CLEAR_SIMSPI?SEEKFREE_18TFT
   *DEL*:           00002BH   BYTE   INSEG    CODE           ?PR?LCD_CLEAR?SEEKFREE_18TFT
L251 LINKER/LOCATER V4.66.93.0                                                        07/23/2024  16:57:56  PAGE 8


   *DEL*:           00004EH   BYTE   INSEG    CODE           ?PR?LCD_SHOWSTR_SIMSPI?SEEKFREE_18TFT
   *DEL*:           00004EH   BYTE   INSEG    CODE           ?PR?LCD_SHOWSTR?SEEKFREE_18TFT
   *DEL*:           000029H   BYTE   INSEG    CODE           ?PR?LCD_WRITEINDEX_SIMSPI?SEEKFREE_18TFT
   *DEL*:           000029H   BYTE   INSEG    CODE           ?PR?LCD_WRITEDATA_SIMSPI?SEEKFREE_18TFT
   *DEL*:           00000AH   BYTE   INSEG    CODE           ?PR?LCD_WRITEINDEX?SEEKFREE_18TFT
   *DEL*:           00000AH   BYTE   INSEG    CODE           ?PR?LCD_WRITEDATA?SEEKFREE_18TFT
   *DEL*:           00002CH   BYTE   INSEG    CODE           ?PR?LCD_WRITEDATA_16BIT_SIMSPI?SEEKFREE_18TFT
   *DEL*:           00004CH   BYTE   INSEG    CODE           ?PR?LCD_SET_REGION_SIMSPI?SEEKFREE_18TFT
   *DEL*:           0001F1H   BYTE   INSEG    CODE           ?PR?LCD_INIT_SIMSPI?SEEKFREE_18TFT
   *DEL*:           00009AH   BYTE   INSEG    CODE           ?PR?SHOWIMAGE?SEEKFREE_18TFT
   *DEL*:           000050H   BYTE   INSEG    CODE           ?PR?LCD_SET_REGION?SEEKFREE_18TFT
   *DEL*:           0001EEH   BYTE   INSEG    CODE           ?PR?LCD_INIT?SEEKFREE_18TFT
   *DEL*:           00007BH   BYTE   INSEG    CODE           ?PR?LCD_SHOWUINT8_SIMSPI?SEEKFREE_18TFT
   *DEL*:           00007BH   BYTE   INSEG    CODE           ?PR?LCD_SHOWUINT8?SEEKFREE_18TFT
   *DEL*:           0000B9H   BYTE   INSEG    CODE           ?PR?LCD_SHOWINT8_SIMSPI?SEEKFREE_18TFT
   *DEL*:           0000B9H   BYTE   INSEG    CODE           ?PR?LCD_SHOWINT8?SEEKFREE_18TFT
   *DEL*:           00001FH   BYTE   INSEG    CODE           ?PR?LCD_WRITEDATA_16BIT?SEEKFREE_18TFT
   *DEL*:           0000F8H   BYTE   INSEG    CODE           ?PR?LCD_SHOWFLOAT_SIMSPI?SEEKFREE_18TFT
   *DEL*:           000013H   BYTE   INSEG    CODE           ?PR?LCD_DRAWPOINT_SIMSPI?SEEKFREE_18TFT
   *DEL*:           0000F8H   BYTE   INSEG    CODE           ?PR?LCD_SHOWFLOAT?SEEKFREE_18TFT
   *DEL*:           000013H   BYTE   INSEG    CODE           ?PR?LCD_DRAWPOINT?SEEKFREE_18TFT
   *DEL*:           00008EH   BYTE   INSEG    CODE           ?PR?LCD_SHOWCHAR_SIMSPI?SEEKFREE_18TFT
   *DEL*:           00008EH   BYTE   INSEG    CODE           ?PR?LCD_SHOWCHAR?SEEKFREE_18TFT
   *DEL*:           00008BH   BYTE   INSEG    CODE           ?PR?LCD_SHOWUINT16_SIMSPI?SEEKFREE_18TFT
   *DEL*:           000004H   BYTE   UNIT     EDATA          ?ED?LCD_SET_REGION_SIMSPI?SEEKFREE_18TFT
   *DEL*:           000004H   BYTE   UNIT     EDATA          ?ED?LCD_SHOWCHAR_SIMSPI?SEEKFREE_18TFT
   *DEL*:           000006H   BYTE   UNIT     EDATA          ?ED?LCD_SHOWSTR_SIMSPI?SEEKFREE_18TFT
   *DEL*:           000005H   BYTE   UNIT     EDATA          ?ED?LCD_SHOWINT8_SIMSPI?SEEKFREE_18TFT
   *DEL*:           000004H   BYTE   UNIT     EDATA          ?ED?LCD_SHOWUINT8_SIMSPI?SEEKFREE_18TFT
   *DEL*:           000008H   BYTE   UNIT     EDATA          ?ED?LCD_SHOWINT16_SIMSPI?SEEKFREE_18TFT
   *DEL*:           000006H   BYTE   UNIT     EDATA          ?ED?LCD_SHOWUINT16_SIMSPI?SEEKFREE_18TFT
   *DEL*:           000028H   BYTE   UNIT     EDATA          ?ED?LCD_SHOWINT32_SIMSPI?SEEKFREE_18TFT
   *DEL*:           00002BH   BYTE   UNIT     EDATA          ?ED?LCD_SHOWFLOAT_SIMSPI?SEEKFREE_18TFT
   *DEL*:           000002H   BYTE   UNIT     EDATA          ?ED?LCD_WRITEDATA_16BIT?SEEKFREE_18TFT
   *DEL*:           000004H   BYTE   UNIT     EDATA          ?ED?LCD_SET_REGION?SEEKFREE_18TFT
   *DEL*:           000004H   BYTE   UNIT     EDATA          ?ED?LCD_SHOWCHAR?SEEKFREE_18TFT
   *DEL*:           000006H   BYTE   UNIT     EDATA          ?ED?LCD_SHOWSTR?SEEKFREE_18TFT
   *DEL*:           000005H   BYTE   UNIT     EDATA          ?ED?LCD_SHOWINT8?SEEKFREE_18TFT
   *DEL*:           000004H   BYTE   UNIT     EDATA          ?ED?LCD_SHOWUINT8?SEEKFREE_18TFT
   *DEL*:           000008H   BYTE   UNIT     EDATA          ?ED?LCD_SHOWINT16?SEEKFREE_18TFT
   *DEL*:           000006H   BYTE   UNIT     EDATA          ?ED?LCD_SHOWUINT16?SEEKFREE_18TFT
   *DEL*:           000028H   BYTE   UNIT     EDATA          ?ED?LCD_SHOWINT32?SEEKFREE_18TFT
   *DEL*:           00002BH   BYTE   UNIT     EDATA          ?ED?LCD_SHOWFLOAT?SEEKFREE_18TFT
   *DEL*:           000008H   BYTE   UNIT     EDATA          ?ED?SHOWIMAGE?SEEKFREE_18TFT
   *DEL*:           000011H   BYTE   INSEG    CODE           ?PR?ENCODER_SELF4_CHECK?SEEKFREE_ABSOLUTE_ENCODER
   *DEL*:           000011H   BYTE   INSEG    CODE           ?PR?ENCODER_SELF5_CHECK?SEEKFREE_ABSOLUTE_ENCODER
   *DEL*:           00002FH   BYTE   INSEG    CODE           ?PR?ENCODER_SPI_R_REG_BYTE?SEEKFREE_ABSOLUTE_ENCODER
   *DEL*:           000005H   BYTE   INSEG    CODE           ?PR?ENCODER_DELAY_US?SEEKFREE_ABSOLUTE_ENCODER
   *DEL*:           000038H   BYTE   INSEG    CODE           ?PR?ENCODER_SPI_W_REG_BYTE?SEEKFREE_ABSOLUTE_ENCODER
   *DEL*:           00001CH   BYTE   INSEG    CODE           ?PR?SIMSPI_R_REG_BYTE?SEEKFREE_ABSOLUTE_ENCODER
   *DEL*:           00001AH   BYTE   INSEG    CODE           ?PR?SIMSPI_W_REG_BYTE?SEEKFREE_ABSOLUTE_ENCODER
   *DEL*:           000029H   BYTE   INSEG    CODE           ?PR?ENCODER_INIT_SPI?SEEKFREE_ABSOLUTE_ENCODER
   *DEL*:           000004H   BYTE   INSEG    CODE           ?PR?SPI_WR_BYTE?SEEKFREE_ABSOLUTE_ENCODER
   *DEL*:           000024H   BYTE   INSEG    CODE           ?PR?SET_ZERO_POSITION_SIMSPI?SEEKFREE_ABSOLUTE_ENCODER
   *DEL*:           000023H   BYTE   INSEG    CODE           ?PR?ENCODER_ANGLE_SIMSPI?SEEKFREE_ABSOLUTE_ENCODER
   *DEL*:           00001CH   BYTE   INSEG    CODE           ?PR?SPI_R_REG_BYTE?SEEKFREE_ABSOLUTE_ENCODER
   *DEL*:           00001AH   BYTE   INSEG    CODE           ?PR?SPI_W_REG_BYTE?SEEKFREE_ABSOLUTE_ENCODER
   *DEL*:           00002FH   BYTE   INSEG    CODE           ?PR?ENCODER_SIMSPI_R_REG_BYTE?SEEKFREE_ABSOLUTE_ENCODER
   *DEL*:           000038H   BYTE   INSEG    CODE           ?PR?ENCODER_SIMSPI_W_REG_BYTE?SEEKFREE_ABSOLUTE_ENCODER
   *DEL*:           00000FH   BYTE   INSEG    CODE           ?PR?ENCODER_INIT_SIMSPI?SEEKFREE_ABSOLUTE_ENCODER
   *DEL*:           000024H   BYTE   INSEG    CODE           ?PR?SET_ZERO_POSITION_SPI?SEEKFREE_ABSOLUTE_ENCODER
   *DEL*:           00001FH   BYTE   INSEG    CODE           ?PR?SIMSPI_WR_BYTE?SEEKFREE_ABSOLUTE_ENCODER
   *DEL*:           000023H   BYTE   INSEG    CODE           ?PR?ENCODER_ANGLE_SPI?SEEKFREE_ABSOLUTE_ENCODER
   *DEL*:           000001H   BYTE   UNIT     EDATA          ?ED?ENCODER_SELF4_CHECK?SEEKFREE_ABSOLUTE_ENCODER
   *DEL*:           000001H   BYTE   UNIT     EDATA          ?ED?ENCODER_SELF5_CHECK?SEEKFREE_ABSOLUTE_ENCODER
L251 LINKER/LOCATER V4.66.93.0                                                        07/23/2024  16:57:56  PAGE 9


   *DEL*:           00000FH   BYTE   INSEG    CODE           ?PR?SIMIIC_START?SEEKFREE_IIC
   *DEL*:           000066H   BYTE   INSEG    CODE           ?PR?SIMIIC_READ_REGS?SEEKFREE_IIC
   *DEL*:           000001H   BYTE   INSEG    CODE           ?PR?SIMIIC_INIT?SEEKFREE_IIC
   *DEL*:           000034H   BYTE   INSEG    CODE           ?PR?SIMIIC_READ_REG?SEEKFREE_IIC
   *DEL*:           000011H   BYTE   INSEG    CODE           ?PR?SIMIIC_STOP?SEEKFREE_IIC
   *DEL*:           000022H   BYTE   INSEG    CODE           ?PR?SIMIIC_WRITE_REG?SEEKFREE_IIC
   *DEL*:           000020H   BYTE   INSEG    CODE           ?PR?SIMIIC_SENDACK?SEEKFREE_IIC
   *DEL*:           00003BH   BYTE   INSEG    CODE           ?PR?READ_CH?SEEKFREE_IIC
   *DEL*:           00002EH   BYTE   INSEG    CODE           ?PR?SEND_CH?SEEKFREE_IIC
   *DEL*:           00001CH   BYTE   INSEG    CODE           ?PR?SCCB_WAITACK?SEEKFREE_IIC
   *DEL*:           00000BH   BYTE   INSEG    CODE           ?PR?SIMIIC_DELAY?SEEKFREE_IIC
   *DEL*:           000005H   BYTE   UNIT     EDATA          ?ED?SIMIIC_READ_REGS?SEEKFREE_IIC
   *DEL*:           000055H   BYTE   INSEG    CODE           ?PR?MPU6050_INIT?SEEKFREE_MPU6050
   *DEL*:           00002CH   BYTE   INSEG    CODE           ?PR?MPU6050_SELF1_CHECK?SEEKFREE_MPU6050
   *DEL*:           000044H   BYTE   INSEG    CODE           ?PR?MPU6050_GET_GYRO?SEEKFREE_MPU6050
   *DEL*:           000044H   BYTE   INSEG    CODE           ?PR?MPU6050_GET_ACCDATA?SEEKFREE_MPU6050
   *DEL*:           000006H   BYTE   UNIT     EDATA          ?ED?MPU6050_GET_ACCDATA?SEEKFREE_MPU6050
   *DEL*:           000006H   BYTE   UNIT     EDATA          ?ED?MPU6050_GET_GYRO?SEEKFREE_MPU6050
   *DEL*:           000033H   BYTE   INSEG    CODE           ?PR?OLED_PUTPIXEL?SEEKFREE_OLED
   *DEL*:           000032H   BYTE   INSEG    CODE           ?PR?OLED_HEXASCII_SPI?SEEKFREE_OLED
   *DEL*:           000325H   BYTE   INSEG    CODE           ?PR?OLED_DIS_BMP_SPI?SEEKFREE_OLED
   *DEL*:           0000E8H   BYTE   INSEG    CODE           ?PR?OLED_P8X16STR_SPI?SEEKFREE_OLED
   *DEL*:           00002AH   BYTE   INSEG    CODE           ?PR?OLED_CLRPIXEL_SPI?SEEKFREE_OLED
   *DEL*:           000090H   BYTE   INSEG    CODE           ?PR?OLED_PRINT_CHINESE_SPI?SEEKFREE_OLED
   *DEL*:           000082H   BYTE   INSEG    CODE           ?PR?OLED_PRINTF_INT32?SEEKFREE_OLED
   *DEL*:           00001DH   BYTE   INSEG    CODE           ?PR?OLED_UINT16?SEEKFREE_OLED
   *DEL*:           000031H   BYTE   INSEG    CODE           ?PR?OLED_PUTPIXEL_SPI?SEEKFREE_OLED
   *DEL*:           000021H   BYTE   INSEG    CODE           ?PR?OLED_SET_POS_SPI?SEEKFREE_OLED
   *DEL*:           0000A9H   BYTE   INSEG    CODE           ?PR?OLED_P6X8STR?SEEKFREE_OLED
   *DEL*:           00004BH   BYTE   INSEG    CODE           ?PR?OLED_INT16?SEEKFREE_OLED
   *DEL*:           0000F8H   BYTE   INSEG    CODE           ?PR?OLED_PRINTF_FLOAT_SPI?SEEKFREE_OLED
   *DEL*:           00000AH   BYTE   INSEG    CODE           ?PR?OLED_WRCMD_SPI?SEEKFREE_OLED
   *DEL*:           00000AH   BYTE   INSEG    CODE           ?PR?OLED_WRDAT_SPI?SEEKFREE_OLED
   *DEL*:           000032H   BYTE   INSEG    CODE           ?PR?OLED_HEXASCII?SEEKFREE_OLED
   *DEL*:           000033H   BYTE   INSEG    CODE           ?PR?OLED_FILL_SPI?SEEKFREE_OLED
   *DEL*:           000082H   BYTE   INSEG    CODE           ?PR?OLED_PRINTF_INT32_SPI?SEEKFREE_OLED
   *DEL*:           00001DH   BYTE   INSEG    CODE           ?PR?OLED_UINT16_SPI?SEEKFREE_OLED
   *DEL*:           0000A9H   BYTE   INSEG    CODE           ?PR?OLED_P6X8STR_SPI?SEEKFREE_OLED
   *DEL*:           00004BH   BYTE   INSEG    CODE           ?PR?OLED_INT16_SPI?SEEKFREE_OLED
   *DEL*:           00033BH   BYTE   INSEG    CODE           ?PR?OLED_DIS_BMP?SEEKFREE_OLED
   *DEL*:           0000BFH   BYTE   INSEG    CODE           ?PR?OLED_INIT_SPI?SEEKFREE_OLED
   *DEL*:           00002CH   BYTE   INSEG    CODE           ?PR?OLED_CLRPIXEL?SEEKFREE_OLED
   *DEL*:           000090H   BYTE   INSEG    CODE           ?PR?OLED_PRINT_CHINESE?SEEKFREE_OLED
   *DEL*:           000005H   BYTE   UNIT     EDATA          ?ED?OLED_P6X8STR?SEEKFREE_OLED
   *DEL*:           000007H   BYTE   UNIT     EDATA          ?ED?OLED_UINT16?SEEKFREE_OLED
   *DEL*:           000007H   BYTE   UNIT     EDATA          ?ED?OLED_INT16?SEEKFREE_OLED
   *DEL*:           000028H   BYTE   UNIT     EDATA          ?ED?OLED_PRINTF_INT32?SEEKFREE_OLED
   *DEL*:           00000CH   BYTE   UNIT     EDATA          ?ED?OLED_DIS_BMP?SEEKFREE_OLED
   *DEL*:           00000AH   BYTE   UNIT     EDATA          ?ED?OLED_PRINT_CHINESE?SEEKFREE_OLED
   *DEL*:           000005H   BYTE   UNIT     EDATA          ?ED?OLED_P6X8STR_SPI?SEEKFREE_OLED
   *DEL*:           000005H   BYTE   UNIT     EDATA          ?ED?OLED_P8X16STR_SPI?SEEKFREE_OLED
   *DEL*:           000007H   BYTE   UNIT     EDATA          ?ED?OLED_UINT16_SPI?SEEKFREE_OLED
   *DEL*:           000007H   BYTE   UNIT     EDATA          ?ED?OLED_INT16_SPI?SEEKFREE_OLED
   *DEL*:           000028H   BYTE   UNIT     EDATA          ?ED?OLED_PRINTF_INT32_SPI?SEEKFREE_OLED
   *DEL*:           00002BH   BYTE   UNIT     EDATA          ?ED?OLED_PRINTF_FLOAT_SPI?SEEKFREE_OLED
   *DEL*:           00000CH   BYTE   UNIT     EDATA          ?ED?OLED_DIS_BMP_SPI?SEEKFREE_OLED
   *DEL*:           00000AH   BYTE   UNIT     EDATA          ?ED?OLED_PRINT_CHINESE_SPI?SEEKFREE_OLED
   *DEL*:           00005EH   BYTE   INSEG    CODE           ?PR?AT24C02_READ_BYTES?SEEKFREE_AT24C02
   *DEL*:           000017H   BYTE   INSEG    CODE           ?PR?AT24C02_READ_BYTE?SEEKFREE_AT24C02
   *DEL*:           00005BH   BYTE   INSEG    CODE           ?PR?AT24C02_WRITE_BYTES?SEEKFREE_AT24C02
   *DEL*:           000019H   BYTE   INSEG    CODE           ?PR?AT24C02_WRITE_BYTE?SEEKFREE_AT24C02
   *DEL*:           000002H   BYTE   UNIT     EDATA          ?ED?AT24C02_WRITE_BYTES?SEEKFREE_AT24C02
   *DEL*:           000002H   BYTE   UNIT     EDATA          ?ED?AT24C02_READ_BYTES?SEEKFREE_AT24C02
   *DEL*:           000022H   BYTE   INSEG    CODE           ?PR?BLUETOOTH_CH9141_READ_BUFF?SEEKFREE_BLUETOOTH_CH9141
   *DEL*:           0000ABH   BYTE   INSEG    CODE           ?PR?BLUETOOTH_CH9141_SEND_BUFF?SEEKFREE_BLUETOOTH_CH9141
L251 LINKER/LOCATER V4.66.93.0                                                        07/23/2024  16:57:56  PAGE 10


   *DEL*:           00003CH   BYTE   INSEG    CODE           ?PR?BLUETOOTH_CH9141_INIT?SEEKFREE_BLUETOOTH_CH9141
   *DEL*:           000006H   BYTE   UNIT     EDATA          ?ED?BLUETOOTH_CH9141_SEND_BUFF?SEEKFREE_BLUETOOTH_CH9141
   *DEL*:           000004H   BYTE   UNIT     EDATA          ?ED?BLUETOOTH_CH9141_READ_BUFF?SEEKFREE_BLUETOOTH_CH9141
   *DEL*:           00001FH   BYTE   INSEG    CODE           ?PR?ICM_SIMSPI_WR_BYTE?SEEKFREE_ICM20602
   *DEL*:           000075H   BYTE   INSEG    CODE           ?PR?ICM20602_INIT_SIMIIC?SEEKFREE_ICM20602
   *DEL*:           000040H   BYTE   INSEG    CODE           ?PR?ICM_SIMSPI_R_REG_BYTES?SEEKFREE_ICM20602
   *DEL*:           00001CH   BYTE   INSEG    CODE           ?PR?ICM_SIMSPI_R_REG_BYTE?SEEKFREE_ICM20602
   *DEL*:           000013H   BYTE   INSEG    CODE           ?PR?ICM_SIMSPI_W_REG_BYTE?SEEKFREE_ICM20602
   *DEL*:           000059H   BYTE   INSEG    CODE           ?PR?ICM20602_INIT_SIMSPI?SEEKFREE_ICM20602
   *DEL*:           00002BH   BYTE   INSEG    CODE           ?PR?ICM20602_SELF1_CHECK?SEEKFREE_ICM20602
   *DEL*:           000011H   BYTE   INSEG    CODE           ?PR?ICM20602_SELF4_CHECK?SEEKFREE_ICM20602
   *DEL*:           000044H   BYTE   INSEG    CODE           ?PR?GET_ICM20602_GYRO_SIMIIC?SEEKFREE_ICM20602
   *DEL*:           000044H   BYTE   INSEG    CODE           ?PR?GET_ICM20602_ACCDATA_SIMIIC?SEEKFREE_ICM20602
   *DEL*:           00003DH   BYTE   INSEG    CODE           ?PR?GET_ICM20602_GYRO_SIMSPI?SEEKFREE_ICM20602
   *DEL*:           00003DH   BYTE   INSEG    CODE           ?PR?GET_ICM20602_ACCDATA_SIMSPI?SEEKFREE_ICM20602
   *DEL*:           000006H   BYTE   UNIT     EDATA          ?ED?GET_ICM20602_ACCDATA_SIMIIC?SEEKFREE_ICM20602
   *DEL*:           000006H   BYTE   UNIT     EDATA          ?ED?GET_ICM20602_GYRO_SIMIIC?SEEKFREE_ICM20602
   *DEL*:           000003H   BYTE   UNIT     EDATA          ?ED?ICM_SIMSPI_R_REG_BYTES?SEEKFREE_ICM20602
   *DEL*:           000001H   BYTE   UNIT     EDATA          ?ED?ICM20602_SELF4_CHECK?SEEKFREE_ICM20602
   *DEL*:           000001H   BYTE   UNIT     EDATA          ?ED?ICM20602_INIT_SIMSPI?SEEKFREE_ICM20602
   *DEL*:           000006H   BYTE   UNIT     EDATA          ?ED?GET_ICM20602_ACCDATA_SIMSPI?SEEKFREE_ICM20602
   *DEL*:           000006H   BYTE   UNIT     EDATA          ?ED?GET_ICM20602_GYRO_SIMSPI?SEEKFREE_ICM20602
   *DEL*:           00007BH   BYTE   INSEG    CODE           ?PR?IPS114_SHOWUINT8_SIMSPI?SEEKFREE_IPS114_SPI
   *DEL*:           000077H   BYTE   INSEG    CODE           ?PR?IPS114_SHOWUINT8?SEEKFREE_IPS114_SPI
   *DEL*:           0000B9H   BYTE   INSEG    CODE           ?PR?IPS114_SHOWINT8_SIMSPI?SEEKFREE_IPS114_SPI
   *DEL*:           0000B5H   BYTE   INSEG    CODE           ?PR?IPS114_SHOWINT8?SEEKFREE_IPS114_SPI
   *DEL*:           00001FH   BYTE   INSEG    CODE           ?PR?IPS114_WRITEDATA_16BIT?SEEKFREE_IPS114_SPI
   *DEL*:           0000F8H   BYTE   INSEG    CODE           ?PR?IPS114_SHOWFLOAT_SIMSPI?SEEKFREE_IPS114_SPI
   *DEL*:           000013H   BYTE   INSEG    CODE           ?PR?IPS114_DRAWPOINT_SIMSPI?SEEKFREE_IPS114_SPI
   *DEL*:           0000F8H   BYTE   INSEG    CODE           ?PR?IPS114_SHOWFLOAT?SEEKFREE_IPS114_SPI
   *DEL*:           000013H   BYTE   INSEG    CODE           ?PR?IPS114_DRAWPOINT?SEEKFREE_IPS114_SPI
   *DEL*:           00008EH   BYTE   INSEG    CODE           ?PR?IPS114_SHOWCHAR_SIMSPI?SEEKFREE_IPS114_SPI
   *DEL*:           00008EH   BYTE   INSEG    CODE           ?PR?IPS114_SHOWCHAR?SEEKFREE_IPS114_SPI
   *DEL*:           00008BH   BYTE   INSEG    CODE           ?PR?IPS114_SHOWUINT16_SIMSPI?SEEKFREE_IPS114_SPI
   *DEL*:           00008BH   BYTE   INSEG    CODE           ?PR?IPS114_SHOWUINT16?SEEKFREE_IPS114_SPI
   *DEL*:           000082H   BYTE   INSEG    CODE           ?PR?IPS114_SHOWINT32_SIMSPI?SEEKFREE_IPS114_SPI
   *DEL*:           0000DDH   BYTE   INSEG    CODE           ?PR?IPS114_SHOWINT16_SIMSPI?SEEKFREE_IPS114_SPI
   *DEL*:           000082H   BYTE   INSEG    CODE           ?PR?IPS114_SHOWINT32?SEEKFREE_IPS114_SPI
   *DEL*:           0000D9H   BYTE   INSEG    CODE           ?PR?IPS114_SHOWINT16?SEEKFREE_IPS114_SPI
   *DEL*:           00003CH   BYTE   INSEG    CODE           ?PR?IPS114_CLEAR_SIMSPI?SEEKFREE_IPS114_SPI
   *DEL*:           00003CH   BYTE   INSEG    CODE           ?PR?IPS114_CLEAR?SEEKFREE_IPS114_SPI
   *DEL*:           00002CH   BYTE   INSEG    CODE           ?PR?IPS114_WRITEDATAI_16BIT_SIMSPI?SEEKFREE_IPS114_SPI
   *DEL*:           00004EH   BYTE   INSEG    CODE           ?PR?IPS114_SHOWSTR_SIMSPI?SEEKFREE_IPS114_SPI
   *DEL*:           00004EH   BYTE   INSEG    CODE           ?PR?IPS114_SHOWSTR?SEEKFREE_IPS114_SPI
   *DEL*:           000029H   BYTE   INSEG    CODE           ?PR?IPS114_WRITEINDEX_SIMSPI?SEEKFREE_IPS114_SPI
   *DEL*:           000029H   BYTE   INSEG    CODE           ?PR?IPS114_WRITEDATA_SIMSPI?SEEKFREE_IPS114_SPI
   *DEL*:           00000AH   BYTE   INSEG    CODE           ?PR?IPS114_WRITEINDEX?SEEKFREE_IPS114_SPI
   *DEL*:           00000AH   BYTE   INSEG    CODE           ?PR?IPS114_WRITEDATA?SEEKFREE_IPS114_SPI
   *DEL*:           000044H   BYTE   INSEG    CODE           ?PR?IPS114_SET_REGION_SIMSPI?SEEKFREE_IPS114_SPI
   *DEL*:           00014FH   BYTE   INSEG    CODE           ?PR?IPS114_INIT_SIMSPI?SEEKFREE_IPS114_SPI
   *DEL*:           000048H   BYTE   INSEG    CODE           ?PR?IPS114_SET_REGION?SEEKFREE_IPS114_SPI
   *DEL*:           00016DH   BYTE   INSEG    CODE           ?PR?IPS114_INIT?SEEKFREE_IPS114_SPI
   *DEL*:           000004H   BYTE   UNIT     EDATA          ?ED?IPS114_SET_REGION_SIMSPI?SEEKFREE_IPS114_SPI
   *DEL*:           000002H   BYTE   UNIT     EDATA          ?ED?IPS114_CLEAR_SIMSPI?SEEKFREE_IPS114_SPI
   *DEL*:           000004H   BYTE   UNIT     EDATA          ?ED?IPS114_SHOWCHAR_SIMSPI?SEEKFREE_IPS114_SPI
   *DEL*:           000006H   BYTE   UNIT     EDATA          ?ED?IPS114_SHOWSTR_SIMSPI?SEEKFREE_IPS114_SPI
   *DEL*:           000005H   BYTE   UNIT     EDATA          ?ED?IPS114_SHOWINT8_SIMSPI?SEEKFREE_IPS114_SPI
   *DEL*:           000004H   BYTE   UNIT     EDATA          ?ED?IPS114_SHOWUINT8_SIMSPI?SEEKFREE_IPS114_SPI
   *DEL*:           000008H   BYTE   UNIT     EDATA          ?ED?IPS114_SHOWINT16_SIMSPI?SEEKFREE_IPS114_SPI
   *DEL*:           000006H   BYTE   UNIT     EDATA          ?ED?IPS114_SHOWUINT16_SIMSPI?SEEKFREE_IPS114_SPI
   *DEL*:           000028H   BYTE   UNIT     EDATA          ?ED?IPS114_SHOWINT32_SIMSPI?SEEKFREE_IPS114_SPI
   *DEL*:           00002BH   BYTE   UNIT     EDATA          ?ED?IPS114_SHOWFLOAT_SIMSPI?SEEKFREE_IPS114_SPI
   *DEL*:           000002H   BYTE   UNIT     EDATA          ?ED?IPS114_WRITEDATA_16BIT?SEEKFREE_IPS114_SPI
   *DEL*:           000004H   BYTE   UNIT     EDATA          ?ED?IPS114_SET_REGION?SEEKFREE_IPS114_SPI
   *DEL*:           000002H   BYTE   UNIT     EDATA          ?ED?IPS114_CLEAR?SEEKFREE_IPS114_SPI
L251 LINKER/LOCATER V4.66.93.0                                                        07/23/2024  16:57:56  PAGE 11


   *DEL*:           000004H   BYTE   UNIT     EDATA          ?ED?IPS114_SHOWCHAR?SEEKFREE_IPS114_SPI
   *DEL*:           000006H   BYTE   UNIT     EDATA          ?ED?IPS114_SHOWSTR?SEEKFREE_IPS114_SPI
   *DEL*:           000005H   BYTE   UNIT     EDATA          ?ED?IPS114_SHOWINT8?SEEKFREE_IPS114_SPI
   *DEL*:           000004H   BYTE   UNIT     EDATA          ?ED?IPS114_SHOWUINT8?SEEKFREE_IPS114_SPI
   *DEL*:           000008H   BYTE   UNIT     EDATA          ?ED?IPS114_SHOWINT16?SEEKFREE_IPS114_SPI
   *DEL*:           000006H   BYTE   UNIT     EDATA          ?ED?IPS114_SHOWUINT16?SEEKFREE_IPS114_SPI
   *DEL*:           000028H   BYTE   UNIT     EDATA          ?ED?IPS114_SHOWINT32?SEEKFREE_IPS114_SPI
   *DEL*:           00002BH   BYTE   UNIT     EDATA          ?ED?IPS114_SHOWFLOAT?SEEKFREE_IPS114_SPI
   *DEL*:           000070H   BYTE   INSEG    CODE           ?PR?CCD_SEND_DATA?SEEKFREE_TSL1401
   *DEL*:           000016H   BYTE   INSEG    CODE           ?PR?CCD_INIT?SEEKFREE_TSL1401
   *DEL*:           000035H   BYTE   INSEG    CODE           ?PR?CCD_COLLECT?SEEKFREE_TSL1401
   *DEL*:           000003H   BYTE   UNIT     EDATA          ?ED?CCD_SEND_DATA?SEEKFREE_TSL1401
   *DEL*:           00003AH   BYTE   INSEG    CODE           ?PR?CRC_CHECK?SEEKFREE_VIRSCO
   *DEL*:           000069H   BYTE   INSEG    CODE           ?PR?DATA_CONVERSION?SEEKFREE_VIRSCO
   *DEL*:           000004H   BYTE   UNIT     EDATA          ?ED?DATA_CONVERSION?SEEKFREE_VIRSCO
   *DEL*:           000022H   BYTE   INSEG    CODE           ?PR?WIRELESS_UART_READ_BUFF?SEEKFREE_WIRELESS
   *DEL*:           00005DH   BYTE   INSEG    CODE           ?PR?WIRELESS_UART_SEND_BUFF?SEEKFREE_WIRELESS
   *DEL*:           00003CH   BYTE   INSEG    CODE           ?PR?WIRELESS_UART_INIT?SEEKFREE_WIRELESS
   *DEL*:           000002H   BYTE   UNIT     EDATA          ?ED?WIRELESS_UART_SEND_BUFF?SEEKFREE_WIRELESS
   *DEL*:           000004H   BYTE   UNIT     EDATA          ?ED?WIRELESS_UART_READ_BUFF?SEEKFREE_WIRELESS
   *DEL*:           000022H   BYTE   INSEG    CODE           ?PR?WIRELESS_CH573_READ_BUFF?SEEKFREE_WIRELESS_CH573
   *DEL*:           00005DH   BYTE   INSEG    CODE           ?PR?WIRELESS_CH573_SEND_BUFF?SEEKFREE_WIRELESS_CH573
   *DEL*:           00003CH   BYTE   INSEG    CODE           ?PR?WIRELESS_CH573_INIT?SEEKFREE_WIRELESS_CH573
   *DEL*:           000002H   BYTE   UNIT     EDATA          ?ED?WIRELESS_CH573_SEND_BUFF?SEEKFREE_WIRELESS_CH573
   *DEL*:           000004H   BYTE   UNIT     EDATA          ?ED?WIRELESS_CH573_READ_BUFF?SEEKFREE_WIRELESS_CH573
   *DEL*:           000012H   BYTE   INSEG    CODE           ?PR?MOTOR_TEST?MOTOR
   *DEL*:           000013H   BYTE   INSEG    CODE           ?PR?MPU_SET_GYRO_FSR?MPU6050
   *DEL*:           000058H   BYTE   INSEG    CODE           ?PR?MPU_GET_ACCELEROMETER?MPU6050
   *DEL*:           000041H   BYTE   INSEG    CODE           ?PR?MPU_SET_LPF?MPU6050
   *DEL*:           000016H   BYTE   INSEG    CODE           ?PR?MPU_READ_BYTE?MPU6050
   *DEL*:           000013H   BYTE   INSEG    CODE           ?PR?MPU_SET_ACCEL_FSR?MPU6050
   *DEL*:           000031H   BYTE   INSEG    CODE           ?PR?ZERO_ALL?MPU6050
   *DEL*:           000069H   BYTE   INSEG    CODE           ?PR?MPU_INIT?MPU6050
   *DEL*:           00003BH   BYTE   INSEG    CODE           ?PR?MPU_GET_TEMPERATURE?MPU6050
   *DEL*:           000037H   BYTE   INSEG    CODE           ?PR?MPU_SET_RATE?MPU6050
   *DEL*:           000001H   BYTE   UNIT     EDATA          ?ED?MPU_READ_BYTE?MPU6050
   *DEL*:           000002H   BYTE   UNIT     EDATA          ?ED?MPU_GET_TEMPERATURE?MPU6050
   *DEL*:           00000EH   BYTE   UNIT     EDATA          ?ED?MPU_GET_ACCELEROMETER?MPU6050
   *DEL*:           00002DH   BYTE   INSEG    CODE           ?PR?OLED_CHANGE_VALUE?UI
   *DEL*:           00005FH   BYTE   INSEG    CODE           ?PR?SONAR?HCSR04
   *DEL*:           00002CH   BYTE   INSEG    CODE           ?PR?HC_SR04_INIT?HCSR04



OVERLAY MAP OF MODULE:   .\Out_File\SEEKFREE (board)


FUNCTION/MODULE                               EDATA_GROUP
--> CALLED FUNCTION/MODULE                    START  STOP
=========================================================
UART1_Isr/isr                                 ----- -----

*** NEW ROOT ********************************

UART2_Isr/isr                                 ----- -----

*** NEW ROOT ********************************

UART3_Isr/isr                                 ----- -----

*** NEW ROOT ********************************

UART4_Isr/isr                                 ----- -----
  +--> wireless_uart_callback/SEEKFREE_WIRELESS
  +--> bluetooth_ch9141_uart_callback/SEEKFREE_BLUETOOTH_CH9141
L251 LINKER/LOCATER V4.66.93.0                                                        07/23/2024  16:57:56  PAGE 12


  +--> wireless_ch573_callback/SEEKFREE_WIRELESS_CH573

wireless_uart_callback/SEEKFREE_WIRELESS      ----- -----
  +--> fifo_write_buffer/zf_fifo

fifo_write_buffer/zf_fifo                     03EEH 03F9H
  +--> memcpy?_/memcpy
  +--> fifo_head_offset/zf_fifo

memcpy?_/memcpy                               ----- -----

fifo_head_offset/zf_fifo                      ----- -----

bluetooth_ch9141_uart_callback/SEEKFREE_+     ----- -----
... BLUETOOTH_CH9141
  +--> fifo_write_buffer/zf_fifo

wireless_ch573_callback/SEEKFREE_WIRELES+     ----- -----
... S_CH573
  +--> fifo_write_buffer/zf_fifo

*** NEW ROOT ********************************

INT0_Isr/isr                                  ----- -----

*** NEW ROOT ********************************

INT1_Isr/isr                                  ----- -----

*** NEW ROOT ********************************

INT2_Isr/isr                                  ----- -----

*** NEW ROOT ********************************

INT3_Isr/isr                                  ----- -----

*** NEW ROOT ********************************

INT4_Isr/isr                                  ----- -----

*** NEW ROOT ********************************

TM0_Isr/isr                                   ----- -----

*** NEW ROOT ********************************

TM1_Isr/isr                                   ----- -----

*** NEW ROOT ********************************

TM2_Isr/isr                                   ----- -----

*** NEW ROOT ********************************

TM3_Isr/isr                                   ----- -----

*** NEW ROOT ********************************

TM4_Isr/isr                                   ----- -----
  +--> Get_Speed/motor
  +--> ADC_GetValue/ADC
  +--> Get_Ratio/isr
  +--> vl53l0x_get_distance/TOF
  +--> Num2Abs/motor
L251 LINKER/LOCATER V4.66.93.0                                                        07/23/2024  16:57:56  PAGE 13


  +--> Elem_Circle/Element
  +--> Elem_Barrier/Element
  +--> Limit_Out/motor
  +--> PID_Calculate/PID
  +--> PID_Incremental_Calc/PID
  +--> Left_SetSpeed/motor
  +--> Right_SetSpeed/motor
  +--> pwm_duty/zf_pwm

Get_Speed/motor                               ----- -----
  +--> ctimer_count_read/zf_tim
  +--> ctimer_count_clean/zf_tim

ctimer_count_read/zf_tim                      ----- -----

ctimer_count_clean/zf_tim                     ----- -----

ADC_GetValue/ADC                              ----- -----
  +--> adc_once/zf_adc

adc_once/zf_adc                               ----- -----

Get_Ratio/isr                                 ----- -----

vl53l0x_get_distance/TOF                      03FAH 03FCH
  +--> vl53l0x_simiic_read_regs_1/TOF
  +--> abs?_/ABS

vl53l0x_simiic_read_regs_1/TOF                03FDH 0402H
  +--> vl53l0x_simiic_start/TOF
  +--> vl53l0x_send_ch/TOF
  +--> vl53l0x_read_ch/TOF
  +--> vl53l0x_simiic_stop/TOF

vl53l0x_simiic_start/TOF                      ----- -----
  +--> vl53l0x_simiic_delay/TOF

vl53l0x_simiic_delay/TOF                      ----- -----

vl53l0x_send_ch/TOF                           ----- -----
  +--> vl53l0x_simiic_delay/TOF
  +--> vl53l0x_sccb_waitack/TOF

vl53l0x_sccb_waitack/TOF                      ----- -----
  +--> vl53l0x_simiic_delay/TOF

vl53l0x_read_ch/TOF                           ----- -----
  +--> vl53l0x_simiic_delay/TOF
  +--> vl53l0x_simiic_sendack/TOF

vl53l0x_simiic_sendack/TOF                    ----- -----
  +--> vl53l0x_simiic_delay/TOF

vl53l0x_simiic_stop/TOF                       ----- -----
  +--> vl53l0x_simiic_delay/TOF

abs?_/ABS                                     ----- -----

Num2Abs/motor                                 ----- -----

Elem_Circle/Element                           ----- -----

Elem_Barrier/Element                          ----- -----

Limit_Out/motor                               0402H 0405H
L251 LINKER/LOCATER V4.66.93.0                                                        07/23/2024  16:57:56  PAGE 14



PID_Calculate/PID                             03FAH 03FDH

PID_Incremental_Calc/PID                      03FAH 0401H
  +--> Limit_Out/motor

Left_SetSpeed/motor                           ----- -----
  +--> Num2Abs/motor
  +--> pwm_duty/zf_pwm

pwm_duty/zf_pwm                               ----- -----

Right_SetSpeed/motor                          ----- -----
  +--> Num2Abs/motor
  +--> pwm_duty/zf_pwm

*** NEW ROOT ********************************

?C_C51STARTUP                                 ----- -----

*** NEW ROOT ********************************

?C_C51STARTUP?3                               ----- -----
  +--> main/main

main/main                                     ----- -----
  +--> Init_all/main
  +--> EnableGlobalIRQ/board
  +--> PRINTF/PRINTF
  +--> ui_show/UI
  +--> GetKey_Value/Key
  +--> oled_all_static_state/UI
  +--> MPU6050_Refresh_DMP/MPU6050
  +--> MPU_Get_Gyroscope/MPU6050
  +--> Filter_Window/main
  +--> Speed_Gain/main
  +--> Elem_Up_Down/Element

Init_all/main                                 ----- -----
  +--> DisableGlobalIRQ/board
  +--> board_init/board
  +--> gpio_mode/zf_gpio
  +--> Key_Init/Key
  +--> vl53l0x_init/TOF
  +--> ui_init/UI
  +--> MPU6050_DMP_Init/MPU6050
  +--> pit_timer_ms/zf_tim
  +--> ctimer_count_init/zf_tim
  +--> Motor_Init/motor
  +--> Buzzer_Init/Buzzer
  +--> ADC_InitAll/ADC
  +--> PID_Init/PID
  +--> PID_Incremental_Init/PID

DisableGlobalIRQ/board                        ----- -----

board_init/board                              ----- -----
  +--> delay_init/zf_delay
  +--> uart_init/zf_uart

delay_init/zf_delay                           ----- -----
  +--> ?C?SLDIV/?C?SLDIV

?C?SLDIV/?C?SLDIV                             ----- -----
  +--> ?C?ULIDIV/?C?ULDIV
L251 LINKER/LOCATER V4.66.93.0                                                        07/23/2024  16:57:56  PAGE 15



?C?ULIDIV/?C?ULDIV                            ----- -----

uart_init/zf_uart                             0406H 040BH
  +--> ?C?ULIDIV/?C?ULDIV

gpio_mode/zf_gpio                             ----- -----

Key_Init/Key                                  ----- -----
  +--> gpio_mode/zf_gpio

vl53l0x_init/TOF                              0406H 0417H
  +--> memset?_/memset
  +--> vl53l0x_simiic_read_reg/TOF
  +--> vl53l0x_simiic_write_reg/TOF
  +--> vl53l0x_simiic_read_regs/TOF
  +--> vl53l0x_set_signal_rate_limit/TOF
  +--> vl53l0x_get_spad_info/TOF
  +--> PRINTF/PRINTF
  +--> vl53l0x_simiic_write_dats/TOF
  +--> vl53l0x_get_measurement_timing_budget/TOF
  +--> vl53l0x_set_measurement_timing_budget/TOF
  +--> vl53l0x_perform_single_ref_calibration/TOF
  +--> delay_ms/zf_delay

memset?_/memset                               ----- -----

vl53l0x_simiic_read_reg/TOF                   ----- -----
  +--> vl53l0x_simiic_start/TOF
  +--> vl53l0x_send_ch/TOF
  +--> vl53l0x_read_ch/TOF
  +--> vl53l0x_simiic_stop/TOF

vl53l0x_simiic_write_reg/TOF                  ----- -----
  +--> vl53l0x_simiic_start/TOF
  +--> vl53l0x_send_ch/TOF
  +--> vl53l0x_simiic_stop/TOF

vl53l0x_simiic_read_regs/TOF                  0442H 0447H
  +--> vl53l0x_simiic_start/TOF
  +--> vl53l0x_send_ch/TOF
  +--> vl53l0x_read_ch/TOF
  +--> vl53l0x_simiic_stop/TOF

vl53l0x_set_signal_rate_limit/TOF             0418H 041AH
  +--> vl53l0x_simiic_write_dats/TOF

vl53l0x_simiic_write_dats/TOF                 043BH 043FH
  +--> vl53l0x_simiic_start/TOF
  +--> vl53l0x_send_ch/TOF
  +--> vl53l0x_simiic_stop/TOF

vl53l0x_get_spad_info/TOF                     0418H 041FH
  +--> vl53l0x_simiic_write_reg/TOF
  +--> vl53l0x_simiic_read_regs/TOF

PRINTF/PRINTF                                 0418H 043FH
  +--> OUT/PRINTF

OUT/PRINTF                                    ----- -----
  +--> PUTCH/PRINTF

PUTCH/PRINTF                                  ----- -----
  +--> putchar/board
  +--> OUT/PRINTF
L251 LINKER/LOCATER V4.66.93.0                                                        07/23/2024  16:57:56  PAGE 16



putchar/board                                 ----- -----
  +--> uart_putchar/zf_uart

uart_putchar/zf_uart                          ----- -----

vl53l0x_get_measurement_timing_budget/TO+     0418H 0432H
... F
  +--> vl53l0x_get_sequence_step_enables/TOF
  +--> vl53l0x_get_sequence_step_timeouts/TOF

vl53l0x_get_sequence_step_enables/TOF         043BH 043BH
  +--> vl53l0x_simiic_read_regs/TOF

vl53l0x_get_sequence_step_timeouts/TOF        043BH 0440H
  +--> vl53l0x_get_vcsel_pulse_period/TOF
  +--> vl53l0x_simiic_read_regs/TOF
  +--> vl53l0x_timeout_mclks_to_microseconds/TOF
  +--> vl53l0x_decode_timeout/TOF

vl53l0x_get_vcsel_pulse_period/TOF            0441H 0441H
  +--> vl53l0x_simiic_read_regs/TOF

vl53l0x_timeout_mclks_to_microseconds/TO+     ----- -----
... F
  +--> ?C?ULIDIV/?C?ULDIV

vl53l0x_decode_timeout/TOF                    ----- -----

vl53l0x_set_measurement_timing_budget/TO+     0418H 043AH
... F
  +--> vl53l0x_get_sequence_step_enables/TOF
  +--> vl53l0x_get_sequence_step_timeouts/TOF
  +--> vl53l0x_timeout_microseconds_to_mclks/TOF
  +--> vl53l0x_encode_timeout/TOF
  +--> vl53l0x_simiic_write_dats/TOF

vl53l0x_timeout_microseconds_to_mclks/TO+     ----- -----
... F
  +--> ?C?ULIDIV/?C?ULDIV

vl53l0x_encode_timeout/TOF                    ----- -----

vl53l0x_perform_single_ref_calibration/T+     0418H 041AH
... OF
  +--> vl53l0x_simiic_write_reg/TOF
  +--> vl53l0x_simiic_read_regs/TOF

delay_ms/zf_delay                             ----- -----

ui_init/UI                                    ----- -----
  +--> oled_init/SEEKFREE_OLED
  +--> value_name_init/UI
  +--> oled_all_static_state/UI

oled_init/SEEKFREE_OLED                       ----- -----
  +--> delay_ms/zf_delay
  +--> oled_wrcmd/SEEKFREE_OLED
  +--> oled_fill/SEEKFREE_OLED
  +--> oled_set_pos/SEEKFREE_OLED

oled_wrcmd/SEEKFREE_OLED                      ----- -----

oled_fill/SEEKFREE_OLED                       ----- -----
  +--> oled_wrcmd/SEEKFREE_OLED
L251 LINKER/LOCATER V4.66.93.0                                                        07/23/2024  16:57:56  PAGE 17


  +--> oled_wrdat/SEEKFREE_OLED

oled_wrdat/SEEKFREE_OLED                      ----- -----

oled_set_pos/SEEKFREE_OLED                    ----- -----
  +--> oled_wrcmd/SEEKFREE_OLED

value_name_init/UI                            ----- -----
  +--> STRCPY?_/STRCPY?_

STRCPY?_/STRCPY?_                             ----- -----

oled_all_static_state/UI                      ----- -----
  +--> oled_p8x16str/SEEKFREE_OLED

oled_p8x16str/SEEKFREE_OLED                   0431H 0435H
  +--> oled_set_pos/SEEKFREE_OLED
  +--> oled_wrdat/SEEKFREE_OLED

MPU6050_DMP_Init/MPU6050                      ----- -----
  +--> initMPU6050/MPU6050
  +--> getDeviceID/MPU6050
  +--> dmpInitialize/MPU6050
  +--> MPU_Write_Bit/MPU6050

initMPU6050/MPU6050                           ----- -----
  +--> MPU_Write_Bits/MPU6050
  +--> MPU_Write_Bit/MPU6050

MPU_Write_Bits/MPU6050                        ----- -----
  +--> i2c_write_bits/MPU6050

i2c_write_bits/MPU6050                        040CH 040CH
  +--> i2c_mem_read/MPU6050
  +--> i2c_mem_write/MPU6050

i2c_mem_read/MPU6050                          0414H 0417H
  +--> i2c_start/MPU6050
  +--> i2c_write_byte/MPU6050
  +--> i2c_wait_ack/MPU6050
  +--> i2c_read_byte/MPU6050
  +--> i2c_stop/MPU6050

i2c_start/MPU6050                             ----- -----
  +--> I2C_SDA_H/MPU6050
  +--> I2C_SCL_H/MPU6050
  +--> i2c_delay/MPU6050
  +--> I2C_SDA_L/MPU6050
  +--> I2C_SCL_L/MPU6050

I2C_SDA_H/MPU6050                             ----- -----

I2C_SCL_H/MPU6050                             ----- -----

i2c_delay/MPU6050                             ----- -----

I2C_SDA_L/MPU6050                             ----- -----

I2C_SCL_L/MPU6050                             ----- -----

i2c_write_byte/MPU6050                        ----- -----
  +--> I2C_SCL_L/MPU6050
  +--> I2C_SDA_H/MPU6050
  +--> I2C_SDA_L/MPU6050
  +--> i2c_delay/MPU6050
L251 LINKER/LOCATER V4.66.93.0                                                        07/23/2024  16:57:56  PAGE 18


  +--> I2C_SCL_H/MPU6050

i2c_wait_ack/MPU6050                          ----- -----
  +--> I2C_SCL_H/MPU6050
  +--> i2c_delay/MPU6050
  +--> i2c_timeout_delay/MPU6050
  +--> i2c_stop/MPU6050
  +--> I2C_SDA_Read/MPU6050
  +--> I2C_SCL_L/MPU6050

i2c_timeout_delay/MPU6050                     ----- -----

i2c_stop/MPU6050                              ----- -----
  +--> I2C_SDA_L/MPU6050
  +--> I2C_SCL_H/MPU6050
  +--> i2c_delay/MPU6050
  +--> I2C_SDA_H/MPU6050

I2C_SDA_Read/MPU6050                          ----- -----

i2c_read_byte/MPU6050                         ----- -----
  +--> I2C_SCL_L/MPU6050
  +--> i2c_delay/MPU6050
  +--> I2C_SCL_H/MPU6050
  +--> I2C_SDA_Read/MPU6050
  +--> i2c_nack/MPU6050
  +--> i2c_ack/MPU6050

i2c_nack/MPU6050                              ----- -----
  +--> I2C_SCL_L/MPU6050
  +--> I2C_SDA_H/MPU6050
  +--> i2c_delay/MPU6050
  +--> I2C_SCL_H/MPU6050

i2c_ack/MPU6050                               ----- -----
  +--> I2C_SCL_L/MPU6050
  +--> I2C_SDA_L/MPU6050
  +--> i2c_delay/MPU6050
  +--> I2C_SCL_H/MPU6050
  +--> I2C_SDA_H/MPU6050

i2c_mem_write/MPU6050                         040FH 0412H
  +--> i2c_start/MPU6050
  +--> i2c_write_byte/MPU6050
  +--> i2c_wait_ack/MPU6050
  +--> i2c_stop/MPU6050

MPU_Write_Bit/MPU6050                         ----- -----
  +--> i2c_write_bit/MPU6050

i2c_write_bit/MPU6050                         040CH 040CH
  +--> i2c_mem_read/MPU6050
  +--> i2c_mem_write/MPU6050

getDeviceID/MPU6050                           0406H 0406H
  +--> MPU_Read_Bits/MPU6050

MPU_Read_Bits/MPU6050                         ----- -----
  +--> i2c_read_bits/MPU6050

i2c_read_bits/MPU6050                         040CH 040FH
  +--> i2c_mem_read/MPU6050

dmpInitialize/MPU6050                         0406H 040BH
  +--> MPU_Write_Bit/MPU6050
L251 LINKER/LOCATER V4.66.93.0                                                        07/23/2024  16:57:56  PAGE 19


  +--> MPU_Delay_Ms/MPU6050
  +--> MPU_Write_Byte/MPU6050
  +--> MPU_Read_Len/MPU6050
  +--> MPU_Read_Bit/MPU6050
  +--> MPU_Read_Bits/MPU6050
  +--> loadfirmware/MPU6050
  +--> loadcfgupd/MPU6050
  +--> MPU_Write_Bits/MPU6050
  +--> xdmpUpdates/MPU6050
  +--> getFIFOCount/MPU6050

MPU_Delay_Ms/MPU6050                          ----- -----
  +--> Delay1ms/MPU6050

Delay1ms/MPU6050                              ----- -----

MPU_Write_Byte/MPU6050                        040EH 040EH
  +--> i2c_mem_write/MPU6050

MPU_Read_Len/MPU6050                          ----- -----
  +--> i2c_mem_read/MPU6050

MPU_Read_Bit/MPU6050                          ----- -----
  +--> i2c_read_bit/MPU6050

i2c_read_bit/MPU6050                          040CH 040DH
  +--> i2c_mem_read/MPU6050

loadfirmware/MPU6050                          040CH 040DH
  +--> MPU_Write_Byte/MPU6050
  +--> MPU_Write_Len/MPU6050

MPU_Write_Len/MPU6050                         ----- -----
  +--> i2c_mem_write/MPU6050

loadcfgupd/MPU6050                            040CH 040DH
  +--> MPU_Write_Byte/MPU6050
  +--> MPU_Write_Len/MPU6050

xdmpUpdates/MPU6050                           040CH 040CH
  +--> MPU_Write_Byte/MPU6050
  +--> MPU_Write_Len/MPU6050

getFIFOCount/MPU6050                          040CH 040DH
  +--> MPU_Read_Len/MPU6050

pit_timer_ms/zf_tim                           ----- -----
  +--> ?C?SLDIV/?C?SLDIV

ctimer_count_init/zf_tim                      ----- -----

Motor_Init/motor                              ----- -----
  +--> pwm_init/zf_pwm

pwm_init/zf_pwm                               0406H 040DH
  +--> pwm_set_gpio/zf_pwm
  +--> ?C?ULIDIV/?C?ULDIV

pwm_set_gpio/zf_pwm                           ----- -----
  +--> gpio_mode/zf_gpio

Buzzer_Init/Buzzer                            ----- -----
  +--> pwm_init/zf_pwm

ADC_InitAll/ADC                               ----- -----
L251 LINKER/LOCATER V4.66.93.0                                                        07/23/2024  16:57:56  PAGE 20


  +--> adc_init/zf_adc

adc_init/zf_adc                               ----- -----

PID_Init/PID                                  0406H 0419H

PID_Incremental_Init/PID                      0406H 0416H

EnableGlobalIRQ/board                         ----- -----

ui_show/UI                                    ----- -----
  +--> refresh_value/UI
  +--> oled_show/UI

refresh_value/UI                              ----- -----

oled_show/UI                                  ----- -----
  +--> refresh_value/UI
  +--> oled_printf_float/SEEKFREE_OLED

oled_printf_float/SEEKFREE_OLED               0406H 0430H
  +--> zf_sprintf/SEEKFREE_PRINTF
  +--> oled_p8x16str/SEEKFREE_OLED

zf_sprintf/SEEKFREE_PRINTF                    0431H 048FH
  +--> number_conversion_ascii/SEEKFREE_PRINTF
  +--> printf_reverse_order/SEEKFREE_PRINTF
  +--> memcpy?_/memcpy

number_conversion_ascii/SEEKFREE_PRINTF       0490H 0490H
  +--> ?C?SLDIV/?C?SLDIV
  +--> ?C?ULIDIV/?C?ULDIV

printf_reverse_order/SEEKFREE_PRINTF          ----- -----

GetKey_Value/Key                              ----- -----

MPU6050_Refresh_DMP/MPU6050                   ----- -----
  +--> getFIFOCount/MPU6050
  +--> MPU_Read_Len/MPU6050
  +--> MPU_Write_Bit/MPU6050
  +--> readdmp/MPU6050
  +--> atan2?_/atan2

readdmp/MPU6050                               ----- -----
  +--> MPU_Read_Len/MPU6050

atan2?_/atan2                                 ----- -----

MPU_Get_Gyroscope/MPU6050                     0406H 0413H
  +--> MPU_Read_Len/MPU6050

Filter_Window/main                            ----- -----

Speed_Gain/main                               ----- -----

Elem_Up_Down/Element                          ----- -----

*** NEW ROOT ********************************

?C_C51STARTUP?2                               ----- -----



PUBLIC SYMBOLS OF MODULE:  .\Out_File\SEEKFREE (board)
L251 LINKER/LOCATER V4.66.93.0                                                        07/23/2024  16:57:56  PAGE 21




      VALUE       CLASS    TYPE      PUBLIC SYMBOL NAME
      =================================================
      00FF111EH   CODE     NEAR LAB  ?C?CASTF
      000000FFH   NUMBER   ---       ?C?CODESEG
      00FF10EBH   CODE     NEAR LAB  ?C?FCASTC
      00FF10E6H   CODE     NEAR LAB  ?C?FCASTI
      00FF10E1H   CODE     NEAR LAB  ?C?FCASTL
      00FF18BFH   CODE     ---       ?C?FP2SERIES
      00FF0EB4H   CODE     ---       ?C?FPADD
      00FF108FH   CODE     ---       ?C?FPCMP
      00FF108DH   CODE     ---       ?C?FPCMP3
      00FF17C4H   CODE     ---       ?C?FPCONVERT
      00FF100CH   CODE     ---       ?C?FPDIV
      00FF1237H   CODE     ---       ?C?FPGETOPN2
      00FF0F6CH   CODE     ---       ?C?FPMUL
      00FF1274H   CODE     ---       ?C?FPNANRESULT
      00FF10D3H   CODE     ---       ?C?FPNEG
      00FF127CH   CODE     ---       ?C?FPOVERFLOW
      00FF1250H   CODE     ---       ?C?FPRESULT
      00FF1266H   CODE     ---       ?C?FPRESULT2
      00FF187CH   CODE     ---       ?C?FPROUND
      00FF18C8H   CODE     ---       ?C?FPSERIES
      00FF0EB1H   CODE     ---       ?C?FPSUB
      00FF1279H   CODE     ---       ?C?FPUNDERFLOW
      00FF191CH   CODE     ---       ?C?FTNPWR
      00FF6567H   CODE     ---       ?C?INITEDATA
      00FF6F27H   HCONST   WORD      ?C?INITEDATA_END
      00FF1996H   CODE     ---       ?C?LIMUL
      00FF1985H   CODE     ---       ?C?LMUL
      00FF12B5H   CODE     ---       ?C?PRNFMT
      00FF1953H   CODE     ---       ?C?SIDIV
      00FF19F2H   CODE     NEAR LAB  ?C?SLDIV
      00FF0000H   CODE     ---       ?C?STARTUP
      00FF19A1H   CODE     NEAR LAB  ?C?ULDIV
      00FF199FH   CODE     NEAR LAB  ?C?ULIDIV
      00000001H   NUMBER   ---       ?C?XDATASEG
      00FF0000H   CODE     ---       ?C_STARTUP
*DEL*:1FFFFFF8H   EDATA    BYTE      ?data_conversion?BYTE
*DEL*:1FFFFFF8H   EDATA    BYTE      ?fifo_init?BYTE
*DEL*:1FFFFFFCH   EDATA    BYTE      ?fifo_read_buffer?BYTE
      000003EAH   EDATA    BYTE      ?fifo_write_buffer?BYTE
*DEL*:1FFFFFFAH   EDATA    BYTE      ?iic_init?BYTE
*DEL*:1FFFFFFCH   EDATA    BYTE      ?ips114_showfloat?BYTE
*DEL*:1FFFFFFCH   EDATA    BYTE      ?ips114_showfloat_simspi?BYTE
*DEL*:1FFFFFFCH   EDATA    BYTE      ?lcd_showfloat?BYTE
*DEL*:1FFFFFFCH   EDATA    BYTE      ?lcd_showfloat_simspi?BYTE
      000003FAH   EDATA    BYTE      ?Limit_Out?BYTE
*DEL*:1FFFFFFCH   EDATA    BYTE      ?MPU_Get_Accelerometer?BYTE
      00000402H   EDATA    BYTE      ?MPU_Get_Gyroscope?BYTE
      00000487H   EDATA    BYTE      ?number_conversion_ascii?BYTE
      00000402H   EDATA    BYTE      ?oled_printf_float?BYTE
*DEL*:1FFFFFFCH   EDATA    BYTE      ?oled_printf_float_spi?BYTE
      000003F2H   EDATA    BYTE      ?PID_Calculate?BYTE
      000003F2H   EDATA    BYTE      ?PID_Incremental_Calc?BYTE
      000003FEH   EDATA    BYTE      ?PID_Incremental_Init?BYTE
      000003FEH   EDATA    BYTE      ?PID_Init?BYTE
      00000440H   EDATA    ---       ?printf?BYTE
*DEL*:1FFFFFFAH   EDATA    BYTE      ?pwm_freq?BYTE
      00000404H   EDATA    BYTE      ?pwm_init?BYTE
*DEL*:1FFFFFF7H   EDATA    BYTE      ?spi_init?BYTE
      00000400H   EDATA    BYTE      ?uart_init?BYTE
      00000459H   EDATA    BYTE      ?zf_sprintf?BYTE
      00FF6C72H   CODE     ---       abs?_
L251 LINKER/LOCATER V4.66.93.0                                                        07/23/2024  16:57:56  PAGE 22


      00000550H   EDATA    FLOAT     Act_PwmL
      000004FCH   EDATA    FLOAT     Act_PwmR
      00000664H   EDATA    ---       ADC_Array_Original
*SFR* 000000BCH   DATA     BYTE      ADC_CONTR
      00FF48A1H   CODE     ---       ADC_GetValue
      00FF6028H   CODE     ---       adc_init
      00FF691AH   CODE     ---       ADC_InitAll
      00FF6868H   CODE     ---       adc_once
      000006A0H   EDATA    ---       ADC_proc
*SFR* 000000BDH   DATA     BYTE      ADC_RES
*SFR* 000000BEH   DATA     BYTE      ADC_RESL
*SFR* 000000DEH   DATA     BYTE      ADCCFG
      000006B9H   EDATA    FLOAT     Adjust_Val
      00000531H   EDATA    FLOAT     Angle_Edge
      00FF1217H   CODE     ---       asin?_
*DEL*:00000000H   CODE     ---       at24c02_read_byte
*DEL*:00000000H   CODE     ---       at24c02_read_bytes
*DEL*:00000000H   CODE     ---       at24c02_write_byte
*DEL*:00000000H   CODE     ---       at24c02_write_bytes
      00FF63C3H   CODE     ---       atan2?_
      00FF16E4H   CODE     ---       ATAN?_
*SFR* 000000EFH   DATA     BYTE      AUXINTIF
*SFR* 0000008EH   DATA     BYTE      AUXR
      000006F6H   EDATA    CHAR      Barrier_Executed
      000006E8H   EDATA    CHAR      Barrier_Flag1
      000006EBH   EDATA    CHAR      Barrier_Flag2
      000006ECH   EDATA    CHAR      Barrier_Flag3
*DEL*:00000000H   CODE     ---       bluetooth_ch9141_init
*DEL*:00000000H   CODE     ---       bluetooth_ch9141_read_buff
*DEL*:00000000H   CODE     ---       bluetooth_ch9141_send_buff
      00FF6B58H   CODE     ---       bluetooth_ch9141_uart_callback
      00FF5A56H   CODE     ---       board_init
      000003E9H   EDATA    ---       busy
      00FF6C51H   CODE     ---       Buzzer_Init
*DEL*:00000000H   CODE     ---       ccd_collect
      0000013EH   EDATA    ---       ccd_data
*DEL*:00000000H   CODE     ---       ccd_init
*DEL*:00000000H   CODE     ---       ccd_send_data
      000006F8H   EDATA    INT       circle_Delay1
      000006E9H   EDATA    INT       Circle_Delay2
      000006EDH   EDATA    FLOAT     Circle_Flag1
      000006F1H   EDATA    FLOAT     Circle_Flag2
      000006F5H   EDATA    CHAR      Circle_Flag3
      00000764H   EDATA    CHAR      clear_Num
      00000524H   EDATA    CHAR      count
      0000051EH   EDATA    INT       CountDown
*DEL*:00000000H   CODE     ---       CRC_CHECK
      00FF628EH   CODE     ---       ctimer_count_clean
      00FF6379H   CODE     ---       ctimer_count_init
      00FF62DFH   CODE     ---       ctimer_count_read
*DEL*:00000000H   CODE     ---       data_conversion
      00FF6D10H   CODE     ---       Delay1ms
      00FF66C3H   CODE     ---       delay_init
      00FF6BA3H   CODE     ---       delay_ms
*DEL*:00000000H   CODE     ---       delay_us
      0000054CH   EDATA    FLOAT     Diff
      00000548H   EDATA    FLOAT     Diff_Mid
      000006B5H   EDATA    FLOAT     Dis_Process
      00FF0016H   CODE     ---       DisableGlobalIRQ
      00000535H   EDATA    CHAR      Distance_Num
      00FF1A55H   CODE     ---       dmpcfgupddata
      000004C1H   EDATA    ---       dmpdatas
      00FF3DEBH   CODE     ---       dmpInitialize
      00FF1B15H   CODE     ---       dmpmemorydata
      00FF1A26H   CODE     ---       dmpUpdates
L251 LINKER/LOCATER V4.66.93.0                                                        07/23/2024  16:57:56  PAGE 23


      000006F7H   EDATA    CHAR      Down_Flag
*SFR* 000000A8H.7 DATA     BIT       EA
      00000540H   EDATA    CHAR      Edge_Delay
*DEL*:00000000H   CODE     ---       eeprom_trig
      00FF4B23H   CODE     ---       Elem_Barrier
      00FF4017H   CODE     ---       Elem_Circle
      00FF6513H   CODE     ---       Elem_Up_Down
      00FF000EH   CODE     ---       EnableGlobalIRQ
*DEL*:00000000H   CODE     ---       encoder_angle_simspi
*DEL*:00000000H   CODE     ---       encoder_angle_spi
*DEL*:00000000H   CODE     ---       encoder_delay_us
*DEL*:00000000H   CODE     ---       encoder_init_simspi
*DEL*:00000000H   CODE     ---       encoder_init_spi
*DEL*:00000000H   CODE     ---       encoder_self4_check
*DEL*:00000000H   CODE     ---       encoder_self5_check
*DEL*:00000000H   CODE     ---       encoder_simspi_r_reg_byte
*DEL*:00000000H   CODE     ---       encoder_simspi_w_reg_byte
*DEL*:00000000H   CODE     ---       encoder_spi_r_reg_byte
*DEL*:00000000H   CODE     ---       encoder_spi_w_reg_byte
*SFR* 000000A8H.4 DATA     BIT       ES
*SFR* 000000A8H.1 DATA     BIT       ET0
*SFR* 000000A8H.3 DATA     BIT       ET1
*SFR* 000000A8H.0 DATA     BIT       EX0
*SFR* 000000A8H.2 DATA     BIT       EX1
*DEL*:00000000H   CODE     ---       exit_init
      00000508H   EDATA    FLOAT     Exp_Speed
      0000050EH   EDATA    FLOAT     Exp_Speed_gain
      00000525H   EDATA    FLOAT     Exp_Speed_L
      00000529H   EDATA    FLOAT     Exp_Speed_R
*DEL*:00000000H   CODE     ---       extern_iap_write_bytes
*SFR* 000000D0H.5 DATA     BIT       F0
*DEL*:00000000H   CODE     ---       fifo_clear
*DEL*:00000000H   CODE     ---       fifo_end_offset
      00FF648FH   CODE     ---       fifo_head_offset
*DEL*:00000000H   CODE     ---       fifo_init
*DEL*:00000000H   CODE     ---       fifo_read_buffer
*DEL*:00000000H   CODE     ---       fifo_used
      00FF50DAH   CODE     ---       fifo_write_buffer
      00FF68C4H   CODE     ---       Filter_Window
      00000536H   EDATA    FLOAT     Flag_Out_L
      0000053CH   EDATA    FLOAT     Flag_Out_R
      0000050DH   EDATA    CHAR      Flag_Stop
*DEL*:00000000H   CODE     ---       get_icm20602_accdata_simiic
*DEL*:00000000H   CODE     ---       get_icm20602_accdata_simspi
*DEL*:00000000H   CODE     ---       get_icm20602_gyro_simiic
*DEL*:00000000H   CODE     ---       get_icm20602_gyro_simspi
      00FF49ECH   CODE     ---       Get_Ratio
      00FF5295H   CODE     ---       Get_Speed
      00FF6AC2H   CODE     ---       getDeviceID
      00FF0026H   CODE     ---       getFIFOCount
      00FF5D3FH   CODE     ---       GetKey_Value
      00FF31D5H   CODE     ---       gpio_mode
*DEL*:00000000H   CODE     ---       gpio_pull_set
      00000542H   EDATA    INT       gx
      00000544H   EDATA    INT       gy
      00000546H   EDATA    INT       gz
*DEL*:00000000H   CODE     ---       HC_SR04_Init
      00FF6BBAH   CODE     ---       i2c_ack
      00FF6D05H   CODE     ---       i2c_delay
      00FF5BD5H   CODE     ---       i2c_mem_read
      00FF5FC9H   CODE     ---       i2c_mem_write
      00FF6C0BH   CODE     ---       i2c_nack
      00FF67CFH   CODE     ---       i2c_read_bit
      00FF5E95H   CODE     ---       i2c_read_bits
      00FF66FCH   CODE     ---       i2c_read_byte
L251 LINKER/LOCATER V4.66.93.0                                                        07/23/2024  16:57:56  PAGE 24


      00FF005EH   CODE     ---       I2C_SCL_H
      00FF0086H   CODE     ---       I2C_SCL_L
      00FF001EH   CODE     ---       I2C_SDA_H
      00FF0056H   CODE     ---       I2C_SDA_L
      00FF0006H   CODE     ---       I2C_SDA_Read
      00FF6C1DH   CODE     ---       i2c_start
      00FF6C82H   CODE     ---       i2c_stop
      00FF6CEFH   CODE     ---       i2c_timeout_delay
      00FF6945H   CODE     ---       i2c_wait_ack
      00FF6086H   CODE     ---       i2c_write_bit
      00FF5B58H   CODE     ---       i2c_write_bits
      00FF6802H   CODE     ---       i2c_write_byte
*SFR* 000000F6H   DATA     BYTE      IAP_ADDRE
*SFR* 000000C3H   DATA     BYTE      IAP_ADDRH
*SFR* 000000C4H   DATA     BYTE      IAP_ADDRL
*SFR* 000000C5H   DATA     BYTE      IAP_CMD
*SFR* 000000C7H   DATA     BYTE      IAP_CONTR
*SFR* 000000C2H   DATA     BYTE      IAP_DATA
*DEL*:00000000H   CODE     ---       iap_erase_page
*DEL*:00000000H   CODE     ---       iap_get_cmd_state
*DEL*:00000000H   CODE     ---       iap_idle
*DEL*:00000000H   CODE     ---       iap_init
*DEL*:00000000H   CODE     ---       iap_read_bytes
*DEL*:00000000H   CODE     ---       iap_set_tps
*SFR* 000000F5H   DATA     BYTE      IAP_TPS
*SFR* 000000C6H   DATA     BYTE      IAP_TRIG
*DEL*:00000000H   CODE     ---       iap_write_bytes
*DEL*:00000000H   CODE     ---       icm20602_init_simiic
*DEL*:00000000H   CODE     ---       icm20602_init_simspi
*DEL*:00000000H   CODE     ---       icm20602_self1_check
*DEL*:00000000H   CODE     ---       icm20602_self4_check
      0000073BH   EDATA    INT       icm_acc_x
      0000073DH   EDATA    INT       icm_acc_y
      0000073FH   EDATA    INT       icm_acc_z
      00000741H   EDATA    INT       icm_gyro_x
      00000743H   EDATA    INT       icm_gyro_y
      00000745H   EDATA    INT       icm_gyro_z
*DEL*:00000000H   CODE     ---       icm_simspi_r_reg_byte
*DEL*:00000000H   CODE     ---       icm_simspi_r_reg_bytes
*DEL*:00000000H   CODE     ---       icm_simspi_w_reg_byte
*DEL*:00000000H   CODE     ---       icm_simspi_wr_byte
*SFR* 000000A8H   DATA     BYTE      IE
*SFR* 000000AFH   DATA     BYTE      IE2
      00000751H   EDATA    BYTE      IIC_ad_main
      00000753H   EDATA    BYTE      IIC_ad_sub
      00000754H   EDATA    ---       IIC_buf
*DEL*:00000000H   CODE     ---       iic_change_pin
*DEL*:00000000H   CODE     ---       iic_delay_us
*DEL*:00000000H   CODE     ---       iic_init
      00000752H   EDATA    BYTE      IIC_num
*DEL*:00000000H   CODE     ---       iic_read_reg
*DEL*:00000000H   CODE     ---       iic_read_reg_bytes
*DEL*:00000000H   CODE     ---       iic_write_reg
      00FF4C2AH   CODE     ---       Init_all
      00FF6835H   CODE     ---       initMPU6050
      00FF6D54H   CODE     ---       INT0_Isr
      00FF0011H   CODE     ---       INT1_Isr
      00FF6D2CH   CODE     ---       INT2_Isr
      00FF6D34H   CODE     ---       INT3_Isr
      00FF6D3CH   CODE     ---       INT4_Isr
*SFR* 0000008FH   DATA     BYTE      INTCLKO
*SFR* 000000B8H   DATA     BYTE      IP
*SFR* 000000B5H   DATA     BYTE      IP2
*SFR* 000000B6H   DATA     BYTE      IP2H
*SFR* 000000B7H   DATA     BYTE      IPH
L251 LINKER/LOCATER V4.66.93.0                                                        07/23/2024  16:57:56  PAGE 25


*DEL*:00000000H   CODE     ---       ips114_clear
*DEL*:00000000H   CODE     ---       ips114_clear_simspi
*DEL*:00000000H   CODE     ---       ips114_drawpoint
*DEL*:00000000H   CODE     ---       ips114_drawpoint_simspi
*DEL*:00000000H   CODE     ---       ips114_init
*DEL*:00000000H   CODE     ---       ips114_init_simspi
*DEL*:00000000H   CODE     ---       ips114_set_region
*DEL*:00000000H   CODE     ---       ips114_set_region_simspi
*DEL*:00000000H   CODE     ---       ips114_showchar
*DEL*:00000000H   CODE     ---       ips114_showchar_simspi
*DEL*:00000000H   CODE     ---       ips114_showfloat
*DEL*:00000000H   CODE     ---       ips114_showfloat_simspi
*DEL*:00000000H   CODE     ---       ips114_showint16
*DEL*:00000000H   CODE     ---       ips114_showint16_simspi
*DEL*:00000000H   CODE     ---       ips114_showint32
*DEL*:00000000H   CODE     ---       ips114_showint32_simspi
*DEL*:00000000H   CODE     ---       ips114_showint8
*DEL*:00000000H   CODE     ---       ips114_showint8_simspi
*DEL*:00000000H   CODE     ---       ips114_showstr
*DEL*:00000000H   CODE     ---       ips114_showstr_simspi
*DEL*:00000000H   CODE     ---       ips114_showuint16
*DEL*:00000000H   CODE     ---       ips114_showuint16_simspi
*DEL*:00000000H   CODE     ---       ips114_showuint8
*DEL*:00000000H   CODE     ---       ips114_showuint8_simspi
*DEL*:00000000H   CODE     ---       ips114_writeData
*DEL*:00000000H   CODE     ---       ips114_writedata_16bit
*DEL*:00000000H   CODE     ---       ips114_writeData_simspi
*DEL*:00000000H   CODE     ---       ips114_writeDatai_16bit_simspi
*DEL*:00000000H   CODE     ---       ips114_writeIndex
*DEL*:00000000H   CODE     ---       ips114_writeIndex_simspi
      00000541H   EDATA    CHAR      Isr_Flag_10
*SFR* 00000088H.0 DATA     BIT       IT0
*SFR* 00000088H.2 DATA     BIT       IT1
      00FF6A36H   CODE     ---       Key_Init
      000006B4H   EDATA    CHAR      KeyValue
*DEL*:00000000H   CODE     ---       lcd_clear
*DEL*:00000000H   CODE     ---       lcd_clear_simspi
*DEL*:00000000H   CODE     ---       lcd_drawpoint
*DEL*:00000000H   CODE     ---       lcd_drawpoint_simspi
*DEL*:00000000H   CODE     ---       lcd_init
*DEL*:00000000H   CODE     ---       lcd_init_simspi
*DEL*:00000000H   CODE     ---       lcd_set_region
*DEL*:00000000H   CODE     ---       lcd_set_region_simspi
*DEL*:00000000H   CODE     ---       lcd_showchar
*DEL*:00000000H   CODE     ---       lcd_showchar_simspi
*DEL*:00000000H   CODE     ---       lcd_showfloat
*DEL*:00000000H   CODE     ---       lcd_showfloat_simspi
*DEL*:00000000H   CODE     ---       lcd_showint16
*DEL*:00000000H   CODE     ---       lcd_showint16_simspi
*DEL*:00000000H   CODE     ---       lcd_showint32
*DEL*:00000000H   CODE     ---       lcd_showint32_simspi
*DEL*:00000000H   CODE     ---       lcd_showint8
*DEL*:00000000H   CODE     ---       lcd_showint8_simspi
*DEL*:00000000H   CODE     ---       lcd_showstr
*DEL*:00000000H   CODE     ---       lcd_showstr_simspi
*DEL*:00000000H   CODE     ---       lcd_showuint16
*DEL*:00000000H   CODE     ---       lcd_showuint16_simspi
*DEL*:00000000H   CODE     ---       lcd_showuint8
*DEL*:00000000H   CODE     ---       lcd_showuint8_simspi
*DEL*:00000000H   CODE     ---       lcd_writeData
*DEL*:00000000H   CODE     ---       lcd_writedata_16bit
*DEL*:00000000H   CODE     ---       lcd_writeData_16bit_simspi
*DEL*:00000000H   CODE     ---       lcd_writeData_simspi
*DEL*:00000000H   CODE     ---       lcd_writeIndex
*DEL*:00000000H   CODE     ---       lcd_writeIndex_simspi
L251 LINKER/LOCATER V4.66.93.0                                                        07/23/2024  16:57:56  PAGE 26


      00FF5419H   CODE     ---       Left_SetSpeed
      000002B8H   EDATA    ---       Left_Wheel
      00FF68EFH   CODE     ---       Limit_Out
      00FF5639H   CODE     ---       loadcfgupd
      00FF5AD7H   CODE     ---       loadfirmware
      00FF43E8H   CODE     ---       main
      00FF6A11H   CODE     ---       memcpy?_
      00FF6B3EH   CODE     ---       memset?_
      00000763H   EDATA    CHAR      Mode
      00FF6408H   CODE     ---       Motor_Init
*DEL*:00000000H   CODE     ---       Motor_Test
      00FF6A7DH   CODE     ---       MPU6050_DMP_Init
*DEL*:00000000H   CODE     ---       mpu6050_get_accdata
*DEL*:00000000H   CODE     ---       mpu6050_get_gyro
*DEL*:00000000H   CODE     ---       mpu6050_init
      00FF3B51H   CODE     ---       MPU6050_Refresh_DMP
*DEL*:00000000H   CODE     ---       mpu6050_self1_check
      0000072FH   EDATA    INT       mpu_acc_x
      00000731H   EDATA    INT       mpu_acc_y
      00000733H   EDATA    INT       mpu_acc_z
      00FF6BE4H   CODE     ---       MPU_Delay_Ms
*DEL*:00000000H   CODE     ---       MPU_Get_Accelerometer
      00FF60E2H   CODE     ---       MPU_Get_Gyroscope
*DEL*:00000000H   CODE     ---       MPU_Get_Temperature
      00000735H   EDATA    INT       mpu_gyro_x
      00000737H   EDATA    INT       mpu_gyro_y
      00000739H   EDATA    INT       mpu_gyro_z
*DEL*:00000000H   CODE     ---       MPU_Init
      00FF6D1AH   CODE     ---       MPU_Read_Bit
      00FF0046H   CODE     ---       MPU_Read_Bits
*DEL*:00000000H   CODE     ---       MPU_Read_Byte
      00FF6CE4H   CODE     ---       MPU_Read_Len
*DEL*:00000000H   CODE     ---       MPU_Set_Accel_Fsr
*DEL*:00000000H   CODE     ---       MPU_Set_Gyro_Fsr
*DEL*:00000000H   CODE     ---       MPU_Set_LPF
*DEL*:00000000H   CODE     ---       MPU_Set_Rate
      000004EBH   EDATA    CHAR      mpu_state
      00FF6CCAH   CODE     ---       MPU_Write_Bit
      00FF6CBDH   CODE     ---       MPU_Write_Bits
      00FF6BCFH   CODE     ---       MPU_Write_Byte
      00FF6CFAH   CODE     ---       MPU_Write_Len
      00FF6C2FH   CODE     ---       Num2Abs
      00FF58ACH   CODE     ---       number_conversion_ascii
*DEL*:00000000H   CODE     ---       NVIC_SetPriority
      00FF0C86H   CODE     ---       oled_6x8
      00FF00A6H   CODE     ---       oled_8x16
      00FF64D1H   CODE     ---       oled_all_static_state
*DEL*:00000000H   CODE     ---       oled_change_value
*DEL*:00000000H   CODE     ---       oled_clrpixel
*DEL*:00000000H   CODE     ---       oled_clrpixel_spi
*DEL*:00000000H   CODE     ---       oled_dis_bmp
*DEL*:00000000H   CODE     ---       oled_dis_bmp_spi
      00FF679CH   CODE     ---       oled_fill
*DEL*:00000000H   CODE     ---       oled_fill_spi
*DEL*:00000000H   CODE     ---       oled_hexascii
*DEL*:00000000H   CODE     ---       oled_hexascii_spi
      00FF56DFH   CODE     ---       oled_init
*DEL*:00000000H   CODE     ---       oled_init_spi
*DEL*:00000000H   CODE     ---       oled_int16
*DEL*:00000000H   CODE     ---       oled_int16_spi
*DEL*:00000000H   CODE     ---       oled_p6x8str
*DEL*:00000000H   CODE     ---       oled_p6x8str_spi
      00FF4F0EH   CODE     ---       oled_p8x16str
*DEL*:00000000H   CODE     ---       oled_p8x16str_spi
*DEL*:00000000H   CODE     ---       oled_print_chinese
L251 LINKER/LOCATER V4.66.93.0                                                        07/23/2024  16:57:56  PAGE 27


*DEL*:00000000H   CODE     ---       oled_print_chinese_spi
      00FF4D26H   CODE     ---       oled_printf_float
*DEL*:00000000H   CODE     ---       oled_printf_float_spi
*DEL*:00000000H   CODE     ---       oled_printf_int32
*DEL*:00000000H   CODE     ---       oled_printf_int32_spi
*DEL*:00000000H   CODE     ---       oled_putpixel
*DEL*:00000000H   CODE     ---       oled_putpixel_spi
      00FF6A5AH   CODE     ---       oled_set_pos
*DEL*:00000000H   CODE     ---       oled_set_pos_spi
      00FF644CH   CODE     ---       oled_show
*DEL*:00000000H   CODE     ---       oled_uint16
*DEL*:00000000H   CODE     ---       oled_uint16_spi
      00FF696FH   CODE     ---       oled_wrcmd
*DEL*:00000000H   CODE     ---       oled_wrcmd_spi
      00FF6998H   CODE     ---       oled_wrdat
*DEL*:00000000H   CODE     ---       oled_wrdat_spi
*SFR* 00000080H   DATA     BYTE      P0
*SFR* 00000080H.7 DATA     BIT       P07
*SFR* 00000094H   DATA     BYTE      P0M0
*SFR* 00000093H   DATA     BYTE      P0M1
*SFR* 00000090H   DATA     BYTE      P1
*SFR* 00000092H   DATA     BYTE      P1M0
*SFR* 00000091H   DATA     BYTE      P1M1
*SFR* 000000A0H   DATA     BYTE      P2
*SFR* 000000A0H.0 DATA     BIT       P20
*SFR* 000000A0H.1 DATA     BIT       P21
*SFR* 000000A0H.2 DATA     BIT       P22
*SFR* 000000A0H.3 DATA     BIT       P23
*SFR* 000000A0H.4 DATA     BIT       P24
*SFR* 000000A0H.5 DATA     BIT       P25
*SFR* 000000A0H.6 DATA     BIT       P26
*SFR* 000000A0H.7 DATA     BIT       P27
*SFR* 00000096H   DATA     BYTE      P2M0
*SFR* 00000095H   DATA     BYTE      P2M1
*SFR* 000000B0H   DATA     BYTE      P3
*SFR* 000000B0H.2 DATA     BIT       P32
*SFR* 000000B0H.3 DATA     BIT       P33
*SFR* 000000B0H.5 DATA     BIT       P35
*SFR* 000000B2H   DATA     BYTE      P3M0
*SFR* 000000B1H   DATA     BYTE      P3M1
*SFR* 000000C0H   DATA     BYTE      P4
*SFR* 000000C0H.0 DATA     BIT       P40
*SFR* 000000C0H.1 DATA     BIT       P41
*SFR* 000000C0H.2 DATA     BIT       P42
*SFR* 000000C0H.3 DATA     BIT       P43
*SFR* 000000B4H   DATA     BYTE      P4M0
*SFR* 000000B3H   DATA     BYTE      P4M1
*SFR* 000000C8H   DATA     BYTE      P5
*SFR* 000000C8H.0 DATA     BIT       P50
*SFR* 000000C8H.1 DATA     BIT       P51
*SFR* 000000C8H.2 DATA     BIT       P52
*SFR* 000000C8H.3 DATA     BIT       P53
*SFR* 000000CAH   DATA     BYTE      P5M0
*SFR* 000000C9H   DATA     BYTE      P5M1
*SFR* 000000E8H   DATA     BYTE      P6
*SFR* 000000CCH   DATA     BYTE      P6M0
*SFR* 000000CBH   DATA     BYTE      P6M1
*SFR* 000000F8H   DATA     BYTE      P7
*SFR* 000000F8H.0 DATA     BIT       P70
*SFR* 000000F8H.1 DATA     BIT       P71
*SFR* 000000F8H.2 DATA     BIT       P72
*SFR* 000000F8H.3 DATA     BIT       P73
*SFR* 000000E2H   DATA     BYTE      P7M0
*SFR* 000000E1H   DATA     BYTE      P7M1
*SFR* 000000A2H   DATA     BYTE      P_SW1
L251 LINKER/LOCATER V4.66.93.0                                                        07/23/2024  16:57:56  PAGE 28


*SFR* 000000BAH   DATA     BYTE      P_SW2
      00000008H   EDATA    CHAR      page
      00FF558FH   CODE     ---       PID_Calculate
      00FF458FH   CODE     ---       PID_Incremental_Calc
      00FF593EH   CODE     ---       PID_Incremental_Init
      00FF5F69H   CODE     ---       PID_Init
      00FF5818H   CODE     ---       pit_timer_ms
*DEL*:00000000H   CODE     ---       pit_timer_us
      000004ECH   EDATA    FLOAT     Pitch
      0000051AH   EDATA    FLOAT     Plus
      00000516H   EDATA    FLOAT     Plus_Mid
      00FF115BH   CODE     NEAR LAB  printf
      00FF6593H   CODE     ---       printf_reverse_order
*SFR* 000000D0H   DATA     BYTE      PSW
      00FF6CAFH   CODE     ---       putchar
      00FF6FBAH   HCONST   ---       PWM_ARR_ADDR
      00FF6FC2H   HCONST   ---       PWM_CCER_ADDR
      00FF6FD2H   HCONST   ---       PWM_CCMR_ADDR
      00FF6F9AH   HCONST   ---       PWM_CCR_ADDR
      00FF54D7H   CODE     ---       pwm_duty
*DEL*:00000000H   CODE     ---       pwm_freq
      00FF35CCH   CODE     ---       pwm_init
      00FF38B0H   CODE     ---       pwm_set_gpio
      000004B1H   EDATA    ---       Q
      00000500H   EDATA    FLOAT     Ratio
      00000554H   EDATA    FLOAT     Ratio_Mid
*DEL*:00000000H   CODE     ---       read_ch
      0000050CH   EDATA    CHAR      Read_Nums
      00FF6C91H   CODE     ---       readdmp
*DEL*:00000000H   CODE     ---       recv_ack
*DEL*:00000000H   CODE     ---       recv_data
      00FF5782H   CODE     ---       refresh_value
      00FF535BH   CODE     ---       Right_SetSpeed
      0000027BH   EDATA    ---       Right_Wheel
      00000499H   EDATA    FLOAT     Roll
*SFR* 000000FFH   DATA     BYTE      RSTCFG
*SFR* 0000009BH   DATA     BYTE      S2BUF
*SFR* 0000009AH   DATA     BYTE      S2CON
*SFR* 000000ADH   DATA     BYTE      S3BUF
*SFR* 000000ACH   DATA     BYTE      S3CON
*SFR* 000000FEH   DATA     BYTE      S4BUF
*SFR* 000000FDH   DATA     BYTE      S4CON
*SFR* 00000099H   DATA     BYTE      SBUF
*SFR* 00000098H   DATA     BYTE      SCON
*DEL*:00000000H   CODE     ---       send_ack
*DEL*:00000000H   CODE     ---       send_ch
*DEL*:00000000H   CODE     ---       send_data
*DEL*:00000000H   CODE     ---       send_nak
*DEL*:00000000H   CODE     ---       set_zero_position_simspi
*DEL*:00000000H   CODE     ---       set_zero_position_spi
*DEL*:00000000H   CODE     ---       showimage
*DEL*:00000000H   CODE     ---       simiic_delay
*DEL*:00000000H   CODE     ---       simiic_init
*DEL*:00000000H   CODE     ---       simiic_read_reg
*DEL*:00000000H   CODE     ---       simiic_read_regs
*DEL*:00000000H   CODE     ---       simiic_sendack
*DEL*:00000000H   CODE     ---       simiic_start
*DEL*:00000000H   CODE     ---       simiic_stop
*DEL*:00000000H   CODE     ---       simiic_write_reg
*DEL*:00000000H   CODE     ---       simspi_r_reg_byte
*DEL*:00000000H   CODE     ---       simspi_w_reg_byte
*DEL*:00000000H   CODE     ---       simspi_wr_byte
      00000520H   EDATA    FLOAT     Slow
*DEL*:00000000H   CODE     ---       sonar
*SFR* 000000CEH   DATA     BYTE      SPCTL
L251 LINKER/LOCATER V4.66.93.0                                                        07/23/2024  16:57:56  PAGE 29


*SFR* 000000CFH   DATA     BYTE      SPDAT
      000006E7H   EDATA    CHAR      Special_Elem
      0000053AH   EDATA    INT       Speed_Delay
      00FF5C4FH   CODE     ---       Speed_Gain
      0000070DH   EDATA    FLOAT     Speed_L
      00000711H   EDATA    FLOAT     Speed_R
*DEL*:00000000H   CODE     ---       spi_change_mode
*DEL*:00000000H   CODE     ---       spi_change_pin
*DEL*:00000000H   CODE     ---       spi_init
*DEL*:00000000H   CODE     ---       spi_mosi
*DEL*:00000000H   CODE     ---       spi_r_reg_byte
*DEL*:00000000H   CODE     ---       spi_w_reg_byte
*DEL*:00000000H   CODE     ---       spi_wr_byte
*SFR* 000000CDH   DATA     BYTE      SPSTAT
      00FF1187H   CODE     ---       sqrt?_
*DEL*:00000000H   CODE     ---       start
*DEL*:00000000H   CODE     ---       stop
      00FF6BF8H   CODE     NEAR LAB  strcpy?_
      0000052DH   EDATA    FLOAT     Sum_Dis
      00000504H   EDATA    FLOAT     sum_L
      00000512H   EDATA    FLOAT     sum_R
      00000758H   EDATA    LONG      sys_clk
*SFR* 000000D6H   DATA     BYTE      T2H
*SFR* 000000D7H   DATA     BYTE      T2L
*SFR* 000000D4H   DATA     BYTE      T3H
*SFR* 000000D5H   DATA     BYTE      T3L
*SFR* 000000D2H   DATA     BYTE      T4H
*SFR* 000000D3H   DATA     BYTE      T4L
*SFR* 000000DDH   DATA     BYTE      T4T3M
*SFR* 00000088H   DATA     BYTE      TCON
      00FF0696H   CODE     ---       tft_ascii
*SFR* 0000008CH   DATA     BYTE      TH0
*SFR* 0000008DH   DATA     BYTE      TH1
      00000721H   EDATA    INT       time
*SFR* 0000008AH   DATA     BYTE      TL0
*SFR* 0000008BH   DATA     BYTE      TL1
      00FF0012H   CODE     ---       TM0_Isr
      00FF0019H   CODE     ---       TM1_Isr
      00FF6D44H   CODE     ---       TM2_Isr
      00FF6D4CH   CODE     ---       TM3_Isr
      00FF2D9AH   CODE     ---       TM4_Isr
*SFR* 00000089H   DATA     BYTE      TMOD
*SFR* 00000088H.4 DATA     BIT       TR0
*SFR* 00000088H.6 DATA     BIT       TR1
      0000013DH   EDATA    BYTE      tsl1401_finish_flag
      0000023EH   EDATA    ---       Turn
      000002F5H   EDATA    ---       Turn_PID
      00FF660FH   CODE     ---       UART1_Isr
      00000321H   EDATA    ---       uart1_rx_buff
      00000385H   EDATA    ---       uart1_tx_buff
      00FF6B02H   CODE     ---       UART2_Isr
      00FF6B20H   CODE     ---       UART3_Isr
      00FF5F00H   CODE     ---       UART4_Isr
      00FF4229H   CODE     ---       uart_init
*DEL*:00000000H   CODE     ---       uart_putbuff
      00FF6192H   CODE     ---       uart_putchar
*DEL*:00000000H   CODE     ---       uart_putstr
      00FF6D23H   CODE     ---       ui_init
      00FF6D5BH   CODE     ---       ui_show
      00000009H   EDATA    ---       value
      00000079H   EDATA    ---       value_name
      00FF4E1EH   CODE     ---       value_name_init
      00000747H   EDATA    ---       virtual_scope_data
      00000760H   EDATA    WORD      vl53l0x_distance_mm
      00000762H   EDATA    BYTE      vl53l0x_finsh_flag
L251 LINKER/LOCATER V4.66.93.0                                                        07/23/2024  16:57:56  PAGE 30


      00FF5E28H   CODE     ---       vl53l0x_get_distance
      00FF229EH   CODE     ---       vl53l0x_init
*DEL*:00000000H   CODE     ---       wait
      00FF6B8AH   CODE     ---       wireless_ch573_callback
*DEL*:00000000H   CODE     ---       wireless_ch573_init
*DEL*:00000000H   CODE     ---       wireless_ch573_read_buff
*DEL*:00000000H   CODE     ---       wireless_ch573_send_buff
      00000766H   EDATA    INT       wireless_type
      00FF6B71H   CODE     ---       wireless_uart_callback
*DEL*:00000000H   CODE     ---       wireless_uart_init
*DEL*:00000000H   CODE     ---       wireless_uart_read_buff
*DEL*:00000000H   CODE     ---       wireless_uart_send_buff
*SFR* 000000E9H   DATA     BYTE      WTST
      0000049DH   EDATA    FLOAT     x1
      00000768H   EDATA    WORD      x10_ms
      00FF59CBH   CODE     ---       xdmpUpdates
      000004A1H   EDATA    FLOAT     y1
      000004ADH   EDATA    FLOAT     Yaw
      000004A5H   EDATA    FLOAT     z1
      00000491H   EDATA    FLOAT     z_add
      00000495H   EDATA    FLOAT     z_last
      000004A9H   EDATA    FLOAT     z_now
*DEL*:00000000H   CODE     ---       zero_all
      0000075CH   EDATA    WORD      zf_delay_ms
      0000075EH   EDATA    WORD      zf_delay_us
      00FF28A0H   CODE     ---       zf_sprintf



SYMBOL TABLE OF MODULE:  .\Out_File\SEEKFREE (board)

      VALUE       REP       CLASS    TYPE      SYMBOL NAME
      ====================================================
      ---         MODULE    ---      ---       board
      00FF000EH   PUBLIC    CODE     ---       EnableGlobalIRQ
      00FF5A56H   PUBLIC    CODE     ---       board_init
      00FF0016H   PUBLIC    CODE     ---       DisableGlobalIRQ
      00FF6CAFH   PUBLIC    CODE     ---       putchar
      00000758H   PUBLIC    EDATA    LONG      sys_clk
      00000094H   SFRSYM    DATA     BYTE      P0M0
      000000D0H   SFRSYM    DATA     BYTE      PSW
      000000FDH   SFRSYM    DATA     BYTE      S4CON
      000000ACH   SFRSYM    DATA     BYTE      S3CON
      0000009AH   SFRSYM    DATA     BYTE      S2CON
      000000B7H   SFRSYM    DATA     BYTE      IPH
      000000E9H   SFRSYM    DATA     BYTE      WTST
      000000FFH   SFRSYM    DATA     BYTE      RSTCFG
      0000008EH   SFRSYM    DATA     BYTE      AUXR
      000000AFH   SFRSYM    DATA     BYTE      IE2
      00000088H   SFRSYM    DATA     BYTE      TCON
      00000089H   SFRSYM    DATA     BYTE      TMOD
      00000098H   SFRSYM    DATA     BYTE      SCON
      000000BCH   SFRSYM    DATA     BYTE      ADC_CONTR
      000000DEH   SFRSYM    DATA     BYTE      ADCCFG
      000000B8H   SFRSYM    DATA     BYTE      IP
      000000A8H   SFRSYM    DATA     BYTE      IE
      000000BAH   SFRSYM    DATA     BYTE      P_SW2
      000000A2H   SFRSYM    DATA     BYTE      P_SW1
      000000F8H   SFRSYM    DATA     BYTE      P7
      000000A8H.7 SFRSYM    DATA     BIT       EA
      000000E1H   SFRSYM    DATA     BYTE      P7M1
      000000E8H   SFRSYM    DATA     BYTE      P6
      000000C8H   SFRSYM    DATA     BYTE      P5
      000000CBH   SFRSYM    DATA     BYTE      P6M1
      000000E2H   SFRSYM    DATA     BYTE      P7M0
L251 LINKER/LOCATER V4.66.93.0                                                        07/23/2024  16:57:56  PAGE 31


      000000C0H   SFRSYM    DATA     BYTE      P4
      000000C9H   SFRSYM    DATA     BYTE      P5M1
      000000CCH   SFRSYM    DATA     BYTE      P6M0
      000000B0H   SFRSYM    DATA     BYTE      P3
      000000B3H   SFRSYM    DATA     BYTE      P4M1
      000000CAH   SFRSYM    DATA     BYTE      P5M0
      000000A0H   SFRSYM    DATA     BYTE      P2
      000000B1H   SFRSYM    DATA     BYTE      P3M1
      000000B4H   SFRSYM    DATA     BYTE      P4M0
      00000090H   SFRSYM    DATA     BYTE      P1
      00000095H   SFRSYM    DATA     BYTE      P2M1
      000000B2H   SFRSYM    DATA     BYTE      P3M0
      00000080H   SFRSYM    DATA     BYTE      P0
      00000091H   SFRSYM    DATA     BYTE      P1M1
      00000096H   SFRSYM    DATA     BYTE      P2M0
      00000092H   SFRSYM    DATA     BYTE      P1M0
      00000093H   SFRSYM    DATA     BYTE      P0M1

      00FF5A56H   BLOCK     CODE     ---       LVL=0
      00FF5A56H   LINE      CODE     ---       #177
      00FF5A56H   LINE      CODE     ---       #179
      00FF5A59H   LINE      CODE     ---       #197
      00FF5A5CH   LINE      CODE     ---       #199
      00FF5A5FH   LINE      CODE     ---       #200
      00FF5A62H   LINE      CODE     ---       #201
      00FF5A6EH   LINE      CODE     ---       #203
      00FF5A71H   LINE      CODE     ---       #204
      00FF5A74H   LINE      CODE     ---       #205
      00FF5A77H   LINE      CODE     ---       #206
      00FF5A7AH   LINE      CODE     ---       #207
      00FF5A7DH   LINE      CODE     ---       #208
      00FF5A80H   LINE      CODE     ---       #209
      00FF5A83H   LINE      CODE     ---       #210
      00FF5A86H   LINE      CODE     ---       #211
      00FF5A89H   LINE      CODE     ---       #212
      00FF5A8CH   LINE      CODE     ---       #213
      00FF5A8FH   LINE      CODE     ---       #214
      00FF5A92H   LINE      CODE     ---       #215
      00FF5A95H   LINE      CODE     ---       #216
      00FF5A98H   LINE      CODE     ---       #217
      00FF5A9BH   LINE      CODE     ---       #218
      00FF5A9EH   LINE      CODE     ---       #220
      00FF5AA1H   LINE      CODE     ---       #221
      00FF5AA4H   LINE      CODE     ---       #222
      00FF5AA7H   LINE      CODE     ---       #223
      00FF5AAAH   LINE      CODE     ---       #224
      00FF5AADH   LINE      CODE     ---       #225
      00FF5AB0H   LINE      CODE     ---       #226
      00FF5AB3H   LINE      CODE     ---       #227
      00FF5AB6H   LINE      CODE     ---       #228
      00FF5AB9H   LINE      CODE     ---       #229
      00FF5ABCH   LINE      CODE     ---       #231
      ---         BLOCKEND  ---      ---       LVL=0

      00FF6CAFH   BLOCK     CODE     ---       LVL=0
      R15         REGSYM    ---      CHAR      c
      00FF6CAFH   LINE      CODE     ---       #237
      00FF6CB3H   LINE      CODE     ---       #239
      00FF6CB8H   LINE      CODE     ---       #241
      00FF6CBAH   LINE      CODE     ---       #242
      ---         BLOCKEND  ---      ---       LVL=0

      00FF0016H   BLOCK     CODE     ---       LVL=0
      00FF0016H   LINE      CODE     ---       #245
      00FF0016H   LINE      CODE     ---       #247
L251 LINKER/LOCATER V4.66.93.0                                                        07/23/2024  16:57:56  PAGE 32


      00FF0018H   LINE      CODE     ---       #248
      ---         BLOCKEND  ---      ---       LVL=0

      00FF000EH   BLOCK     CODE     ---       LVL=0
      00FF000EH   LINE      CODE     ---       #251
      00FF000EH   LINE      CODE     ---       #253
      00FF0010H   LINE      CODE     ---       #254
      ---         BLOCKEND  ---      ---       LVL=0

      ---         MODULE    ---      ---       common
      00000766H   PUBLIC    EDATA    INT       wireless_type
      000000D0H   SFRSYM    DATA     BYTE      PSW
      000000B7H   SFRSYM    DATA     BYTE      IPH
      00000088H   SFRSYM    DATA     BYTE      TCON
      00000098H   SFRSYM    DATA     BYTE      SCON
      000000BCH   SFRSYM    DATA     BYTE      ADC_CONTR
      000000DEH   SFRSYM    DATA     BYTE      ADCCFG
      000000B8H   SFRSYM    DATA     BYTE      IP
      000000A8H   SFRSYM    DATA     BYTE      IE
      000000F8H   SFRSYM    DATA     BYTE      P7
      000000E8H   SFRSYM    DATA     BYTE      P6
      000000C8H   SFRSYM    DATA     BYTE      P5
      000000C0H   SFRSYM    DATA     BYTE      P4
      000000B0H   SFRSYM    DATA     BYTE      P3
      000000A0H   SFRSYM    DATA     BYTE      P2
      00000090H   SFRSYM    DATA     BYTE      P1
      00000080H   SFRSYM    DATA     BYTE      P0

      ---         MODULE    ---      ---       SEEKFREE_PRINTF
      00FF58ACH   PUBLIC    CODE     ---       number_conversion_ascii
      00FF28A0H   PUBLIC    CODE     ---       zf_sprintf
      00FF6593H   PUBLIC    CODE     ---       printf_reverse_order
      00000487H   PUBLIC    EDATA    BYTE      ?number_conversion_ascii?BYTE
      00000459H   PUBLIC    EDATA    BYTE      ?zf_sprintf?BYTE
      000000D0H   SFRSYM    DATA     BYTE      PSW
      000000B7H   SFRSYM    DATA     BYTE      IPH
      00000088H   SFRSYM    DATA     BYTE      TCON
      00000098H   SFRSYM    DATA     BYTE      SCON
      000000BCH   SFRSYM    DATA     BYTE      ADC_CONTR
      000000DEH   SFRSYM    DATA     BYTE      ADCCFG
      000000B8H   SFRSYM    DATA     BYTE      IP
      000000A8H   SFRSYM    DATA     BYTE      IE
      000000F8H   SFRSYM    DATA     BYTE      P7
      000000E8H   SFRSYM    DATA     BYTE      P6
      000000C8H   SFRSYM    DATA     BYTE      P5
      000000C0H   SFRSYM    DATA     BYTE      P4
      000000B0H   SFRSYM    DATA     BYTE      P3
      000000A0H   SFRSYM    DATA     BYTE      P2
      00000090H   SFRSYM    DATA     BYTE      P1
      00000080H   SFRSYM    DATA     BYTE      P0

      00FF58ACH   BLOCK     CODE     ---       LVL=0
      DR24        REGSYM    ---      DWORD     dat
      REG=7       REGSYM    ---      ---       p
      R10         REGSYM    ---      BYTE      neg_type
      00000490H   SYMBOL    EDATA    BYTE      radix
      00FF58B4H   BLOCK     CODE     NEAR LAB  LVL=1
      DR20        REGSYM    ---      LONG      neg_dat
      DR24        REGSYM    ---      DWORD     pos_dat
      R14         REGSYM    ---      BYTE      temp_data
      R15         REGSYM    ---      BYTE      valid_num
      ---         BLOCKEND  ---      ---       LVL=1
      00FF58ACH   LINE      CODE     ---       #25
      00FF58B4H   LINE      CODE     ---       #26
      00FF58B4H   LINE      CODE     ---       #29
L251 LINKER/LOCATER V4.66.93.0                                                        07/23/2024  16:57:56  PAGE 33


      00FF58B4H   LINE      CODE     ---       #30
      00FF58B6H   LINE      CODE     ---       #32
      00FF58BAH   LINE      CODE     ---       #34
      00FF58BCH   LINE      CODE     ---       #35
      00FF58CCH   LINE      CODE     ---       #36
      00FF58CCH   LINE      CODE     ---       #38
      00FF58E2H   LINE      CODE     ---       #39
      00FF58F1H   LINE      CODE     ---       #40
      00FF58F3H   LINE      CODE     ---       #42
      00FF58F9H   LINE      CODE     ---       #43
      00FF58FBH   LINE      CODE     ---       #44
      00FF58FDH   LINE      CODE     ---       #45
      00FF58FFH   LINE      CODE     ---       #48
      00FF58FFH   LINE      CODE     ---       #49
      00FF58FFH   LINE      CODE     ---       #51
      00FF590EH   LINE      CODE     ---       #52
      00FF5918H   LINE      CODE     ---       #53
      00FF591BH   LINE      CODE     ---       #55
      00FF591EH   LINE      CODE     ---       #57
      00FF592DH   LINE      CODE     ---       #58
      00FF592FH   LINE      CODE     ---       #60
      00FF5935H   LINE      CODE     ---       #61
      00FF5937H   LINE      CODE     ---       #62
      00FF5939H   LINE      CODE     ---       #63
      00FF5939H   LINE      CODE     ---       #64
      00FF593BH   LINE      CODE     ---       #65
      ---         BLOCKEND  ---      ---       LVL=0

      00FF6593H   BLOCK     CODE     ---       LVL=0
      REG=7       REGSYM    ---      ---       d_buff
      DR24        REGSYM    ---      DWORD     len
      00FF6597H   BLOCK     CODE     NEAR LAB  LVL=1
      DR4         REGSYM    ---      DWORD     i
      R3          REGSYM    ---      CHAR      temp_data
      ---         BLOCKEND  ---      ---       LVL=1
      00FF6593H   LINE      CODE     ---       #67
      00FF6597H   LINE      CODE     ---       #68
      00FF6597H   LINE      CODE     ---       #71
      00FF659BH   LINE      CODE     ---       #73
      00FF65AAH   LINE      CODE     ---       #74
      00FF65B8H   LINE      CODE     ---       #75
      00FF65BFH   LINE      CODE     ---       #76
      00FF65D0H   LINE      CODE     ---       #77
      ---         BLOCKEND  ---      ---       LVL=0

      00FF28A0H   BLOCK     CODE     ---       LVL=0
      REG=3       REGSYM    ---      ---       buff
      0000045DH   SYMBOL    EDATA    ---       format
      00FF28A8H   BLOCK     CODE     NEAR LAB  LVL=1
      00000461H   SYMBOL    EDATA    DWORD     buff_len
      00000465H   SYMBOL    EDATA    ---       arg
      00FF28BDH   BLOCK     CODE     NEAR LAB  LVL=2
      00000469H   SYMBOL    EDATA    CHAR      ret
      00FF29E7H   BLOCK     CODE     NEAR LAB  LVL=3
      0000046AH   SYMBOL    EDATA    CHAR      ch
      ---         BLOCKEND  ---      ---       LVL=3
      00FF2A00H   BLOCK     CODE     NEAR LAB  LVL=3
      0000046AH   SYMBOL    EDATA    ---       vstr
      0000048BH   SYMBOL    EDATA    LONG      ival
      0000048FH   SYMBOL    EDATA    BYTE      vlen
      ---         BLOCKEND  ---      ---       LVL=3
      00FF2A79H   BLOCK     CODE     NEAR LAB  LVL=3
      0000046AH   SYMBOL    EDATA    ---       vstr
      0000048BH   SYMBOL    EDATA    FLOAT     ival
      0000048FH   SYMBOL    EDATA    BYTE      vlen
L251 LINKER/LOCATER V4.66.93.0                                                        07/23/2024  16:57:56  PAGE 34


      ---         BLOCKEND  ---      ---       LVL=3
      00FF2BB4H   BLOCK     CODE     NEAR LAB  LVL=3
      0000046AH   SYMBOL    EDATA    ---       vstr
      0000048BH   SYMBOL    EDATA    DWORD     ival
      0000048FH   SYMBOL    EDATA    BYTE      vlen
      ---         BLOCKEND  ---      ---       LVL=3
      00FF2C0CH   BLOCK     CODE     NEAR LAB  LVL=3
      0000046AH   SYMBOL    EDATA    ---       vstr
      0000048BH   SYMBOL    EDATA    DWORD     ival
      0000048FH   SYMBOL    EDATA    BYTE      vlen
      ---         BLOCKEND  ---      ---       LVL=3
      00FF2C63H   BLOCK     CODE     NEAR LAB  LVL=3
      0000046AH   SYMBOL    EDATA    ---       vstr
      0000048BH   SYMBOL    EDATA    DWORD     ival
      0000048FH   SYMBOL    EDATA    BYTE      vlen
      ---         BLOCKEND  ---      ---       LVL=3
      00FF2CC5H   BLOCK     CODE     NEAR LAB  LVL=3
      0000046AH   SYMBOL    EDATA    ---       pc
      ---         BLOCKEND  ---      ---       LVL=3
      00FF2D07H   BLOCK     CODE     NEAR LAB  LVL=3
      0000046AH   SYMBOL    EDATA    ---       vstr
      0000048BH   SYMBOL    EDATA    DWORD     ival
      ---         BLOCKEND  ---      ---       LVL=3
      ---         BLOCKEND  ---      ---       LVL=2
      ---         BLOCKEND  ---      ---       LVL=1
      00FF28A0H   LINE      CODE     ---       #212
      00FF28A8H   LINE      CODE     ---       #213
      00FF28A8H   LINE      CODE     ---       #214
      00FF28AEH   LINE      CODE     ---       #216
      00FF28BAH   LINE      CODE     ---       #218
      00FF28BDH   LINE      CODE     ---       #219
      00FF28BDH   LINE      CODE     ---       #220
      00FF28C8H   LINE      CODE     ---       #221
      00FF28D0H   LINE      CODE     ---       #223
      00FF29E7H   LINE      CODE     ---       #225
      00FF29E7H   LINE      CODE     ---       #229
      00FF29E7H   LINE      CODE     ---       #232
      00FF29E7H   LINE      CODE     ---       #233
      00FF29E7H   LINE      CODE     ---       #234
      00FF29FDH   LINE      CODE     ---       #235
      00FF29FDH   LINE      CODE     ---       #236
      00FF29FDH   LINE      CODE     ---       #237
      00FF29FDH   LINE      CODE     ---       #239
      00FF2A00H   LINE      CODE     ---       #242
      00FF2A00H   LINE      CODE     ---       #243
      00FF2A00H   LINE      CODE     ---       #244
      00FF2A00H   LINE      CODE     ---       #246
      00FF2A19H   LINE      CODE     ---       #247
      00FF2A2CH   LINE      CODE     ---       #249
      00FF2A36H   LINE      CODE     ---       #251
      00FF2A43H   LINE      CODE     ---       #252
      00FF2A48H   LINE      CODE     ---       #253
      00FF2A48H   LINE      CODE     ---       #254
      00FF2A57H   LINE      CODE     ---       #255
      00FF2A6AH   LINE      CODE     ---       #256
      00FF2A72H   LINE      CODE     ---       #257
      00FF2A76H   LINE      CODE     ---       #260
      00FF2A79H   LINE      CODE     ---       #262
      00FF2A79H   LINE      CODE     ---       #263
      00FF2A79H   LINE      CODE     ---       #264
      00FF2A79H   LINE      CODE     ---       #266
      00FF2A92H   LINE      CODE     ---       #267
      00FF2AA8H   LINE      CODE     ---       #269
      00FF2AB3H   LINE      CODE     ---       #271
      00FF2AC0H   LINE      CODE     ---       #272
L251 LINKER/LOCATER V4.66.93.0                                                        07/23/2024  16:57:56  PAGE 35


      00FF2AC5H   LINE      CODE     ---       #273
      00FF2AC5H   LINE      CODE     ---       #274
      00FF2AD4H   LINE      CODE     ---       #275
      00FF2AE7H   LINE      CODE     ---       #276
      00FF2AEFH   LINE      CODE     ---       #277
      00FF2B01H   LINE      CODE     ---       #279
      00FF2B25H   LINE      CODE     ---       #280
      00FF2B2BH   LINE      CODE     ---       #282
      00FF2B3DH   LINE      CODE     ---       #283
      00FF2B3FH   LINE      CODE     ---       #286
      00FF2B59H   LINE      CODE     ---       #287
      00FF2B5FH   LINE      CODE     ---       #288
      00FF2B5FH   LINE      CODE     ---       #290
      00FF2B64H   LINE      CODE     ---       #292
      00FF2B6EH   LINE      CODE     ---       #293
      00FF2B73H   LINE      CODE     ---       #294
      00FF2B7CH   LINE      CODE     ---       #296
      00FF2B84H   LINE      CODE     ---       #297
      00FF2B8BH   LINE      CODE     ---       #299
      00FF2B9AH   LINE      CODE     ---       #300
      00FF2BADH   LINE      CODE     ---       #301
      00FF2BB1H   LINE      CODE     ---       #303
      00FF2BB4H   LINE      CODE     ---       #306
      00FF2BB4H   LINE      CODE     ---       #307
      00FF2BB4H   LINE      CODE     ---       #309
      00FF2BCDH   LINE      CODE     ---       #310
      00FF2BDFH   LINE      CODE     ---       #312
      00FF2BEAH   LINE      CODE     ---       #313
      00FF2BFDH   LINE      CODE     ---       #314
      00FF2C05H   LINE      CODE     ---       #315
      00FF2C09H   LINE      CODE     ---       #316
      00FF2C0CH   LINE      CODE     ---       #318
      00FF2C0CH   LINE      CODE     ---       #319
      00FF2C0CH   LINE      CODE     ---       #321
      00FF2C25H   LINE      CODE     ---       #322
      00FF2C37H   LINE      CODE     ---       #324
      00FF2C42H   LINE      CODE     ---       #325
      00FF2C55H   LINE      CODE     ---       #326
      00FF2C5DH   LINE      CODE     ---       #327
      00FF2C61H   LINE      CODE     ---       #329
      00FF2C63H   LINE      CODE     ---       #331
      00FF2C63H   LINE      CODE     ---       #332
      00FF2C63H   LINE      CODE     ---       #333
      00FF2C63H   LINE      CODE     ---       #335
      00FF2C7CH   LINE      CODE     ---       #336
      00FF2C8EH   LINE      CODE     ---       #338
      00FF2C99H   LINE      CODE     ---       #339
      00FF2CACH   LINE      CODE     ---       #340
      00FF2CB4H   LINE      CODE     ---       #341
      00FF2CC2H   LINE      CODE     ---       #342
      00FF2CC5H   LINE      CODE     ---       #345
      00FF2CC5H   LINE      CODE     ---       #346
      00FF2CC5H   LINE      CODE     ---       #347
      00FF2CDAH   LINE      CODE     ---       #348
      00FF2CDCH   LINE      CODE     ---       #350
      00FF2CE6H   LINE      CODE     ---       #351
      00FF2CE8H   LINE      CODE     ---       #352
      00FF2CF2H   LINE      CODE     ---       #353
      00FF2CFCH   LINE      CODE     ---       #354
      00FF2D05H   LINE      CODE     ---       #355
      00FF2D07H   LINE      CODE     ---       #357
      00FF2D07H   LINE      CODE     ---       #358
      00FF2D07H   LINE      CODE     ---       #360
      00FF2D20H   LINE      CODE     ---       #362
      00FF2D2EH   LINE      CODE     ---       #364
L251 LINKER/LOCATER V4.66.93.0                                                        07/23/2024  16:57:56  PAGE 36


      00FF2D39H   LINE      CODE     ---       #365
      00FF2D4AH   LINE      CODE     ---       #366
      00FF2D4EH   LINE      CODE     ---       #367
      00FF2D56H   LINE      CODE     ---       #369
      00FF2D58H   LINE      CODE     ---       #372
      00FF2D58H   LINE      CODE     ---       #374
      00FF2D5DH   LINE      CODE     ---       #375
      00FF2D5FH   LINE      CODE     ---       #376
      00FF2D65H   LINE      CODE     ---       #377
      00FF2D67H   LINE      CODE     ---       #379
      00FF2D67H   LINE      CODE     ---       #380
      00FF2D67H   LINE      CODE     ---       #381
      00FF2D67H   LINE      CODE     ---       #384
      00FF2D71H   LINE      CODE     ---       #385
      00FF2D73H   LINE      CODE     ---       #386
      00FF2D7DH   LINE      CODE     ---       #387
      00FF2D7DH   LINE      CODE     ---       #388
      00FF2D87H   LINE      CODE     ---       #389
      00FF2D93H   LINE      CODE     ---       #392
      00FF2D97H   LINE      CODE     ---       #393
      ---         BLOCKEND  ---      ---       LVL=0

      ---         MODULE    ---      ---       zf_adc
      00FF6868H   PUBLIC    CODE     ---       adc_once
      00FF6028H   PUBLIC    CODE     ---       adc_init
      00000094H   SFRSYM    DATA     BYTE      P0M0
      000000D0H   SFRSYM    DATA     BYTE      PSW
      000000B7H   SFRSYM    DATA     BYTE      IPH
      000000BEH   SFRSYM    DATA     BYTE      ADC_RESL
      00000088H   SFRSYM    DATA     BYTE      TCON
      00000098H   SFRSYM    DATA     BYTE      SCON
      000000BCH   SFRSYM    DATA     BYTE      ADC_CONTR
      000000DEH   SFRSYM    DATA     BYTE      ADCCFG
      000000B8H   SFRSYM    DATA     BYTE      IP
      000000BDH   SFRSYM    DATA     BYTE      ADC_RES
      000000A8H   SFRSYM    DATA     BYTE      IE
      000000F8H   SFRSYM    DATA     BYTE      P7
      000000E8H   SFRSYM    DATA     BYTE      P6
      000000C8H   SFRSYM    DATA     BYTE      P5
      000000C0H   SFRSYM    DATA     BYTE      P4
      000000B0H   SFRSYM    DATA     BYTE      P3
      000000A0H   SFRSYM    DATA     BYTE      P2
      00000090H   SFRSYM    DATA     BYTE      P1
      00000080H   SFRSYM    DATA     BYTE      P0
      00000091H   SFRSYM    DATA     BYTE      P1M1
      00000092H   SFRSYM    DATA     BYTE      P1M0
      00000093H   SFRSYM    DATA     BYTE      P0M1

      00FF6028H   BLOCK     CODE     ---       LVL=0
      WR4         REGSYM    ---      INT       adcn
      WR2         REGSYM    ---      INT       speed
      00FF6028H   LINE      CODE     ---       #32
      00FF602CH   LINE      CODE     ---       #34
      00FF602FH   LINE      CODE     ---       #36
      00FF6032H   LINE      CODE     ---       #37
      00FF6038H   LINE      CODE     ---       #39
      00FF6044H   LINE      CODE     ---       #42
      00FF6059H   LINE      CODE     ---       #43
      00FF605DH   LINE      CODE     ---       #44
      00FF605FH   LINE      CODE     ---       #45
      00FF6063H   LINE      CODE     ---       #48
      00FF6078H   LINE      CODE     ---       #49
      00FF607CH   LINE      CODE     ---       #50
      00FF607CH   LINE      CODE     ---       #52
      00FF6082H   LINE      CODE     ---       #54
L251 LINKER/LOCATER V4.66.93.0                                                        07/23/2024  16:57:56  PAGE 37


      00FF6085H   LINE      CODE     ---       #55
      ---         BLOCKEND  ---      ---       LVL=0

      00FF6868H   BLOCK     CODE     ---       LVL=0
      WR6         REGSYM    ---      INT       adcn
      WR4         REGSYM    ---      INT       resolution
      WR6         REGSYM    ---      WORD      adc_value
      00FF6868H   LINE      CODE     ---       #66
      00FF6868H   LINE      CODE     ---       #67
      00FF6868H   LINE      CODE     ---       #70
      00FF686BH   LINE      CODE     ---       #71
      00FF686FH   LINE      CODE     ---       #73
      00FF6872H   LINE      CODE     ---       #74
      00FF6877H   LINE      CODE     ---       #75
      00FF687AH   LINE      CODE     ---       #77
      00FF687CH   LINE      CODE     ---       #78
      00FF6880H   LINE      CODE     ---       #79
      00FF6886H   LINE      CODE     ---       #81
      00FF6889H   LINE      CODE     ---       #82
      00FF688CH   LINE      CODE     ---       #84
      00FF6895H   LINE      CODE     ---       #87
      00FF6895H   LINE      CODE     ---       #88
      ---         BLOCKEND  ---      ---       LVL=0

      ---         MODULE    ---      ---       zf_delay
      00FF66C3H   PUBLIC    CODE     ---       delay_init
      00FF6BA3H   PUBLIC    CODE     ---       delay_ms
      0000075CH   PUBLIC    EDATA    WORD      zf_delay_ms
      0000075EH   PUBLIC    EDATA    WORD      zf_delay_us
      000000D0H   SFRSYM    DATA     BYTE      PSW
      000000B7H   SFRSYM    DATA     BYTE      IPH
      00000088H   SFRSYM    DATA     BYTE      TCON
      00000098H   SFRSYM    DATA     BYTE      SCON
      000000BCH   SFRSYM    DATA     BYTE      ADC_CONTR
      000000DEH   SFRSYM    DATA     BYTE      ADCCFG
      000000B8H   SFRSYM    DATA     BYTE      IP
      000000A8H   SFRSYM    DATA     BYTE      IE
      000000F8H   SFRSYM    DATA     BYTE      P7
      000000E8H   SFRSYM    DATA     BYTE      P6
      000000C8H   SFRSYM    DATA     BYTE      P5
      000000C0H   SFRSYM    DATA     BYTE      P4
      000000B0H   SFRSYM    DATA     BYTE      P3
      000000A0H   SFRSYM    DATA     BYTE      P2
      00000090H   SFRSYM    DATA     BYTE      P1
      00000080H   SFRSYM    DATA     BYTE      P0

      00FF66C3H   BLOCK     CODE     ---       LVL=0
      00FF66C3H   LINE      CODE     ---       #34
      00FF66C3H   LINE      CODE     ---       #36
      00FF66D4H   LINE      CODE     ---       #37
      00FF66E5H   LINE      CODE     ---       #38
      00FF66FBH   LINE      CODE     ---       #40
      ---         BLOCKEND  ---      ---       LVL=0

      00FF6BA3H   BLOCK     CODE     ---       LVL=0
      WR4         REGSYM    ---      WORD      ms
      00FF6BA5H   BLOCK     CODE     NEAR LAB  LVL=1
      WR6         REGSYM    ---      WORD      i
      ---         BLOCKEND  ---      ---       LVL=1
      00FF6BA3H   LINE      CODE     ---       #48
      00FF6BA5H   LINE      CODE     ---       #49
      00FF6BA5H   LINE      CODE     ---       #51
      00FF6BA5H   LINE      CODE     ---       #52
      00FF6BA9H   LINE      CODE     ---       #54
      00FF6BB1H   LINE      CODE     ---       #55
L251 LINKER/LOCATER V4.66.93.0                                                        07/23/2024  16:57:56  PAGE 38


      00FF6BB9H   LINE      CODE     ---       #56
      ---         BLOCKEND  ---      ---       LVL=0
      DR0         REGSYM    ---      DWORD     us
      WR6         REGSYM    ---      WORD      i

      ---         MODULE    ---      ---       zf_eeprom
      000000D0H   SFRSYM    DATA     BYTE      PSW
      000000D0H.5 SFRSYM    DATA     BIT       F0
      000000C6H   SFRSYM    DATA     BYTE      IAP_TRIG
      000000B7H   SFRSYM    DATA     BYTE      IPH
      000000C2H   SFRSYM    DATA     BYTE      IAP_DATA
      000000C7H   SFRSYM    DATA     BYTE      IAP_CONTR
      00000088H   SFRSYM    DATA     BYTE      TCON
      00000098H   SFRSYM    DATA     BYTE      SCON
      000000F5H   SFRSYM    DATA     BYTE      IAP_TPS
      000000BCH   SFRSYM    DATA     BYTE      ADC_CONTR
      000000C4H   SFRSYM    DATA     BYTE      IAP_ADDRL
      000000C3H   SFRSYM    DATA     BYTE      IAP_ADDRH
      000000F6H   SFRSYM    DATA     BYTE      IAP_ADDRE
      000000DEH   SFRSYM    DATA     BYTE      ADCCFG
      000000B8H   SFRSYM    DATA     BYTE      IP
      000000C5H   SFRSYM    DATA     BYTE      IAP_CMD
      000000A8H   SFRSYM    DATA     BYTE      IE
      000000F8H   SFRSYM    DATA     BYTE      P7
      000000A8H.7 SFRSYM    DATA     BIT       EA
      000000E8H   SFRSYM    DATA     BYTE      P6
      000000C8H   SFRSYM    DATA     BYTE      P5
      000000C0H   SFRSYM    DATA     BYTE      P4
      000000B0H   SFRSYM    DATA     BYTE      P3
      000000A0H   SFRSYM    DATA     BYTE      P2
      00000090H   SFRSYM    DATA     BYTE      P1
      00000080H   SFRSYM    DATA     BYTE      P0
      R11         REGSYM    ---      BYTE      write_time
      REG=3       REGSYM    ---      ---       buf
      REG=3       REGSYM    ---      ---       buf
      WR6         REGSYM    ---      WORD      addr
      REG=3       REGSYM    ---      ---       buf
      WR6         REGSYM    ---      WORD      i

      ---         MODULE    ---      ---       zf_exti
      000000D0H   SFRSYM    DATA     BYTE      PSW
      000000B7H   SFRSYM    DATA     BYTE      IPH
      00000088H.2 SFRSYM    DATA     BIT       IT1
      000000A8H.2 SFRSYM    DATA     BIT       EX1
      00000088H.0 SFRSYM    DATA     BIT       IT0
      000000A8H.0 SFRSYM    DATA     BIT       EX0
      00000088H   SFRSYM    DATA     BYTE      TCON
      00000098H   SFRSYM    DATA     BYTE      SCON
      000000BCH   SFRSYM    DATA     BYTE      ADC_CONTR
      000000DEH   SFRSYM    DATA     BYTE      ADCCFG
      000000B8H   SFRSYM    DATA     BYTE      IP
      0000008FH   SFRSYM    DATA     BYTE      INTCLKO
      000000A8H   SFRSYM    DATA     BYTE      IE
      000000F8H   SFRSYM    DATA     BYTE      P7
      000000E8H   SFRSYM    DATA     BYTE      P6
      000000C8H   SFRSYM    DATA     BYTE      P5
      000000C0H   SFRSYM    DATA     BYTE      P4
      000000B0H   SFRSYM    DATA     BYTE      P3
      000000A0H   SFRSYM    DATA     BYTE      P2
      00000090H   SFRSYM    DATA     BYTE      P1
      00000080H   SFRSYM    DATA     BYTE      P0
      WR4         REGSYM    ---      INT       int_n
      WR2         REGSYM    ---      INT       mode

      ---         MODULE    ---      ---       zf_gpio
L251 LINKER/LOCATER V4.66.93.0                                                        07/23/2024  16:57:56  PAGE 39


      00FF31D5H   PUBLIC    CODE     ---       gpio_mode
      00000094H   SFRSYM    DATA     BYTE      P0M0
      000000D0H   SFRSYM    DATA     BYTE      PSW
      000000B7H   SFRSYM    DATA     BYTE      IPH
      00000088H   SFRSYM    DATA     BYTE      TCON
      00000098H   SFRSYM    DATA     BYTE      SCON
      000000BCH   SFRSYM    DATA     BYTE      ADC_CONTR
      000000DEH   SFRSYM    DATA     BYTE      ADCCFG
      000000B8H   SFRSYM    DATA     BYTE      IP
      000000A8H   SFRSYM    DATA     BYTE      IE
      000000F8H   SFRSYM    DATA     BYTE      P7
      000000E1H   SFRSYM    DATA     BYTE      P7M1
      000000E8H   SFRSYM    DATA     BYTE      P6
      000000C8H   SFRSYM    DATA     BYTE      P5
      000000CBH   SFRSYM    DATA     BYTE      P6M1
      000000E2H   SFRSYM    DATA     BYTE      P7M0
      000000C0H   SFRSYM    DATA     BYTE      P4
      000000C9H   SFRSYM    DATA     BYTE      P5M1
      000000CCH   SFRSYM    DATA     BYTE      P6M0
      000000B0H   SFRSYM    DATA     BYTE      P3
      000000B3H   SFRSYM    DATA     BYTE      P4M1
      000000CAH   SFRSYM    DATA     BYTE      P5M0
      000000A0H   SFRSYM    DATA     BYTE      P2
      000000B1H   SFRSYM    DATA     BYTE      P3M1
      000000B4H   SFRSYM    DATA     BYTE      P4M0
      00000090H   SFRSYM    DATA     BYTE      P1
      00000095H   SFRSYM    DATA     BYTE      P2M1
      000000B2H   SFRSYM    DATA     BYTE      P3M0
      00000080H   SFRSYM    DATA     BYTE      P0
      00000091H   SFRSYM    DATA     BYTE      P1M1
      00000096H   SFRSYM    DATA     BYTE      P2M0
      00000092H   SFRSYM    DATA     BYTE      P1M0
      00000093H   SFRSYM    DATA     BYTE      P0M1
      WR4         REGSYM    ---      INT       pin
      WR2         REGSYM    ---      INT       pull

      00FF31D5H   BLOCK     CODE     ---       LVL=0
      WR4         REGSYM    ---      INT       pin
      WR2         REGSYM    ---      INT       mode
      00FF31D5H   LINE      CODE     ---       #54
      00FF31D9H   LINE      CODE     ---       #56
      00FF31E0H   LINE      CODE     ---       #58
      00FF31E8H   LINE      CODE     ---       #60
      00FF3200H   LINE      CODE     ---       #61
      00FF3202H   LINE      CODE     ---       #62
      00FF3202H   LINE      CODE     ---       #63
      00FF3208H   LINE      CODE     ---       #65
      00FF3220H   LINE      CODE     ---       #66
      00FF3222H   LINE      CODE     ---       #67
      00FF3222H   LINE      CODE     ---       #68
      00FF3228H   LINE      CODE     ---       #70
      00FF3240H   LINE      CODE     ---       #71
      00FF3242H   LINE      CODE     ---       #72
      00FF3242H   LINE      CODE     ---       #74
      00FF3248H   LINE      CODE     ---       #76
      00FF3260H   LINE      CODE     ---       #77
      00FF3262H   LINE      CODE     ---       #78
      00FF3262H   LINE      CODE     ---       #79
      00FF3268H   LINE      CODE     ---       #81
      00FF3280H   LINE      CODE     ---       #82
      00FF3282H   LINE      CODE     ---       #83
      00FF3282H   LINE      CODE     ---       #84
      00FF3288H   LINE      CODE     ---       #86
      00FF32A0H   LINE      CODE     ---       #87
      00FF32A2H   LINE      CODE     ---       #88
L251 LINKER/LOCATER V4.66.93.0                                                        07/23/2024  16:57:56  PAGE 40


      00FF32A2H   LINE      CODE     ---       #89
      00FF32A8H   LINE      CODE     ---       #91
      00FF32C0H   LINE      CODE     ---       #92
      00FF32C2H   LINE      CODE     ---       #93
      00FF32C2H   LINE      CODE     ---       #94
      00FF32CBH   LINE      CODE     ---       #96
      00FF32E3H   LINE      CODE     ---       #97
      00FF32E5H   LINE      CODE     ---       #98
      00FF32E6H   LINE      CODE     ---       #100
      00FF32EFH   LINE      CODE     ---       #102
      00FF32F7H   LINE      CODE     ---       #104
      00FF330CH   LINE      CODE     ---       #105
      00FF3310H   LINE      CODE     ---       #106
      00FF3310H   LINE      CODE     ---       #107
      00FF3316H   LINE      CODE     ---       #109
      00FF332BH   LINE      CODE     ---       #110
      00FF332FH   LINE      CODE     ---       #111
      00FF332FH   LINE      CODE     ---       #112
      00FF3335H   LINE      CODE     ---       #114
      00FF334AH   LINE      CODE     ---       #115
      00FF334EH   LINE      CODE     ---       #116
      00FF334EH   LINE      CODE     ---       #118
      00FF3354H   LINE      CODE     ---       #120
      00FF3369H   LINE      CODE     ---       #121
      00FF336DH   LINE      CODE     ---       #122
      00FF336DH   LINE      CODE     ---       #123
      00FF3373H   LINE      CODE     ---       #125
      00FF3388H   LINE      CODE     ---       #126
      00FF338CH   LINE      CODE     ---       #127
      00FF338CH   LINE      CODE     ---       #128
      00FF3392H   LINE      CODE     ---       #130
      00FF33A7H   LINE      CODE     ---       #131
      00FF33ABH   LINE      CODE     ---       #132
      00FF33ABH   LINE      CODE     ---       #133
      00FF33B1H   LINE      CODE     ---       #135
      00FF33C6H   LINE      CODE     ---       #136
      00FF33CAH   LINE      CODE     ---       #137
      00FF33CAH   LINE      CODE     ---       #138
      00FF33D3H   LINE      CODE     ---       #140
      00FF33EAH   LINE      CODE     ---       #141
      00FF33EAH   LINE      CODE     ---       #142
      00FF33EDH   LINE      CODE     ---       #145
      00FF33F6H   LINE      CODE     ---       #147
      00FF33FEH   LINE      CODE     ---       #149
      00FF3411H   LINE      CODE     ---       #150
      00FF3415H   LINE      CODE     ---       #151
      00FF3415H   LINE      CODE     ---       #152
      00FF341BH   LINE      CODE     ---       #154
      00FF342EH   LINE      CODE     ---       #155
      00FF3432H   LINE      CODE     ---       #156
      00FF3432H   LINE      CODE     ---       #157
      00FF3438H   LINE      CODE     ---       #159
      00FF344BH   LINE      CODE     ---       #160
      00FF344FH   LINE      CODE     ---       #161
      00FF344FH   LINE      CODE     ---       #163
      00FF3455H   LINE      CODE     ---       #165
      00FF3468H   LINE      CODE     ---       #166
      00FF346CH   LINE      CODE     ---       #167
      00FF346CH   LINE      CODE     ---       #168
      00FF3472H   LINE      CODE     ---       #170
      00FF3485H   LINE      CODE     ---       #171
      00FF3489H   LINE      CODE     ---       #172
      00FF3489H   LINE      CODE     ---       #173
      00FF348FH   LINE      CODE     ---       #175
      00FF34A2H   LINE      CODE     ---       #176
L251 LINKER/LOCATER V4.66.93.0                                                        07/23/2024  16:57:56  PAGE 41


      00FF34A6H   LINE      CODE     ---       #177
      00FF34A6H   LINE      CODE     ---       #178
      00FF34ACH   LINE      CODE     ---       #180
      00FF34BFH   LINE      CODE     ---       #181
      00FF34C3H   LINE      CODE     ---       #182
      00FF34C3H   LINE      CODE     ---       #183
      00FF34CCH   LINE      CODE     ---       #185
      00FF34DFH   LINE      CODE     ---       #186
      00FF34E3H   LINE      CODE     ---       #187
      00FF34E4H   LINE      CODE     ---       #189
      00FF34EDH   LINE      CODE     ---       #191
      00FF34F5H   LINE      CODE     ---       #193
      00FF3508H   LINE      CODE     ---       #194
      00FF350AH   LINE      CODE     ---       #195
      00FF350AH   LINE      CODE     ---       #196
      00FF3510H   LINE      CODE     ---       #198
      00FF3523H   LINE      CODE     ---       #199
      00FF3525H   LINE      CODE     ---       #200
      00FF3525H   LINE      CODE     ---       #201
      00FF352BH   LINE      CODE     ---       #203
      00FF353EH   LINE      CODE     ---       #204
      00FF3540H   LINE      CODE     ---       #205
      00FF3540H   LINE      CODE     ---       #207
      00FF3546H   LINE      CODE     ---       #209
      00FF3559H   LINE      CODE     ---       #210
      00FF355BH   LINE      CODE     ---       #211
      00FF355BH   LINE      CODE     ---       #212
      00FF3561H   LINE      CODE     ---       #214
      00FF3574H   LINE      CODE     ---       #215
      00FF3576H   LINE      CODE     ---       #216
      00FF3576H   LINE      CODE     ---       #217
      00FF357CH   LINE      CODE     ---       #219
      00FF358FH   LINE      CODE     ---       #220
      00FF3591H   LINE      CODE     ---       #221
      00FF3591H   LINE      CODE     ---       #222
      00FF3597H   LINE      CODE     ---       #224
      00FF35AAH   LINE      CODE     ---       #225
      00FF35ACH   LINE      CODE     ---       #226
      00FF35ACH   LINE      CODE     ---       #227
      00FF35B2H   LINE      CODE     ---       #229
      00FF35C7H   LINE      CODE     ---       #230
      00FF35CBH   LINE      CODE     ---       #231
      00FF35CBH   LINE      CODE     ---       #233
      ---         BLOCKEND  ---      ---       LVL=0

      ---         MODULE    ---      ---       zf_iic
      000000D0H   SFRSYM    DATA     BYTE      PSW
      000000B7H   SFRSYM    DATA     BYTE      IPH
      00000088H   SFRSYM    DATA     BYTE      TCON
      00000098H   SFRSYM    DATA     BYTE      SCON
      000000BCH   SFRSYM    DATA     BYTE      ADC_CONTR
      000000DEH   SFRSYM    DATA     BYTE      ADCCFG
      000000B8H   SFRSYM    DATA     BYTE      IP
      000000A8H   SFRSYM    DATA     BYTE      IE
      000000BAH   SFRSYM    DATA     BYTE      P_SW2
      000000F8H   SFRSYM    DATA     BYTE      P7
      000000E8H   SFRSYM    DATA     BYTE      P6
      000000C8H   SFRSYM    DATA     BYTE      P5
      000000C0H   SFRSYM    DATA     BYTE      P4
      000000B0H   SFRSYM    DATA     BYTE      P3
      000000A0H   SFRSYM    DATA     BYTE      P2
      00000090H   SFRSYM    DATA     BYTE      P1
      00000080H   SFRSYM    DATA     BYTE      P0
      WR6         REGSYM    ---      WORD      x
      R10         REGSYM    ---      BYTE      i
L251 LINKER/LOCATER V4.66.93.0                                                        07/23/2024  16:57:56  PAGE 42


      WR12        REGSYM    ---      WORD      count
      R15         REGSYM    ---      BYTE      ret
      R11         REGSYM    ---      BYTE      ret
      R11         REGSYM    ---      CHAR      dat
      R11         REGSYM    ---      BYTE      ret
      R11         REGSYM    ---      BYTE      ret
      R11         REGSYM    ---      BYTE      ret
      R11         REGSYM    ---      BYTE      ret
      WR6         REGSYM    ---      INT       iic_n
      R13         REGSYM    ---      BYTE      dev_add
      R14         REGSYM    ---      BYTE      reg
      R15         REGSYM    ---      BYTE      dat
      R15         REGSYM    ---      BYTE      dev_add
      R14         REGSYM    ---      BYTE      reg
      REG=3       REGSYM    ---      ---       dat
      WR6         REGSYM    ---      INT       iic_n

      ---         MODULE    ---      ---       zf_nvic
      000000D0H   SFRSYM    DATA     BYTE      PSW
      000000B7H   SFRSYM    DATA     BYTE      IPH
      000000B5H   SFRSYM    DATA     BYTE      IP2
      00000088H   SFRSYM    DATA     BYTE      TCON
      00000098H   SFRSYM    DATA     BYTE      SCON
      000000BCH   SFRSYM    DATA     BYTE      ADC_CONTR
      000000DEH   SFRSYM    DATA     BYTE      ADCCFG
      000000B8H   SFRSYM    DATA     BYTE      IP
      000000B6H   SFRSYM    DATA     BYTE      IP2H
      000000A8H   SFRSYM    DATA     BYTE      IE
      000000F8H   SFRSYM    DATA     BYTE      P7
      000000E8H   SFRSYM    DATA     BYTE      P6
      000000C8H   SFRSYM    DATA     BYTE      P5
      000000C0H   SFRSYM    DATA     BYTE      P4
      000000B0H   SFRSYM    DATA     BYTE      P3
      000000A0H   SFRSYM    DATA     BYTE      P2
      00000090H   SFRSYM    DATA     BYTE      P1
      00000080H   SFRSYM    DATA     BYTE      P0
      WR4         REGSYM    ---      INT       irqn
      R3          REGSYM    ---      BYTE      priority

      ---         MODULE    ---      ---       zf_pwm
      00FF54D7H   PUBLIC    CODE     ---       pwm_duty
      00FF38B0H   PUBLIC    CODE     ---       pwm_set_gpio
      00FF35CCH   PUBLIC    CODE     ---       pwm_init
      00FF6F9AH   PUBLIC    HCONST   ---       PWM_CCR_ADDR
      00FF6FBAH   PUBLIC    HCONST   ---       PWM_ARR_ADDR
      00FF6FC2H   PUBLIC    HCONST   ---       PWM_CCER_ADDR
      00FF6FD2H   PUBLIC    HCONST   ---       PWM_CCMR_ADDR
      00000404H   PUBLIC    EDATA    BYTE      ?pwm_init?BYTE
      000000D0H   SFRSYM    DATA     BYTE      PSW
      000000B7H   SFRSYM    DATA     BYTE      IPH
      00000088H   SFRSYM    DATA     BYTE      TCON
      00000098H   SFRSYM    DATA     BYTE      SCON
      000000BCH   SFRSYM    DATA     BYTE      ADC_CONTR
      000000DEH   SFRSYM    DATA     BYTE      ADCCFG
      000000B8H   SFRSYM    DATA     BYTE      IP
      000000A8H   SFRSYM    DATA     BYTE      IE
      000000BAH   SFRSYM    DATA     BYTE      P_SW2
      000000F8H   SFRSYM    DATA     BYTE      P7
      000000E8H   SFRSYM    DATA     BYTE      P6
      000000C8H   SFRSYM    DATA     BYTE      P5
      000000C0H   SFRSYM    DATA     BYTE      P4
      000000B0H   SFRSYM    DATA     BYTE      P3
      000000A0H   SFRSYM    DATA     BYTE      P2
      00000090H   SFRSYM    DATA     BYTE      P1
      00000080H   SFRSYM    DATA     BYTE      P0
L251 LINKER/LOCATER V4.66.93.0                                                        07/23/2024  16:57:56  PAGE 43



      00FF38B0H   BLOCK     CODE     ---       LVL=0
      WR6         REGSYM    ---      INT       pwmch
      00FF38B0H   LINE      CODE     ---       #49
      00FF38B0H   LINE      CODE     ---       #51
      00FF3A23H   LINE      CODE     ---       #53
      00FF3A23H   LINE      CODE     ---       #55
      00FF3A27H   LINE      CODE     ---       #56
      00FF3A2AH   LINE      CODE     ---       #58
      00FF3A2AH   LINE      CODE     ---       #60
      00FF3A2EH   LINE      CODE     ---       #61
      00FF3A31H   LINE      CODE     ---       #63
      00FF3A31H   LINE      CODE     ---       #65
      00FF3A35H   LINE      CODE     ---       #66
      00FF3A38H   LINE      CODE     ---       #68
      00FF3A38H   LINE      CODE     ---       #70
      00FF3A3CH   LINE      CODE     ---       #71
      00FF3A3FH   LINE      CODE     ---       #73
      00FF3A3FH   LINE      CODE     ---       #75
      00FF3A43H   LINE      CODE     ---       #76
      00FF3A46H   LINE      CODE     ---       #78
      00FF3A46H   LINE      CODE     ---       #80
      00FF3A4AH   LINE      CODE     ---       #81
      00FF3A4DH   LINE      CODE     ---       #84
      00FF3A4DH   LINE      CODE     ---       #86
      00FF3A51H   LINE      CODE     ---       #87
      00FF3A54H   LINE      CODE     ---       #89
      00FF3A54H   LINE      CODE     ---       #91
      00FF3A58H   LINE      CODE     ---       #92
      00FF3A5BH   LINE      CODE     ---       #94
      00FF3A5BH   LINE      CODE     ---       #96
      00FF3A5FH   LINE      CODE     ---       #97
      00FF3A62H   LINE      CODE     ---       #99
      00FF3A62H   LINE      CODE     ---       #101
      00FF3A66H   LINE      CODE     ---       #102
      00FF3A69H   LINE      CODE     ---       #104
      00FF3A69H   LINE      CODE     ---       #106
      00FF3A6DH   LINE      CODE     ---       #107
      00FF3A70H   LINE      CODE     ---       #109
      00FF3A70H   LINE      CODE     ---       #111
      00FF3A74H   LINE      CODE     ---       #112
      00FF3A77H   LINE      CODE     ---       #115
      00FF3A77H   LINE      CODE     ---       #117
      00FF3A7BH   LINE      CODE     ---       #118
      00FF3A7DH   LINE      CODE     ---       #120
      00FF3A7DH   LINE      CODE     ---       #122
      00FF3A81H   LINE      CODE     ---       #123
      00FF3A83H   LINE      CODE     ---       #125
      00FF3A83H   LINE      CODE     ---       #127
      00FF3A87H   LINE      CODE     ---       #128
      00FF3A89H   LINE      CODE     ---       #130
      00FF3A89H   LINE      CODE     ---       #132
      00FF3A8DH   LINE      CODE     ---       #133
      00FF3A8FH   LINE      CODE     ---       #135
      00FF3A8FH   LINE      CODE     ---       #137
      00FF3A93H   LINE      CODE     ---       #138
      00FF3A95H   LINE      CODE     ---       #140
      00FF3A95H   LINE      CODE     ---       #142
      00FF3A99H   LINE      CODE     ---       #143
      00FF3A9BH   LINE      CODE     ---       #147
      00FF3A9BH   LINE      CODE     ---       #149
      00FF3A9FH   LINE      CODE     ---       #150
      00FF3AA1H   LINE      CODE     ---       #152
      00FF3AA1H   LINE      CODE     ---       #154
      00FF3AA5H   LINE      CODE     ---       #155
L251 LINKER/LOCATER V4.66.93.0                                                        07/23/2024  16:57:56  PAGE 44


      00FF3AA7H   LINE      CODE     ---       #157
      00FF3AA7H   LINE      CODE     ---       #159
      00FF3AABH   LINE      CODE     ---       #160
      00FF3AADH   LINE      CODE     ---       #162
      00FF3AADH   LINE      CODE     ---       #164
      00FF3AB1H   LINE      CODE     ---       #165
      00FF3AB3H   LINE      CODE     ---       #167
      00FF3AB3H   LINE      CODE     ---       #169
      00FF3AB7H   LINE      CODE     ---       #170
      00FF3AB9H   LINE      CODE     ---       #172
      00FF3AB9H   LINE      CODE     ---       #174
      00FF3ABDH   LINE      CODE     ---       #175
      00FF3ABFH   LINE      CODE     ---       #177
      00FF3ABFH   LINE      CODE     ---       #179
      00FF3AC3H   LINE      CODE     ---       #180
      00FF3AC5H   LINE      CODE     ---       #182
      00FF3AC5H   LINE      CODE     ---       #184
      00FF3AC9H   LINE      CODE     ---       #185
      00FF3ACBH   LINE      CODE     ---       #189
      00FF3ACBH   LINE      CODE     ---       #191
      00FF3ACFH   LINE      CODE     ---       #192
      00FF3AD1H   LINE      CODE     ---       #194
      00FF3AD1H   LINE      CODE     ---       #196
      00FF3AD5H   LINE      CODE     ---       #197
      00FF3AD7H   LINE      CODE     ---       #199
      00FF3AD7H   LINE      CODE     ---       #201
      00FF3AD9H   LINE      CODE     ---       #202
      00FF3ADBH   LINE      CODE     ---       #204
      00FF3ADBH   LINE      CODE     ---       #206
      00FF3ADFH   LINE      CODE     ---       #207
      00FF3AE1H   LINE      CODE     ---       #210
      00FF3AE1H   LINE      CODE     ---       #212
      00FF3AE5H   LINE      CODE     ---       #213
      00FF3AE7H   LINE      CODE     ---       #215
      00FF3AE7H   LINE      CODE     ---       #217
      00FF3AEBH   LINE      CODE     ---       #218
      00FF3AEDH   LINE      CODE     ---       #220
      00FF3AEDH   LINE      CODE     ---       #222
      00FF3AF3H   LINE      CODE     ---       #223
      00FF3AF5H   LINE      CODE     ---       #225
      00FF3AF5H   LINE      CODE     ---       #227
      00FF3AFDH   LINE      CODE     ---       #228
      00FF3AFFH   LINE      CODE     ---       #232
      00FF3AFFH   LINE      CODE     ---       #234
      00FF3B07H   LINE      CODE     ---       #235
      00FF3B09H   LINE      CODE     ---       #237
      00FF3B09H   LINE      CODE     ---       #239
      00FF3B11H   LINE      CODE     ---       #240
      00FF3B13H   LINE      CODE     ---       #242
      00FF3B13H   LINE      CODE     ---       #244
      00FF3B1BH   LINE      CODE     ---       #245
      00FF3B1DH   LINE      CODE     ---       #247
      00FF3B1DH   LINE      CODE     ---       #249
      00FF3B25H   LINE      CODE     ---       #250
      00FF3B27H   LINE      CODE     ---       #254
      00FF3B27H   LINE      CODE     ---       #256
      00FF3B2FH   LINE      CODE     ---       #257
      00FF3B31H   LINE      CODE     ---       #259
      00FF3B31H   LINE      CODE     ---       #261
      00FF3B39H   LINE      CODE     ---       #262
      00FF3B3BH   LINE      CODE     ---       #264
      00FF3B3BH   LINE      CODE     ---       #266
      00FF3B43H   LINE      CODE     ---       #267
      00FF3B45H   LINE      CODE     ---       #269
      00FF3B45H   LINE      CODE     ---       #271
L251 LINKER/LOCATER V4.66.93.0                                                        07/23/2024  16:57:56  PAGE 45


      00FF3B50H   LINE      CODE     ---       #272
      00FF3B50H   LINE      CODE     ---       #275
      00FF3B50H   LINE      CODE     ---       #277
      ---         BLOCKEND  ---      ---       LVL=0

      00FF35CCH   BLOCK     CODE     ---       LVL=0
      WR14        REGSYM    ---      INT       pwmch
      00000406H   SYMBOL    EDATA    DWORD     freq
      0000040AH   SYMBOL    EDATA    DWORD     duty
      00FF35D4H   BLOCK     CODE     NEAR LAB  LVL=1
      DR4         REGSYM    ---      DWORD     match_temp
      DR28        REGSYM    ---      DWORD     period_temp
      WR26        REGSYM    ---      WORD      freq_div
      ---         BLOCKEND  ---      ---       LVL=1
      00FF35CCH   LINE      CODE     ---       #290
      00FF35D4H   LINE      CODE     ---       #291
      00FF35D4H   LINE      CODE     ---       #295
      00FF35D4H   LINE      CODE     ---       #298
      00FF35D7H   LINE      CODE     ---       #301
      00FF35DAH   LINE      CODE     ---       #305
      00FF35EBH   LINE      CODE     ---       #306
      00FF35EBH   LINE      CODE     ---       #307
      00FF35F4H   LINE      CODE     ---       #309
      00FF3615H   LINE      CODE     ---       #312
      00FF361EH   LINE      CODE     ---       #315
      00FF3649H   LINE      CODE     ---       #316
      00FF366AH   LINE      CODE     ---       #319
      00FF36B6H   LINE      CODE     ---       #322
      00FF36C5H   LINE      CODE     ---       #323
      00FF36D0H   LINE      CODE     ---       #325
      00FF36D9H   LINE      CODE     ---       #326
      00FF36DFH   LINE      CODE     ---       #327
      00FF36E2H   LINE      CODE     ---       #330
      00FF371AH   LINE      CODE     ---       #331
      00FF373DH   LINE      CODE     ---       #334
      00FF378FH   LINE      CODE     ---       #338
      00FF379EH   LINE      CODE     ---       #339
      00FF37A9H   LINE      CODE     ---       #341
      00FF37B2H   LINE      CODE     ---       #342
      00FF37BFH   LINE      CODE     ---       #343
      00FF37BFH   LINE      CODE     ---       #346
      00FF37EBH   LINE      CODE     ---       #347
      00FF3819H   LINE      CODE     ---       #350
      00FF383FH   LINE      CODE     ---       #351
      00FF386BH   LINE      CODE     ---       #354
      00FF3882H   LINE      CODE     ---       #355
      00FF38ADH   LINE      CODE     ---       #360
      ---         BLOCKEND  ---      ---       LVL=0

      00FF54D7H   BLOCK     CODE     ---       LVL=0
      WR30        REGSYM    ---      INT       pwmch
      DR24        REGSYM    ---      DWORD     duty
      00FF54DBH   BLOCK     CODE     NEAR LAB  LVL=1
      DR0         REGSYM    ---      DWORD     match_temp
      DR20        REGSYM    ---      DWORD     arr
      ---         BLOCKEND  ---      ---       LVL=1
      00FF54D7H   LINE      CODE     ---       #370
      00FF54DBH   LINE      CODE     ---       #371
      00FF54DBH   LINE      CODE     ---       #373
      00FF551FH   LINE      CODE     ---       #377
      00FF5540H   LINE      CODE     ---       #381
      00FF5566H   LINE      CODE     ---       #382
      00FF558EH   LINE      CODE     ---       #386
      ---         BLOCKEND  ---      ---       LVL=0
      WR30        REGSYM    ---      INT       pwmch
L251 LINKER/LOCATER V4.66.93.0                                                        07/23/2024  16:57:56  PAGE 46


      DR24        REGSYM    ---      DWORD     freq
      DR0         REGSYM    ---      DWORD     match_temp
      DR24        REGSYM    ---      DWORD     period_temp
      WR28        REGSYM    ---      WORD      freq_div

      ---         MODULE    ---      ---       zf_spi
      000000CFH   SFRSYM    DATA     BYTE      SPDAT
      000000D0H   SFRSYM    DATA     BYTE      PSW
      000000B7H   SFRSYM    DATA     BYTE      IPH
      000000CDH   SFRSYM    DATA     BYTE      SPSTAT
      00000088H   SFRSYM    DATA     BYTE      TCON
      00000098H   SFRSYM    DATA     BYTE      SCON
      000000BCH   SFRSYM    DATA     BYTE      ADC_CONTR
      000000DEH   SFRSYM    DATA     BYTE      ADCCFG
      000000B8H   SFRSYM    DATA     BYTE      IP
      000000A8H   SFRSYM    DATA     BYTE      IE
      000000A2H   SFRSYM    DATA     BYTE      P_SW1
      000000CEH   SFRSYM    DATA     BYTE      SPCTL
      000000F8H   SFRSYM    DATA     BYTE      P7
      000000E8H   SFRSYM    DATA     BYTE      P6
      000000C8H   SFRSYM    DATA     BYTE      P5
      000000C0H   SFRSYM    DATA     BYTE      P4
      000000B0H   SFRSYM    DATA     BYTE      P3
      000000A0H   SFRSYM    DATA     BYTE      P2
      00000090H   SFRSYM    DATA     BYTE      P1
      00000080H   SFRSYM    DATA     BYTE      P0
      WR14        REGSYM    ---      INT       spi_n
      R13         REGSYM    ---      BYTE      mode
      R11         REGSYM    ---      BYTE      dat
      WR14        REGSYM    ---      INT       spi_n
      R7          REGSYM    ---      BYTE      mode

      ---         MODULE    ---      ---       zf_tim
      00FF62DFH   PUBLIC    CODE     ---       ctimer_count_read
      00FF5818H   PUBLIC    CODE     ---       pit_timer_ms
      00FF6379H   PUBLIC    CODE     ---       ctimer_count_init
      00FF628EH   PUBLIC    CODE     ---       ctimer_count_clean
      000000D0H   SFRSYM    DATA     BYTE      PSW
      000000B7H   SFRSYM    DATA     BYTE      IPH
      000000DDH   SFRSYM    DATA     BYTE      T4T3M
      00000088H.6 SFRSYM    DATA     BIT       TR1
      00000088H.4 SFRSYM    DATA     BIT       TR0
      000000D3H   SFRSYM    DATA     BYTE      T4L
      000000D5H   SFRSYM    DATA     BYTE      T3L
      000000D7H   SFRSYM    DATA     BYTE      T2L
      0000008BH   SFRSYM    DATA     BYTE      TL1
      0000008AH   SFRSYM    DATA     BYTE      TL0
      000000D2H   SFRSYM    DATA     BYTE      T4H
      000000D4H   SFRSYM    DATA     BYTE      T3H
      000000D6H   SFRSYM    DATA     BYTE      T2H
      0000008DH   SFRSYM    DATA     BYTE      TH1
      0000008CH   SFRSYM    DATA     BYTE      TH0
      000000A8H.3 SFRSYM    DATA     BIT       ET1
      000000A8H.1 SFRSYM    DATA     BIT       ET0
      0000008EH   SFRSYM    DATA     BYTE      AUXR
      000000AFH   SFRSYM    DATA     BYTE      IE2
      00000088H   SFRSYM    DATA     BYTE      TCON
      00000089H   SFRSYM    DATA     BYTE      TMOD
      00000098H   SFRSYM    DATA     BYTE      SCON
      000000BCH   SFRSYM    DATA     BYTE      ADC_CONTR
      000000DEH   SFRSYM    DATA     BYTE      ADCCFG
      000000B8H   SFRSYM    DATA     BYTE      IP
      000000A8H   SFRSYM    DATA     BYTE      IE
      000000F8H   SFRSYM    DATA     BYTE      P7
      000000E8H   SFRSYM    DATA     BYTE      P6
L251 LINKER/LOCATER V4.66.93.0                                                        07/23/2024  16:57:56  PAGE 47


      000000C8H   SFRSYM    DATA     BYTE      P5
      000000C0H   SFRSYM    DATA     BYTE      P4
      000000B0H   SFRSYM    DATA     BYTE      P3
      000000A0H   SFRSYM    DATA     BYTE      P2
      00000090H   SFRSYM    DATA     BYTE      P1
      00000080H   SFRSYM    DATA     BYTE      P0

      00FF6379H   BLOCK     CODE     ---       LVL=0
      WR6         REGSYM    ---      INT       tim_n
      00FF6379H   LINE      CODE     ---       #39
      00FF6379H   LINE      CODE     ---       #42
      00FF638DH   LINE      CODE     ---       #44
      00FF638DH   LINE      CODE     ---       #46
      00FF6390H   LINE      CODE     ---       #47
      00FF6393H   LINE      CODE     ---       #48
      00FF6396H   LINE      CODE     ---       #49
      00FF6398H   LINE      CODE     ---       #50
      00FF6399H   LINE      CODE     ---       #53
      00FF6399H   LINE      CODE     ---       #55
      00FF639CH   LINE      CODE     ---       #56
      00FF639FH   LINE      CODE     ---       #57
      00FF63A2H   LINE      CODE     ---       #58
      00FF63A4H   LINE      CODE     ---       #59
      00FF63A5H   LINE      CODE     ---       #62
      00FF63A5H   LINE      CODE     ---       #64
      00FF63A8H   LINE      CODE     ---       #65
      00FF63ABH   LINE      CODE     ---       #66
      00FF63AEH   LINE      CODE     ---       #67
      00FF63AFH   LINE      CODE     ---       #70
      00FF63AFH   LINE      CODE     ---       #72
      00FF63B2H   LINE      CODE     ---       #73
      00FF63B5H   LINE      CODE     ---       #74
      00FF63B8H   LINE      CODE     ---       #75
      00FF63B9H   LINE      CODE     ---       #78
      00FF63B9H   LINE      CODE     ---       #80
      00FF63BCH   LINE      CODE     ---       #81
      00FF63BFH   LINE      CODE     ---       #82
      00FF63C2H   LINE      CODE     ---       #83
      00FF63C2H   LINE      CODE     ---       #86
      00FF63C2H   LINE      CODE     ---       #87
      ---         BLOCKEND  ---      ---       LVL=0

      00FF62DFH   BLOCK     CODE     ---       LVL=0
      WR4         REGSYM    ---      INT       tim_n
      00FF62E1H   BLOCK     CODE     NEAR LAB  LVL=1
      WR6         REGSYM    ---      WORD      dat
      ---         BLOCKEND  ---      ---       LVL=1
      00FF62DFH   LINE      CODE     ---       #95
      00FF62E1H   LINE      CODE     ---       #96
      00FF62E1H   LINE      CODE     ---       #97
      00FF62E3H   LINE      CODE     ---       #99
      00FF62F7H   LINE      CODE     ---       #101
      00FF62F7H   LINE      CODE     ---       #103
      00FF62FDH   LINE      CODE     ---       #104
      00FF62FFH   LINE      CODE     ---       #105
      00FF6301H   LINE      CODE     ---       #107
      00FF6301H   LINE      CODE     ---       #109
      00FF6307H   LINE      CODE     ---       #110
      00FF6309H   LINE      CODE     ---       #111
      00FF630BH   LINE      CODE     ---       #113
      00FF630BH   LINE      CODE     ---       #115
      00FF6311H   LINE      CODE     ---       #116
      00FF6313H   LINE      CODE     ---       #117
      00FF6315H   LINE      CODE     ---       #119
      00FF6315H   LINE      CODE     ---       #121
L251 LINKER/LOCATER V4.66.93.0                                                        07/23/2024  16:57:56  PAGE 48


      00FF631BH   LINE      CODE     ---       #122
      00FF631DH   LINE      CODE     ---       #123
      00FF631FH   LINE      CODE     ---       #125
      00FF631FH   LINE      CODE     ---       #127
      00FF6325H   LINE      CODE     ---       #128
      00FF632BH   LINE      CODE     ---       #129
      00FF632BH   LINE      CODE     ---       #132
      00FF632BH   LINE      CODE     ---       #133
      00FF632BH   LINE      CODE     ---       #134
      ---         BLOCKEND  ---      ---       LVL=0

      00FF628EH   BLOCK     CODE     ---       LVL=0
      WR6         REGSYM    ---      INT       tim_n
      00FF628EH   LINE      CODE     ---       #143
      00FF628EH   LINE      CODE     ---       #145
      00FF62A2H   LINE      CODE     ---       #147
      00FF62A2H   LINE      CODE     ---       #149
      00FF62A4H   LINE      CODE     ---       #150
      00FF62A7H   LINE      CODE     ---       #151
      00FF62AAH   LINE      CODE     ---       #152
      00FF62ACH   LINE      CODE     ---       #153
      00FF62ADH   LINE      CODE     ---       #155
      00FF62ADH   LINE      CODE     ---       #157
      00FF62AFH   LINE      CODE     ---       #158
      00FF62B2H   LINE      CODE     ---       #159
      00FF62B5H   LINE      CODE     ---       #160
      00FF62B7H   LINE      CODE     ---       #161
      00FF62B8H   LINE      CODE     ---       #163
      00FF62B8H   LINE      CODE     ---       #165
      00FF62BBH   LINE      CODE     ---       #166
      00FF62BEH   LINE      CODE     ---       #167
      00FF62C1H   LINE      CODE     ---       #168
      00FF62C4H   LINE      CODE     ---       #169
      00FF62C5H   LINE      CODE     ---       #171
      00FF62C5H   LINE      CODE     ---       #173
      00FF62C8H   LINE      CODE     ---       #174
      00FF62CBH   LINE      CODE     ---       #175
      00FF62CEH   LINE      CODE     ---       #176
      00FF62D1H   LINE      CODE     ---       #177
      00FF62D2H   LINE      CODE     ---       #179
      00FF62D2H   LINE      CODE     ---       #181
      00FF62D5H   LINE      CODE     ---       #182
      00FF62D8H   LINE      CODE     ---       #183
      00FF62DBH   LINE      CODE     ---       #184
      00FF62DEH   LINE      CODE     ---       #185
      00FF62DEH   LINE      CODE     ---       #187
      00FF62DEH   LINE      CODE     ---       #188
      ---         BLOCKEND  ---      ---       LVL=0

      00FF5818H   BLOCK     CODE     ---       LVL=0
      WR30        REGSYM    ---      INT       tim_n
      WR28        REGSYM    ---      WORD      time_ms
      00FF581AH   BLOCK     CODE     NEAR LAB  LVL=1
      WR28        REGSYM    ---      WORD      temp
      ---         BLOCKEND  ---      ---       LVL=1
      00FF5818H   LINE      CODE     ---       #198
      00FF581AH   LINE      CODE     ---       #199
      00FF581AH   LINE      CODE     ---       #201
      00FF5837H   LINE      CODE     ---       #203
      00FF583BH   LINE      CODE     ---       #205
      00FF583FH   LINE      CODE     ---       #206
      00FF5845H   LINE      CODE     ---       #207
      00FF5849H   LINE      CODE     ---       #208
      00FF584BH   LINE      CODE     ---       #209
      00FF584DH   LINE      CODE     ---       #210
L251 LINKER/LOCATER V4.66.93.0                                                        07/23/2024  16:57:56  PAGE 49


      00FF584EH   LINE      CODE     ---       #211
      00FF5854H   LINE      CODE     ---       #213
      00FF5858H   LINE      CODE     ---       #214
      00FF585EH   LINE      CODE     ---       #215
      00FF5862H   LINE      CODE     ---       #216
      00FF5864H   LINE      CODE     ---       #217
      00FF5866H   LINE      CODE     ---       #218
      00FF5867H   LINE      CODE     ---       #219
      00FF586DH   LINE      CODE     ---       #221
      00FF5873H   LINE      CODE     ---       #222
      00FF5877H   LINE      CODE     ---       #223
      00FF587AH   LINE      CODE     ---       #224
      00FF587DH   LINE      CODE     ---       #225
      00FF587EH   LINE      CODE     ---       #226
      00FF5884H   LINE      CODE     ---       #228
      00FF588AH   LINE      CODE     ---       #229
      00FF588EH   LINE      CODE     ---       #230
      00FF5891H   LINE      CODE     ---       #231
      00FF5894H   LINE      CODE     ---       #232
      00FF5895H   LINE      CODE     ---       #233
      00FF589BH   LINE      CODE     ---       #235
      00FF58A1H   LINE      CODE     ---       #236
      00FF58A5H   LINE      CODE     ---       #237
      00FF58A8H   LINE      CODE     ---       #238
      00FF58ABH   LINE      CODE     ---       #239
      ---         BLOCKEND  ---      ---       LVL=0
      WR30        REGSYM    ---      INT       tim_n
      WR28        REGSYM    ---      WORD      time_us
      WR28        REGSYM    ---      WORD      temp

      ---         MODULE    ---      ---       zf_uart
      00FF6192H   PUBLIC    CODE     ---       uart_putchar
      00FF4229H   PUBLIC    CODE     ---       uart_init
      00000321H   PUBLIC    EDATA    ---       uart1_rx_buff
      00000385H   PUBLIC    EDATA    ---       uart1_tx_buff
      000003E9H   PUBLIC    EDATA    ---       busy
      00000400H   PUBLIC    EDATA    BYTE      ?uart_init?BYTE
      000000D0H   SFRSYM    DATA     BYTE      PSW
      000000FDH   SFRSYM    DATA     BYTE      S4CON
      000000ACH   SFRSYM    DATA     BYTE      S3CON
      0000009AH   SFRSYM    DATA     BYTE      S2CON
      000000FEH   SFRSYM    DATA     BYTE      S4BUF
      000000ADH   SFRSYM    DATA     BYTE      S3BUF
      0000009BH   SFRSYM    DATA     BYTE      S2BUF
      000000B7H   SFRSYM    DATA     BYTE      IPH
      000000DDH   SFRSYM    DATA     BYTE      T4T3M
      00000088H.6 SFRSYM    DATA     BIT       TR1
      000000D3H   SFRSYM    DATA     BYTE      T4L
      000000D5H   SFRSYM    DATA     BYTE      T3L
      000000D7H   SFRSYM    DATA     BYTE      T2L
      0000008BH   SFRSYM    DATA     BYTE      TL1
      000000D2H   SFRSYM    DATA     BYTE      T4H
      000000D4H   SFRSYM    DATA     BYTE      T3H
      000000D6H   SFRSYM    DATA     BYTE      T2H
      0000008DH   SFRSYM    DATA     BYTE      TH1
      0000008EH   SFRSYM    DATA     BYTE      AUXR
      000000AFH   SFRSYM    DATA     BYTE      IE2
      00000088H   SFRSYM    DATA     BYTE      TCON
      00000089H   SFRSYM    DATA     BYTE      TMOD
      00000098H   SFRSYM    DATA     BYTE      SCON
      00000099H   SFRSYM    DATA     BYTE      SBUF
      000000BCH   SFRSYM    DATA     BYTE      ADC_CONTR
      000000DEH   SFRSYM    DATA     BYTE      ADCCFG
      000000B8H   SFRSYM    DATA     BYTE      IP
      000000A8H.4 SFRSYM    DATA     BIT       ES
L251 LINKER/LOCATER V4.66.93.0                                                        07/23/2024  16:57:56  PAGE 50


      000000A8H   SFRSYM    DATA     BYTE      IE
      000000BAH   SFRSYM    DATA     BYTE      P_SW2
      000000A2H   SFRSYM    DATA     BYTE      P_SW1
      000000F8H   SFRSYM    DATA     BYTE      P7
      000000E8H   SFRSYM    DATA     BYTE      P6
      000000C8H   SFRSYM    DATA     BYTE      P5
      000000C0H   SFRSYM    DATA     BYTE      P4
      000000C9H   SFRSYM    DATA     BYTE      P5M1
      000000B0H   SFRSYM    DATA     BYTE      P3
      000000CAH   SFRSYM    DATA     BYTE      P5M0
      000000A0H   SFRSYM    DATA     BYTE      P2
      00000090H   SFRSYM    DATA     BYTE      P1
      00000080H   SFRSYM    DATA     BYTE      P0

      00FF4229H   BLOCK     CODE     ---       LVL=0
      WR24        REGSYM    ---      INT       uart_n
      WR28        REGSYM    ---      INT       uart_rx_pin
      WR30        REGSYM    ---      INT       uart_tx_pin
      00000406H   SYMBOL    EDATA    DWORD     baud
      WR26        REGSYM    ---      INT       tim_n
      00FF4231H   BLOCK     CODE     NEAR LAB  LVL=1
      WR6         REGSYM    ---      WORD      brt
      ---         BLOCKEND  ---      ---       LVL=1
      00FF4229H   LINE      CODE     ---       #48
      00FF4231H   LINE      CODE     ---       #49
      00FF4231H   LINE      CODE     ---       #52
      00FF4254H   LINE      CODE     ---       #55
      00FF4272H   LINE      CODE     ---       #57
      00FF4272H   LINE      CODE     ---       #59
      00FF4278H   LINE      CODE     ---       #61
      00FF427BH   LINE      CODE     ---       #62
      00FF427FH   LINE      CODE     ---       #63
      00FF4283H   LINE      CODE     ---       #64
      00FF4287H   LINE      CODE     ---       #65
      00FF428AH   LINE      CODE     ---       #66
      00FF428CH   LINE      CODE     ---       #67
      00FF4291H   LINE      CODE     ---       #68
      00FF4293H   LINE      CODE     ---       #69
      00FF4299H   LINE      CODE     ---       #71
      00FF429CH   LINE      CODE     ---       #72
      00FF42A0H   LINE      CODE     ---       #73
      00FF42A4H   LINE      CODE     ---       #74
      00FF42A7H   LINE      CODE     ---       #75
      00FF42A7H   LINE      CODE     ---       #76
      00FF42AAH   LINE      CODE     ---       #77
      00FF42B4H   LINE      CODE     ---       #79
      00FF42B8H   LINE      CODE     ---       #80
      00FF42BAH   LINE      CODE     ---       #81
      00FF42C6H   LINE      CODE     ---       #83
      00FF42C9H   LINE      CODE     ---       #84
      00FF42CBH   LINE      CODE     ---       #85
      00FF42D7H   LINE      CODE     ---       #87
      00FF42DAH   LINE      CODE     ---       #88
      00FF42DCH   LINE      CODE     ---       #89
      00FF42E8H   LINE      CODE     ---       #91
      00FF42EBH   LINE      CODE     ---       #92
      00FF42EBH   LINE      CODE     ---       #93
      00FF42F0H   LINE      CODE     ---       #94
      00FF42F2H   LINE      CODE     ---       #95
      00FF42F3H   LINE      CODE     ---       #98
      00FF42F3H   LINE      CODE     ---       #100
      00FF42F9H   LINE      CODE     ---       #102
      00FF42FCH   LINE      CODE     ---       #103
      00FF4300H   LINE      CODE     ---       #104
      00FF4304H   LINE      CODE     ---       #105
L251 LINKER/LOCATER V4.66.93.0                                                        07/23/2024  16:57:56  PAGE 51


      00FF4307H   LINE      CODE     ---       #106
      00FF4307H   LINE      CODE     ---       #108
      00FF430AH   LINE      CODE     ---       #109
      00FF4316H   LINE      CODE     ---       #111
      00FF431AH   LINE      CODE     ---       #112
      00FF431CH   LINE      CODE     ---       #113
      00FF4328H   LINE      CODE     ---       #115
      00FF432BH   LINE      CODE     ---       #116
      00FF432BH   LINE      CODE     ---       #118
      00FF432EH   LINE      CODE     ---       #119
      00FF4333H   LINE      CODE     ---       #120
      00FF4334H   LINE      CODE     ---       #123
      00FF4334H   LINE      CODE     ---       #125
      00FF433AH   LINE      CODE     ---       #127
      00FF433DH   LINE      CODE     ---       #128
      00FF4341H   LINE      CODE     ---       #129
      00FF4345H   LINE      CODE     ---       #130
      00FF4348H   LINE      CODE     ---       #131
      00FF434AH   LINE      CODE     ---       #132
      00FF4350H   LINE      CODE     ---       #134
      00FF4353H   LINE      CODE     ---       #135
      00FF4357H   LINE      CODE     ---       #136
      00FF435BH   LINE      CODE     ---       #137
      00FF435EH   LINE      CODE     ---       #138
      00FF435EH   LINE      CODE     ---       #140
      00FF4361H   LINE      CODE     ---       #141
      00FF436DH   LINE      CODE     ---       #143
      00FF4371H   LINE      CODE     ---       #144
      00FF4373H   LINE      CODE     ---       #145
      00FF437FH   LINE      CODE     ---       #147
      00FF4382H   LINE      CODE     ---       #148
      00FF4382H   LINE      CODE     ---       #150
      00FF4385H   LINE      CODE     ---       #151
      00FF438AH   LINE      CODE     ---       #152
      00FF438BH   LINE      CODE     ---       #155
      00FF438BH   LINE      CODE     ---       #157
      00FF4391H   LINE      CODE     ---       #159
      00FF4394H   LINE      CODE     ---       #160
      00FF4398H   LINE      CODE     ---       #161
      00FF439CH   LINE      CODE     ---       #162
      00FF439FH   LINE      CODE     ---       #163
      00FF43A1H   LINE      CODE     ---       #164
      00FF43A7H   LINE      CODE     ---       #166
      00FF43AAH   LINE      CODE     ---       #167
      00FF43AEH   LINE      CODE     ---       #168
      00FF43B2H   LINE      CODE     ---       #169
      00FF43B5H   LINE      CODE     ---       #170
      00FF43B5H   LINE      CODE     ---       #172
      00FF43B8H   LINE      CODE     ---       #173
      00FF43C4H   LINE      CODE     ---       #175
      00FF43C8H   LINE      CODE     ---       #176
      00FF43CAH   LINE      CODE     ---       #177
      00FF43D6H   LINE      CODE     ---       #179
      00FF43D9H   LINE      CODE     ---       #180
      00FF43DCH   LINE      CODE     ---       #181
      00FF43DFH   LINE      CODE     ---       #182
      00FF43DFH   LINE      CODE     ---       #183
      00FF43E2H   LINE      CODE     ---       #184
      00FF43E7H   LINE      CODE     ---       #185
      00FF43E7H   LINE      CODE     ---       #188
      00FF43E7H   LINE      CODE     ---       #190
      ---         BLOCKEND  ---      ---       LVL=0

      00FF6192H   BLOCK     CODE     ---       LVL=0
      WR6         REGSYM    ---      INT       uart_n
L251 LINKER/LOCATER V4.66.93.0                                                        07/23/2024  16:57:56  PAGE 52


      R10         REGSYM    ---      BYTE      dat
      00FF6192H   LINE      CODE     ---       #199
      00FF6194H   LINE      CODE     ---       #201
      00FF61A6H   LINE      CODE     ---       #203
      00FF61A6H   LINE      CODE     ---       #204
      00FF61ACH   LINE      CODE     ---       #205
      00FF61B2H   LINE      CODE     ---       #206
      00FF61B5H   LINE      CODE     ---       #207
      00FF61B6H   LINE      CODE     ---       #208
      00FF61B6H   LINE      CODE     ---       #209
      00FF61BCH   LINE      CODE     ---       #210
      00FF61C2H   LINE      CODE     ---       #211
      00FF61C5H   LINE      CODE     ---       #212
      00FF61C6H   LINE      CODE     ---       #213
      00FF61C6H   LINE      CODE     ---       #214
      00FF61CCH   LINE      CODE     ---       #215
      00FF61D2H   LINE      CODE     ---       #216
      00FF61D5H   LINE      CODE     ---       #217
      00FF61D6H   LINE      CODE     ---       #218
      00FF61D6H   LINE      CODE     ---       #219
      00FF61DCH   LINE      CODE     ---       #220
      00FF61E2H   LINE      CODE     ---       #221
      00FF61E5H   LINE      CODE     ---       #222
      00FF61E5H   LINE      CODE     ---       #223
      00FF61E5H   LINE      CODE     ---       #224
      ---         BLOCKEND  ---      ---       LVL=0
      REG=3       REGSYM    ---      ---       p
      REG=3       REGSYM    ---      ---       str

      ---         MODULE    ---      ---       zf_fifo
      00FF648FH   PUBLIC    CODE     ---       fifo_head_offset
      00FF50DAH   PUBLIC    CODE     ---       fifo_write_buffer
      000003EAH   PUBLIC    EDATA    BYTE      ?fifo_write_buffer?BYTE
      000000D0H   SFRSYM    DATA     BYTE      PSW
      000000B7H   SFRSYM    DATA     BYTE      IPH
      00000088H   SFRSYM    DATA     BYTE      TCON
      00000098H   SFRSYM    DATA     BYTE      SCON
      000000BCH   SFRSYM    DATA     BYTE      ADC_CONTR
      000000DEH   SFRSYM    DATA     BYTE      ADCCFG
      000000B8H   SFRSYM    DATA     BYTE      IP
      000000A8H   SFRSYM    DATA     BYTE      IE
      000000F8H   SFRSYM    DATA     BYTE      P7
      000000E8H   SFRSYM    DATA     BYTE      P6
      000000C8H   SFRSYM    DATA     BYTE      P5
      000000C0H   SFRSYM    DATA     BYTE      P4
      000000B0H   SFRSYM    DATA     BYTE      P3
      000000A0H   SFRSYM    DATA     BYTE      P2
      00000090H   SFRSYM    DATA     BYTE      P1
      00000080H   SFRSYM    DATA     BYTE      P0
      REG=2       REGSYM    ---      ---       fifo
      REG=7       REGSYM    ---      ---       buffer_addr

      00FF648FH   BLOCK     CODE     ---       LVL=0
      REG=7       REGSYM    ---      ---       fifo
      DR24        REGSYM    ---      DWORD     offset
      00FF648FH   LINE      CODE     ---       #61
      00FF6493H   LINE      CODE     ---       #63
      00FF649EH   LINE      CODE     ---       #65
      00FF64A0H   LINE      CODE     ---       #67
      00FF64BCH   LINE      CODE     ---       #68
      00FF64D0H   LINE      CODE     ---       #69
      ---         BLOCKEND  ---      ---       LVL=0
      REG=7       REGSYM    ---      ---       fifo
      DR24        REGSYM    ---      DWORD     offset
      REG=2       REGSYM    ---      ---       fifo
L251 LINKER/LOCATER V4.66.93.0                                                        07/23/2024  16:57:56  PAGE 53


      REG=7       REGSYM    ---      ---       fifo

      00FF50DAH   BLOCK     CODE     ---       LVL=0
      REG=3       REGSYM    ---      ---       fifo
      000003EEH   SYMBOL    EDATA    ---       dat
      000003F2H   SYMBOL    EDATA    DWORD     length
      00FF50E2H   BLOCK     CODE     NEAR LAB  LVL=1
      000003F6H   SYMBOL    EDATA    DWORD     temp_length
      ---         BLOCKEND  ---      ---       LVL=1
      00FF50DAH   LINE      CODE     ---       #120
      00FF50E2H   LINE      CODE     ---       #121
      00FF50E2H   LINE      CODE     ---       #124
      00FF50F5H   LINE      CODE     ---       #126
      00FF510BH   LINE      CODE     ---       #128
      00FF510FH   LINE      CODE     ---       #130
      00FF5127H   LINE      CODE     ---       #131
      00FF5130H   LINE      CODE     ---       #132
      00FF5140H   LINE      CODE     ---       #133
      00FF5160H   LINE      CODE     ---       #134
      00FF516CH   LINE      CODE     ---       #135
      00FF516EH   LINE      CODE     ---       #138
      00FF518AH   LINE      CODE     ---       #139
      00FF5193H   LINE      CODE     ---       #140
      00FF5193H   LINE      CODE     ---       #142
      00FF51ADH   LINE      CODE     ---       #143
      00FF51AFH   LINE      CODE     ---       #146
      00FF51B5H   LINE      CODE     ---       #147
      00FF51B5H   LINE      CODE     ---       #149
      00FF51B7H   LINE      CODE     ---       #150
      ---         BLOCKEND  ---      ---       LVL=0
      REG=3       REGSYM    ---      ---       fifo

      ---         MODULE    ---      ---       SEEKFREE_18TFT
      000000D0H   SFRSYM    DATA     BYTE      PSW
      000000B7H   SFRSYM    DATA     BYTE      IPH
      000000A0H.5 SFRSYM    DATA     BIT       P25
      00000088H   SFRSYM    DATA     BYTE      TCON
      000000A0H.3 SFRSYM    DATA     BIT       P23
      00000098H   SFRSYM    DATA     BYTE      SCON
      000000A0H.2 SFRSYM    DATA     BIT       P22
      000000A0H.1 SFRSYM    DATA     BIT       P21
      000000A0H.0 SFRSYM    DATA     BIT       P20
      000000BCH   SFRSYM    DATA     BYTE      ADC_CONTR
      000000DEH   SFRSYM    DATA     BYTE      ADCCFG
      000000B8H   SFRSYM    DATA     BYTE      IP
      000000A8H   SFRSYM    DATA     BYTE      IE
      000000F8H   SFRSYM    DATA     BYTE      P7
      000000E8H   SFRSYM    DATA     BYTE      P6
      000000C8H   SFRSYM    DATA     BYTE      P5
      000000C0H   SFRSYM    DATA     BYTE      P4
      000000B0H   SFRSYM    DATA     BYTE      P3
      000000A0H   SFRSYM    DATA     BYTE      P2
      00000090H   SFRSYM    DATA     BYTE      P1
      00000080H   SFRSYM    DATA     BYTE      P0
      R7          REGSYM    ---      BYTE      dat
      R6          REGSYM    ---      BYTE      i
      R7          REGSYM    ---      BYTE      dat
      R6          REGSYM    ---      BYTE      i
      WR4         REGSYM    ---      WORD      dat
      R10         REGSYM    ---      BYTE      i
      WR12        REGSYM    ---      WORD      x_end
      WR14        REGSYM    ---      WORD      y_end
      WR14        REGSYM    ---      INT       color
      R13         REGSYM    ---      BYTE      i
      R12         REGSYM    ---      BYTE      j
L251 LINKER/LOCATER V4.66.93.0                                                        07/23/2024  16:57:56  PAGE 54


      WR2         REGSYM    ---      WORD      x
      WR0         REGSYM    ---      WORD      y
      WR14        REGSYM    ---      WORD      color
      WR12        REGSYM    ---      WORD      x
      WR14        REGSYM    ---      WORD      y
      REG=3       REGSYM    ---      ---       dat
      WR12        REGSYM    ---      WORD      x
      WR14        REGSYM    ---      WORD      y
      WR12        REGSYM    ---      WORD      x
      WR14        REGSYM    ---      WORD      y
      R10         REGSYM    ---      BYTE      dat
      WR12        REGSYM    ---      WORD      x
      WR14        REGSYM    ---      WORD      y
      WR12        REGSYM    ---      WORD      x
      WR14        REGSYM    ---      WORD      y
      WR2         REGSYM    ---      WORD      dat
      WR12        REGSYM    ---      WORD      y
      R15         REGSYM    ---      BYTE      num
      R14         REGSYM    ---      BYTE      length
      DR12        REGSYM    ---      FLOAT     dat
      R7          REGSYM    ---      CHAR      point
      R7          REGSYM    ---      BYTE      dat
      R7          REGSYM    ---      BYTE      dat
      WR4         REGSYM    ---      WORD      dat
      WR12        REGSYM    ---      WORD      x_end
      WR14        REGSYM    ---      WORD      y_end
      WR14        REGSYM    ---      INT       color
      R13         REGSYM    ---      BYTE      i
      R12         REGSYM    ---      BYTE      j
      WR2         REGSYM    ---      WORD      x
      WR0         REGSYM    ---      WORD      y
      WR14        REGSYM    ---      WORD      color
      WR12        REGSYM    ---      WORD      x
      WR14        REGSYM    ---      WORD      y
      REG=3       REGSYM    ---      ---       dat
      WR12        REGSYM    ---      WORD      x
      WR14        REGSYM    ---      WORD      y
      WR12        REGSYM    ---      WORD      x
      WR14        REGSYM    ---      WORD      y
      R10         REGSYM    ---      BYTE      dat
      WR12        REGSYM    ---      WORD      x
      WR14        REGSYM    ---      WORD      y
      WR12        REGSYM    ---      WORD      x
      WR14        REGSYM    ---      WORD      y
      WR2         REGSYM    ---      WORD      dat
      WR12        REGSYM    ---      WORD      y
      R15         REGSYM    ---      BYTE      num
      R14         REGSYM    ---      BYTE      length
      DR12        REGSYM    ---      FLOAT     dat
      R7          REGSYM    ---      CHAR      point
      REG=3       REGSYM    ---      ---       p

      ---         MODULE    ---      ---       SEEKFREE_ABSOLUTE_ENCODER
      000000D0H   SFRSYM    DATA     BYTE      PSW
      000000B7H   SFRSYM    DATA     BYTE      IPH
      000000A0H.7 SFRSYM    DATA     BIT       P27
      000000A0H.6 SFRSYM    DATA     BIT       P26
      000000A0H.5 SFRSYM    DATA     BIT       P25
      000000A0H.4 SFRSYM    DATA     BIT       P24
      00000088H   SFRSYM    DATA     BYTE      TCON
      00000098H   SFRSYM    DATA     BYTE      SCON
      000000A0H.2 SFRSYM    DATA     BIT       P22
      000000BCH   SFRSYM    DATA     BYTE      ADC_CONTR
      000000DEH   SFRSYM    DATA     BYTE      ADCCFG
      000000B8H   SFRSYM    DATA     BYTE      IP
L251 LINKER/LOCATER V4.66.93.0                                                        07/23/2024  16:57:56  PAGE 55


      000000A8H   SFRSYM    DATA     BYTE      IE
      000000F8H   SFRSYM    DATA     BYTE      P7
      000000E8H   SFRSYM    DATA     BYTE      P6
      000000C8H   SFRSYM    DATA     BYTE      P5
      000000C0H   SFRSYM    DATA     BYTE      P4
      000000B0H   SFRSYM    DATA     BYTE      P3
      000000A0H   SFRSYM    DATA     BYTE      P2
      00000090H   SFRSYM    DATA     BYTE      P1
      00000080H   SFRSYM    DATA     BYTE      P0
      WR6         REGSYM    ---      WORD      x
      R6          REGSYM    ---      BYTE      byte
      R7          REGSYM    ---      BYTE      i
      R7          REGSYM    ---      BYTE      cmd
      R15         REGSYM    ---      BYTE      val
      R7          REGSYM    ---      BYTE      cmd
      REG=3       REGSYM    ---      ---       val
      R7          REGSYM    ---      BYTE      cmd
      R15         REGSYM    ---      BYTE      val
      R14         REGSYM    ---      BYTE      dat
      R7          REGSYM    ---      BYTE      cmd
      REG=3       REGSYM    ---      ---       val
      WR14        REGSYM    ---      WORD      zero_position
      WR14        REGSYM    ---      WORD      angle
      R10         REGSYM    ---      BYTE      byte
      R7          REGSYM    ---      BYTE      cmd
      R15         REGSYM    ---      BYTE      val
      R7          REGSYM    ---      BYTE      cmd
      REG=3       REGSYM    ---      ---       val
      R7          REGSYM    ---      BYTE      cmd
      R15         REGSYM    ---      BYTE      val
      R14         REGSYM    ---      BYTE      dat
      R7          REGSYM    ---      BYTE      cmd
      REG=3       REGSYM    ---      ---       val
      WR14        REGSYM    ---      WORD      zero_position
      WR14        REGSYM    ---      WORD      angle

      ---         MODULE    ---      ---       SEEKFREE_FONT
      00FF00A6H   PUBLIC    CODE     ---       oled_8x16
      00FF0696H   PUBLIC    CODE     ---       tft_ascii
      00FF0C86H   PUBLIC    CODE     ---       oled_6x8
      000000D0H   SFRSYM    DATA     BYTE      PSW
      000000B7H   SFRSYM    DATA     BYTE      IPH
      00000088H   SFRSYM    DATA     BYTE      TCON
      00000098H   SFRSYM    DATA     BYTE      SCON
      000000BCH   SFRSYM    DATA     BYTE      ADC_CONTR
      000000DEH   SFRSYM    DATA     BYTE      ADCCFG
      000000B8H   SFRSYM    DATA     BYTE      IP
      000000A8H   SFRSYM    DATA     BYTE      IE
      000000F8H   SFRSYM    DATA     BYTE      P7
      000000E8H   SFRSYM    DATA     BYTE      P6
      000000C8H   SFRSYM    DATA     BYTE      P5
      000000C0H   SFRSYM    DATA     BYTE      P4
      000000B0H   SFRSYM    DATA     BYTE      P3
      000000A0H   SFRSYM    DATA     BYTE      P2
      00000090H   SFRSYM    DATA     BYTE      P1
      00000080H   SFRSYM    DATA     BYTE      P0

      ---         MODULE    ---      ---       SEEKFREE_IIC
      00000751H   PUBLIC    EDATA    BYTE      IIC_ad_main
      00000752H   PUBLIC    EDATA    BYTE      IIC_num
      00000753H   PUBLIC    EDATA    BYTE      IIC_ad_sub
      00000754H   PUBLIC    EDATA    ---       IIC_buf
      000000D0H   SFRSYM    DATA     BYTE      PSW
      000000B7H   SFRSYM    DATA     BYTE      IPH
      00000088H   SFRSYM    DATA     BYTE      TCON
L251 LINKER/LOCATER V4.66.93.0                                                        07/23/2024  16:57:56  PAGE 56


      000000C0H.1 SFRSYM    DATA     BIT       P41
      00000098H   SFRSYM    DATA     BYTE      SCON
      000000C0H.0 SFRSYM    DATA     BIT       P40
      000000BCH   SFRSYM    DATA     BYTE      ADC_CONTR
      000000DEH   SFRSYM    DATA     BYTE      ADCCFG
      000000B8H   SFRSYM    DATA     BYTE      IP
      000000A8H   SFRSYM    DATA     BYTE      IE
      000000F8H   SFRSYM    DATA     BYTE      P7
      000000E8H   SFRSYM    DATA     BYTE      P6
      000000C8H   SFRSYM    DATA     BYTE      P5
      000000C0H   SFRSYM    DATA     BYTE      P4
      000000B0H   SFRSYM    DATA     BYTE      P3
      000000A0H   SFRSYM    DATA     BYTE      P2
      00000090H   SFRSYM    DATA     BYTE      P1
      00000080H   SFRSYM    DATA     BYTE      P0
      WR6         REGSYM    ---      WORD      j
      R15         REGSYM    ---      BYTE      ack_dat
      R15         REGSYM    ---      BYTE      c
      R14         REGSYM    ---      BYTE      i
      R15         REGSYM    ---      BYTE      ack_x
      R13         REGSYM    ---      BYTE      i
      R14         REGSYM    ---      BYTE      c
      R13         REGSYM    ---      BYTE      dev_add
      R14         REGSYM    ---      BYTE      reg
      R15         REGSYM    ---      BYTE      dat
      R15         REGSYM    ---      BYTE      dev_add
      R14         REGSYM    ---      BYTE      reg
      WR12        REGSYM    ---      INT       type
      R15         REGSYM    ---      BYTE      dat
      REG=3       REGSYM    ---      ---       dat_add

      ---         MODULE    ---      ---       SEEKFREE_MPU6050
      0000072FH   PUBLIC    EDATA    INT       mpu_acc_x
      00000731H   PUBLIC    EDATA    INT       mpu_acc_y
      00000733H   PUBLIC    EDATA    INT       mpu_acc_z
      00000735H   PUBLIC    EDATA    INT       mpu_gyro_x
      00000737H   PUBLIC    EDATA    INT       mpu_gyro_y
      00000739H   PUBLIC    EDATA    INT       mpu_gyro_z
      000000D0H   SFRSYM    DATA     BYTE      PSW
      000000B7H   SFRSYM    DATA     BYTE      IPH
      00000088H   SFRSYM    DATA     BYTE      TCON
      00000098H   SFRSYM    DATA     BYTE      SCON
      000000BCH   SFRSYM    DATA     BYTE      ADC_CONTR
      000000DEH   SFRSYM    DATA     BYTE      ADCCFG
      000000B8H   SFRSYM    DATA     BYTE      IP
      000000A8H   SFRSYM    DATA     BYTE      IE
      000000F8H   SFRSYM    DATA     BYTE      P7
      000000E8H   SFRSYM    DATA     BYTE      P6
      000000C8H   SFRSYM    DATA     BYTE      P5
      000000C0H   SFRSYM    DATA     BYTE      P4
      000000B0H   SFRSYM    DATA     BYTE      P3
      000000A0H   SFRSYM    DATA     BYTE      P2
      00000090H   SFRSYM    DATA     BYTE      P1
      00000080H   SFRSYM    DATA     BYTE      P0

      ---         MODULE    ---      ---       SEEKFREE_OLED
      00FF6A5AH   PUBLIC    CODE     ---       oled_set_pos
      00FF4D26H   PUBLIC    CODE     ---       oled_printf_float
      00FF696FH   PUBLIC    CODE     ---       oled_wrcmd
      00FF6998H   PUBLIC    CODE     ---       oled_wrdat
      00FF679CH   PUBLIC    CODE     ---       oled_fill
      00FF56DFH   PUBLIC    CODE     ---       oled_init
      00FF4F0EH   PUBLIC    CODE     ---       oled_p8x16str
      00000402H   PUBLIC    EDATA    BYTE      ?oled_printf_float?BYTE
      000000D0H   SFRSYM    DATA     BYTE      PSW
L251 LINKER/LOCATER V4.66.93.0                                                        07/23/2024  16:57:56  PAGE 57


      000000B7H   SFRSYM    DATA     BYTE      IPH
      000000A0H.5 SFRSYM    DATA     BIT       P25
      00000088H   SFRSYM    DATA     BYTE      TCON
      000000A0H.3 SFRSYM    DATA     BIT       P23
      00000098H   SFRSYM    DATA     BYTE      SCON
      000000A0H.2 SFRSYM    DATA     BIT       P22
      000000A0H.1 SFRSYM    DATA     BIT       P21
      000000A0H.0 SFRSYM    DATA     BIT       P20
      000000BCH   SFRSYM    DATA     BYTE      ADC_CONTR
      000000DEH   SFRSYM    DATA     BYTE      ADCCFG
      000000B8H   SFRSYM    DATA     BYTE      IP
      000000A8H   SFRSYM    DATA     BYTE      IE
      000000F8H   SFRSYM    DATA     BYTE      P7
      000000E8H   SFRSYM    DATA     BYTE      P6
      000000C8H   SFRSYM    DATA     BYTE      P5
      000000C0H   SFRSYM    DATA     BYTE      P4
      000000B0H   SFRSYM    DATA     BYTE      P3
      000000A0H   SFRSYM    DATA     BYTE      P2
      00000090H   SFRSYM    DATA     BYTE      P1
      00000080H   SFRSYM    DATA     BYTE      P0

      00FF6998H   BLOCK     CODE     ---       LVL=0
      R7          REGSYM    ---      BYTE      dat
      00FF699AH   BLOCK     CODE     NEAR LAB  LVL=1
      R6          REGSYM    ---      BYTE      i
      ---         BLOCKEND  ---      ---       LVL=1
      00FF6998H   LINE      CODE     ---       #47
      00FF699AH   LINE      CODE     ---       #48
      00FF699AH   LINE      CODE     ---       #49
      00FF699DH   LINE      CODE     ---       #51
      00FF699FH   LINE      CODE     ---       #52
      00FF69A1H   LINE      CODE     ---       #53
      00FF69A3H   LINE      CODE     ---       #54
      00FF69A5H   LINE      CODE     ---       #56
      00FF69AEH   LINE      CODE     ---       #57
      00FF69B0H   LINE      CODE     ---       #58
      00FF69B2H   LINE      CODE     ---       #60
      00FF69B4H   LINE      CODE     ---       #61
      00FF69B6H   LINE      CODE     ---       #62
      00FF69BEH   LINE      CODE     ---       #63
      00FF69C0H   LINE      CODE     ---       #64
      ---         BLOCKEND  ---      ---       LVL=0

      00FF696FH   BLOCK     CODE     ---       LVL=0
      R7          REGSYM    ---      BYTE      cmd
      00FF6971H   BLOCK     CODE     NEAR LAB  LVL=1
      R6          REGSYM    ---      BYTE      i
      ---         BLOCKEND  ---      ---       LVL=1
      00FF696FH   LINE      CODE     ---       #98
      00FF6971H   LINE      CODE     ---       #99
      00FF6971H   LINE      CODE     ---       #100
      00FF6974H   LINE      CODE     ---       #102
      00FF6976H   LINE      CODE     ---       #103
      00FF6978H   LINE      CODE     ---       #104
      00FF697AH   LINE      CODE     ---       #106
      00FF697CH   LINE      CODE     ---       #108
      00FF6985H   LINE      CODE     ---       #109
      00FF6987H   LINE      CODE     ---       #110
      00FF6989H   LINE      CODE     ---       #112
      00FF698BH   LINE      CODE     ---       #113
      00FF698DH   LINE      CODE     ---       #114
      00FF6995H   LINE      CODE     ---       #115
      00FF6997H   LINE      CODE     ---       #116
      ---         BLOCKEND  ---      ---       LVL=0
      WR8         REGSYM    ---      WORD      hex
L251 LINKER/LOCATER V4.66.93.0                                                        07/23/2024  16:57:56  PAGE 58


      REG=7       REGSYM    ---      ---       Print
      R5          REGSYM    ---      BYTE      hexcheck
      R10         REGSYM    ---      BYTE      TEMP

      00FF56DFH   BLOCK     CODE     ---       LVL=0
      00FF56DFH   LINE      CODE     ---       #148
      00FF56DFH   LINE      CODE     ---       #151
      00FF56E1H   LINE      CODE     ---       #152
      00FF56E3H   LINE      CODE     ---       #154
      00FF56E5H   LINE      CODE     ---       #155
      00FF56ECH   LINE      CODE     ---       #156
      00FF56EEH   LINE      CODE     ---       #158
      00FF56F3H   LINE      CODE     ---       #159
      00FF56F7H   LINE      CODE     ---       #160
      00FF56FCH   LINE      CODE     ---       #161
      00FF5701H   LINE      CODE     ---       #162
      00FF5706H   LINE      CODE     ---       #163
      00FF570BH   LINE      CODE     ---       #166
      00FF5710H   LINE      CODE     ---       #167
      00FF5715H   LINE      CODE     ---       #173
      00FF571AH   LINE      CODE     ---       #174
      00FF571FH   LINE      CODE     ---       #175
      00FF5724H   LINE      CODE     ---       #176
      00FF5729H   LINE      CODE     ---       #177
      00FF572DH   LINE      CODE     ---       #178
      00FF5732H   LINE      CODE     ---       #179
      00FF5737H   LINE      CODE     ---       #180
      00FF573CH   LINE      CODE     ---       #181
      00FF5741H   LINE      CODE     ---       #182
      00FF5746H   LINE      CODE     ---       #183
      00FF574BH   LINE      CODE     ---       #184
      00FF5750H   LINE      CODE     ---       #185
      00FF5755H   LINE      CODE     ---       #186
      00FF575AH   LINE      CODE     ---       #187
      00FF575FH   LINE      CODE     ---       #188
      00FF5764H   LINE      CODE     ---       #189
      00FF5769H   LINE      CODE     ---       #190
      00FF576EH   LINE      CODE     ---       #191
      00FF5773H   LINE      CODE     ---       #192
      00FF5778H   LINE      CODE     ---       #193
      00FF577CH   LINE      CODE     ---       #194
      ---         BLOCKEND  ---      ---       LVL=0

      00FF6A5AH   BLOCK     CODE     ---       LVL=0
      R15         REGSYM    ---      BYTE      x
      R10         REGSYM    ---      BYTE      y
      00FF6A5AH   LINE      CODE     ---       #205
      00FF6A5EH   LINE      CODE     ---       #207
      00FF6A65H   LINE      CODE     ---       #208
      00FF6A73H   LINE      CODE     ---       #209
      00FF6A7AH   LINE      CODE     ---       #210
      ---         BLOCKEND  ---      ---       LVL=0

      00FF679CH   BLOCK     CODE     ---       LVL=0
      R15         REGSYM    ---      BYTE      bmp_data
      00FF67A2H   BLOCK     CODE     NEAR LAB  LVL=1
      R14         REGSYM    ---      BYTE      y
      R13         REGSYM    ---      BYTE      x
      ---         BLOCKEND  ---      ---       LVL=1
      00FF679CH   LINE      CODE     ---       #219
      00FF67A2H   LINE      CODE     ---       #220
      00FF67A2H   LINE      CODE     ---       #223
      00FF67A4H   LINE      CODE     ---       #225
      00FF67ABH   LINE      CODE     ---       #226
      00FF67B0H   LINE      CODE     ---       #227
L251 LINKER/LOCATER V4.66.93.0                                                        07/23/2024  16:57:56  PAGE 59


      00FF67B5H   LINE      CODE     ---       #228
      00FF67C3H   LINE      CODE     ---       #229
      00FF67CAH   LINE      CODE     ---       #230
      ---         BLOCKEND  ---      ---       LVL=0
      R15         REGSYM    ---      BYTE      x
      R14         REGSYM    ---      BYTE      y
      R13         REGSYM    ---      BYTE      data1
      R15         REGSYM    ---      BYTE      x
      R14         REGSYM    ---      BYTE      y
      REG=3       REGSYM    ---      ---       ch

      00FF4F0EH   BLOCK     CODE     ---       LVL=0
      00000431H   SYMBOL    EDATA    BYTE      x
      00000432H   SYMBOL    EDATA    BYTE      y
      REG=3       REGSYM    ---      ---       ch
      00FF4F1AH   BLOCK     CODE     NEAR LAB  LVL=1
      00000433H   SYMBOL    EDATA    BYTE      c
      00000434H   SYMBOL    EDATA    BYTE      i
      00000435H   SYMBOL    EDATA    BYTE      j
      ---         BLOCKEND  ---      ---       LVL=1
      00FF4F0EH   LINE      CODE     ---       #302
      00FF4F1AH   LINE      CODE     ---       #303
      00FF4F1AH   LINE      CODE     ---       #304
      00FF4F23H   LINE      CODE     ---       #306
      00FF4F26H   LINE      CODE     ---       #308
      00FF4F3DH   LINE      CODE     ---       #309
      00FF4F54H   LINE      CODE     ---       #311
      00FF4F5FH   LINE      CODE     ---       #312
      00FF4F90H   LINE      CODE     ---       #314
      00FF4F9DH   LINE      CODE     ---       #315
      00FF4FCEH   LINE      CODE     ---       #317
      00FF4FD8H   LINE      CODE     ---       #318
      00FF4FE1H   LINE      CODE     ---       #319
      00FF4FF3H   LINE      CODE     ---       #320
      ---         BLOCKEND  ---      ---       LVL=0
      R14         REGSYM    ---      BYTE      x
      R15         REGSYM    ---      BYTE      y
      WR4         REGSYM    ---      WORD      num
      R15         REGSYM    ---      BYTE      x
      R14         REGSYM    ---      BYTE      y
      WR12        REGSYM    ---      INT       num
      WR12        REGSYM    ---      WORD      y
      R15         REGSYM    ---      BYTE      num
      R14         REGSYM    ---      BYTE      length

      00FF4D26H   BLOCK     CODE     ---       LVL=0
      00000406H   SYMBOL    EDATA    WORD      x
      00000408H   SYMBOL    EDATA    WORD      y
      DR12        REGSYM    ---      FLOAT     dat
      0000040AH   SYMBOL    EDATA    BYTE      num
      0000040BH   SYMBOL    EDATA    BYTE      pointnum
      00FF4D36H   BLOCK     CODE     NEAR LAB  LVL=1
      0000040CH   SYMBOL    EDATA    BYTE      length
      0000040DH   SYMBOL    EDATA    ---       buff
      0000042FH   SYMBOL    EDATA    CHAR      start
      00000430H   SYMBOL    EDATA    CHAR      end
      R7          REGSYM    ---      CHAR      point
      ---         BLOCKEND  ---      ---       LVL=1
      00FF4D26H   LINE      CODE     ---       #412
      00FF4D36H   LINE      CODE     ---       #413
      00FF4D36H   LINE      CODE     ---       #418
      00FF4D45H   LINE      CODE     ---       #419
      00FF4D54H   LINE      CODE     ---       #421
      00FF4D76H   LINE      CODE     ---       #424
      00FF4D8FH   LINE      CODE     ---       #425
L251 LINKER/LOCATER V4.66.93.0                                                        07/23/2024  16:57:56  PAGE 60


      00FF4D94H   LINE      CODE     ---       #426
      00FF4D94H   LINE      CODE     ---       #427
      00FF4D9EH   LINE      CODE     ---       #428
      00FF4DAEH   LINE      CODE     ---       #429
      00FF4DBEH   LINE      CODE     ---       #430
      00FF4DC3H   LINE      CODE     ---       #432
      00FF4DCDH   LINE      CODE     ---       #433
      00FF4DD6H   LINE      CODE     ---       #434
      00FF4DDFH   LINE      CODE     ---       #435
      00FF4DE8H   LINE      CODE     ---       #437
      00FF4DF5H   LINE      CODE     ---       #438
      00FF4E01H   LINE      CODE     ---       #440
      00FF4E0CH   LINE      CODE     ---       #442
      00FF4E1BH   LINE      CODE     ---       #443
      ---         BLOCKEND  ---      ---       LVL=0
      WR4         REGSYM    ---      WORD      high
      REG=3       REGSYM    ---      ---       p
      REG=3       REGSYM    ---      ---       p
      R7          REGSYM    ---      BYTE      dat
      R7          REGSYM    ---      BYTE      cmd
      WR8         REGSYM    ---      WORD      hex
      REG=7       REGSYM    ---      ---       Print
      R5          REGSYM    ---      BYTE      hexcheck
      R10         REGSYM    ---      BYTE      TEMP
      R15         REGSYM    ---      BYTE      x
      R10         REGSYM    ---      BYTE      y
      R15         REGSYM    ---      BYTE      bmp_data
      R14         REGSYM    ---      BYTE      y
      R13         REGSYM    ---      BYTE      x
      R15         REGSYM    ---      BYTE      x
      R14         REGSYM    ---      BYTE      y
      R13         REGSYM    ---      BYTE      data1
      R15         REGSYM    ---      BYTE      x
      R14         REGSYM    ---      BYTE      y
      REG=3       REGSYM    ---      ---       ch
      REG=3       REGSYM    ---      ---       ch
      R14         REGSYM    ---      BYTE      x
      R15         REGSYM    ---      BYTE      y
      WR4         REGSYM    ---      WORD      num
      R15         REGSYM    ---      BYTE      x
      R14         REGSYM    ---      BYTE      y
      WR12        REGSYM    ---      INT       num
      WR12        REGSYM    ---      WORD      y
      R15         REGSYM    ---      BYTE      num
      R14         REGSYM    ---      BYTE      length
      DR12        REGSYM    ---      FLOAT     dat
      R7          REGSYM    ---      CHAR      point
      WR4         REGSYM    ---      WORD      high
      REG=3       REGSYM    ---      ---       p
      REG=3       REGSYM    ---      ---       p

      ---         MODULE    ---      ---       SEEKFREE_AT24C02
      000000D0H   SFRSYM    DATA     BYTE      PSW
      000000B7H   SFRSYM    DATA     BYTE      IPH
      00000088H   SFRSYM    DATA     BYTE      TCON
      00000098H   SFRSYM    DATA     BYTE      SCON
      000000BCH   SFRSYM    DATA     BYTE      ADC_CONTR
      000000DEH   SFRSYM    DATA     BYTE      ADCCFG
      000000B8H   SFRSYM    DATA     BYTE      IP
      000000A8H   SFRSYM    DATA     BYTE      IE
      000000F8H   SFRSYM    DATA     BYTE      P7
      000000E8H   SFRSYM    DATA     BYTE      P6
      000000C8H   SFRSYM    DATA     BYTE      P5
      000000C0H   SFRSYM    DATA     BYTE      P4
      000000B0H   SFRSYM    DATA     BYTE      P3
L251 LINKER/LOCATER V4.66.93.0                                                        07/23/2024  16:57:56  PAGE 61


      000000A0H   SFRSYM    DATA     BYTE      P2
      00000090H   SFRSYM    DATA     BYTE      P1
      00000080H   SFRSYM    DATA     BYTE      P0
      R14         REGSYM    ---      BYTE      byte_reg
      R15         REGSYM    ---      BYTE      dat
      R15         REGSYM    ---      BYTE      byte_reg
      REG=3       REGSYM    ---      ---       dat_add
      REG=3       REGSYM    ---      ---       dat_add

      ---         MODULE    ---      ---       SEEKFREE_BLUETOOTH_CH9141
      00FF6B58H   PUBLIC    CODE     ---       bluetooth_ch9141_uart_callback
      000000D0H   SFRSYM    DATA     BYTE      PSW
      000000FEH   SFRSYM    DATA     BYTE      S4BUF
      000000B7H   SFRSYM    DATA     BYTE      IPH
      00000080H.7 SFRSYM    DATA     BIT       P07
      00000088H   SFRSYM    DATA     BYTE      TCON
      00000098H   SFRSYM    DATA     BYTE      SCON
      000000BCH   SFRSYM    DATA     BYTE      ADC_CONTR
      000000DEH   SFRSYM    DATA     BYTE      ADCCFG
      000000B8H   SFRSYM    DATA     BYTE      IP
      000000A8H   SFRSYM    DATA     BYTE      IE
      000000F8H   SFRSYM    DATA     BYTE      P7
      000000E8H   SFRSYM    DATA     BYTE      P6
      000000C8H   SFRSYM    DATA     BYTE      P5
      000000C0H   SFRSYM    DATA     BYTE      P4
      000000B0H   SFRSYM    DATA     BYTE      P3
      000000A0H   SFRSYM    DATA     BYTE      P2
      00000090H   SFRSYM    DATA     BYTE      P1
      00000080H   SFRSYM    DATA     BYTE      P0
      00000565H   SYMBOL    EDATA    ---       bluetooth_ch9141_buffer
      000005A5H   SYMBOL    EDATA    BYTE      bluetooth_ch9141_data
      000005A6H   SYMBOL    EDATA    ---       bluetooth_ch9141_fifo

      00FF6B58H   BLOCK     CODE     ---       LVL=0
      00FF6B58H   LINE      CODE     ---       #67
      00FF6B58H   LINE      CODE     ---       #70
      00FF6B5EH   LINE      CODE     ---       #71
      ---         BLOCKEND  ---      ---       LVL=0
      DR12        REGSYM    ---      DWORD     len
      REG=7       REGSYM    ---      ---       buff
      DR8         REGSYM    ---      DWORD     len

      ---         MODULE    ---      ---       SEEKFREE_ICM20602
      0000073BH   PUBLIC    EDATA    INT       icm_acc_x
      0000073DH   PUBLIC    EDATA    INT       icm_acc_y
      0000073FH   PUBLIC    EDATA    INT       icm_acc_z
      00000741H   PUBLIC    EDATA    INT       icm_gyro_x
      00000743H   PUBLIC    EDATA    INT       icm_gyro_y
      00000745H   PUBLIC    EDATA    INT       icm_gyro_z
      000000D0H   SFRSYM    DATA     BYTE      PSW
      000000B7H   SFRSYM    DATA     BYTE      IPH
      000000C0H.3 SFRSYM    DATA     BIT       P43
      000000C0H.2 SFRSYM    DATA     BIT       P42
      00000088H   SFRSYM    DATA     BYTE      TCON
      000000C0H.1 SFRSYM    DATA     BIT       P41
      00000098H   SFRSYM    DATA     BYTE      SCON
      000000C0H.0 SFRSYM    DATA     BIT       P40
      000000BCH   SFRSYM    DATA     BYTE      ADC_CONTR
      000000DEH   SFRSYM    DATA     BYTE      ADCCFG
      000000B8H   SFRSYM    DATA     BYTE      IP
      000000A8H   SFRSYM    DATA     BYTE      IE
      000000F8H   SFRSYM    DATA     BYTE      P7
      000000E8H   SFRSYM    DATA     BYTE      P6
      000000C8H   SFRSYM    DATA     BYTE      P5
      000000C0H   SFRSYM    DATA     BYTE      P4
L251 LINKER/LOCATER V4.66.93.0                                                        07/23/2024  16:57:56  PAGE 62


      000000B0H   SFRSYM    DATA     BYTE      P3
      000000A0H   SFRSYM    DATA     BYTE      P2
      00000090H   SFRSYM    DATA     BYTE      P1
      00000080H   SFRSYM    DATA     BYTE      P0
      R15         REGSYM    ---      BYTE      dat
      R6          REGSYM    ---      BYTE      byte
      R7          REGSYM    ---      BYTE      i
      R7          REGSYM    ---      BYTE      cmd
      R15         REGSYM    ---      BYTE      val
      R7          REGSYM    ---      BYTE      cmd
      REG=3       REGSYM    ---      ---       val
      R7          REGSYM    ---      BYTE      cmd
      REG=3       REGSYM    ---      ---       val

      ---         MODULE    ---      ---       SEEKFREE_IPS114_SPI
      000000D0H   SFRSYM    DATA     BYTE      PSW
      000000B7H   SFRSYM    DATA     BYTE      IPH
      000000A0H.7 SFRSYM    DATA     BIT       P27
      000000A0H.5 SFRSYM    DATA     BIT       P25
      00000088H   SFRSYM    DATA     BYTE      TCON
      000000A0H.3 SFRSYM    DATA     BIT       P23
      00000098H   SFRSYM    DATA     BYTE      SCON
      000000A0H.2 SFRSYM    DATA     BIT       P22
      000000A0H.1 SFRSYM    DATA     BIT       P21
      000000A0H.0 SFRSYM    DATA     BIT       P20
      000000BCH   SFRSYM    DATA     BYTE      ADC_CONTR
      000000DEH   SFRSYM    DATA     BYTE      ADCCFG
      000000B8H   SFRSYM    DATA     BYTE      IP
      000000A8H   SFRSYM    DATA     BYTE      IE
      000000F8H   SFRSYM    DATA     BYTE      P7
      000000E8H   SFRSYM    DATA     BYTE      P6
      000000C8H   SFRSYM    DATA     BYTE      P5
      000000C0H   SFRSYM    DATA     BYTE      P4
      000000B0H   SFRSYM    DATA     BYTE      P3
      000000A0H   SFRSYM    DATA     BYTE      P2
      00000090H   SFRSYM    DATA     BYTE      P1
      00000080H   SFRSYM    DATA     BYTE      P0
      R7          REGSYM    ---      BYTE      dat
      R6          REGSYM    ---      BYTE      i
      R7          REGSYM    ---      BYTE      dat
      R6          REGSYM    ---      BYTE      i
      WR4         REGSYM    ---      WORD      dat
      R10         REGSYM    ---      BYTE      i
      WR12        REGSYM    ---      WORD      x2
      WR14        REGSYM    ---      WORD      y2
      WR14        REGSYM    ---      WORD      color
      R13         REGSYM    ---      BYTE      i
      WR2         REGSYM    ---      WORD      x
      WR0         REGSYM    ---      WORD      y
      WR14        REGSYM    ---      WORD      color
      WR12        REGSYM    ---      WORD      x
      WR14        REGSYM    ---      WORD      y
      REG=3       REGSYM    ---      ---       dat
      WR12        REGSYM    ---      WORD      x
      WR14        REGSYM    ---      WORD      y
      WR12        REGSYM    ---      WORD      x
      WR14        REGSYM    ---      WORD      y
      R10         REGSYM    ---      BYTE      dat
      WR12        REGSYM    ---      WORD      x
      WR14        REGSYM    ---      WORD      y
      WR12        REGSYM    ---      WORD      x
      WR14        REGSYM    ---      WORD      y
      WR2         REGSYM    ---      WORD      dat
      WR12        REGSYM    ---      WORD      y
      R15         REGSYM    ---      BYTE      num
L251 LINKER/LOCATER V4.66.93.0                                                        07/23/2024  16:57:56  PAGE 63


      R14         REGSYM    ---      BYTE      length
      DR12        REGSYM    ---      FLOAT     dat
      R7          REGSYM    ---      CHAR      point
      R7          REGSYM    ---      BYTE      dat
      R7          REGSYM    ---      BYTE      dat
      WR4         REGSYM    ---      WORD      dat
      WR12        REGSYM    ---      WORD      x2
      WR14        REGSYM    ---      WORD      y2
      WR14        REGSYM    ---      WORD      color
      R13         REGSYM    ---      BYTE      i
      WR2         REGSYM    ---      WORD      x
      WR0         REGSYM    ---      WORD      y
      WR14        REGSYM    ---      WORD      color
      WR12        REGSYM    ---      WORD      x
      WR14        REGSYM    ---      WORD      y
      REG=3       REGSYM    ---      ---       dat
      WR12        REGSYM    ---      WORD      x
      WR14        REGSYM    ---      WORD      y
      WR12        REGSYM    ---      WORD      x
      WR14        REGSYM    ---      WORD      y
      R10         REGSYM    ---      BYTE      dat
      WR12        REGSYM    ---      WORD      x
      WR14        REGSYM    ---      WORD      y
      WR12        REGSYM    ---      WORD      x
      WR14        REGSYM    ---      WORD      y
      WR2         REGSYM    ---      WORD      dat
      WR12        REGSYM    ---      WORD      y
      R15         REGSYM    ---      BYTE      num
      R14         REGSYM    ---      BYTE      length
      DR12        REGSYM    ---      FLOAT     dat
      R7          REGSYM    ---      CHAR      point

      ---         MODULE    ---      ---       SEEKFREE_TSL1401
      0000013DH   PUBLIC    EDATA    BYTE      tsl1401_finish_flag
      0000013EH   PUBLIC    EDATA    ---       ccd_data
      000000D0H   SFRSYM    DATA     BYTE      PSW
      000000B7H   SFRSYM    DATA     BYTE      IPH
      000000B0H.3 SFRSYM    DATA     BIT       P33
      00000088H   SFRSYM    DATA     BYTE      TCON
      000000B0H.2 SFRSYM    DATA     BIT       P32
      00000098H   SFRSYM    DATA     BYTE      SCON
      000000BCH   SFRSYM    DATA     BYTE      ADC_CONTR
      000000DEH   SFRSYM    DATA     BYTE      ADCCFG
      000000B8H   SFRSYM    DATA     BYTE      IP
      000000A8H   SFRSYM    DATA     BYTE      IE
      000000F8H   SFRSYM    DATA     BYTE      P7
      000000E8H   SFRSYM    DATA     BYTE      P6
      000000C8H   SFRSYM    DATA     BYTE      P5
      000000C0H   SFRSYM    DATA     BYTE      P4
      000000B0H   SFRSYM    DATA     BYTE      P3
      000000A0H   SFRSYM    DATA     BYTE      P2
      00000090H   SFRSYM    DATA     BYTE      P1
      00000080H   SFRSYM    DATA     BYTE      P0
      REG=3       REGSYM    ---      ---       dat
      R15         REGSYM    ---      BYTE      i

      ---         MODULE    ---      ---       SEEKFREE_VIRSCO
      00000747H   PUBLIC    EDATA    ---       virtual_scope_data
      000000D0H   SFRSYM    DATA     BYTE      PSW
      000000B7H   SFRSYM    DATA     BYTE      IPH
      00000088H   SFRSYM    DATA     BYTE      TCON
      00000098H   SFRSYM    DATA     BYTE      SCON
      000000BCH   SFRSYM    DATA     BYTE      ADC_CONTR
      000000DEH   SFRSYM    DATA     BYTE      ADCCFG
      000000B8H   SFRSYM    DATA     BYTE      IP
L251 LINKER/LOCATER V4.66.93.0                                                        07/23/2024  16:57:56  PAGE 64


      000000A8H   SFRSYM    DATA     BYTE      IE
      000000F8H   SFRSYM    DATA     BYTE      P7
      000000E8H   SFRSYM    DATA     BYTE      P6
      000000C8H   SFRSYM    DATA     BYTE      P5
      000000C0H   SFRSYM    DATA     BYTE      P4
      000000B0H   SFRSYM    DATA     BYTE      P3
      000000A0H   SFRSYM    DATA     BYTE      P2
      00000090H   SFRSYM    DATA     BYTE      P1
      00000080H   SFRSYM    DATA     BYTE      P0
      REG=7       REGSYM    ---      ---       Buf
      R10         REGSYM    ---      BYTE      CRC_CNT
      WR6         REGSYM    ---      WORD      CRC_Temp
      R5          REGSYM    ---      BYTE      i
      R4          REGSYM    ---      BYTE      j
      WR0         REGSYM    ---      INT       data1
      WR30        REGSYM    ---      INT       data2
      WR8         REGSYM    ---      INT       data3
      WR10        REGSYM    ---      INT       data4
      WR6         REGSYM    ---      WORD      CRC16

      ---         MODULE    ---      ---       SEEKFREE_WIRELESS
      00FF6B71H   PUBLIC    CODE     ---       wireless_uart_callback
      000000D0H   SFRSYM    DATA     BYTE      PSW
      000000FEH   SFRSYM    DATA     BYTE      S4BUF
      000000B7H   SFRSYM    DATA     BYTE      IPH
      00000080H.7 SFRSYM    DATA     BIT       P07
      00000088H   SFRSYM    DATA     BYTE      TCON
      00000098H   SFRSYM    DATA     BYTE      SCON
      000000BCH   SFRSYM    DATA     BYTE      ADC_CONTR
      000000DEH   SFRSYM    DATA     BYTE      ADCCFG
      000000B8H   SFRSYM    DATA     BYTE      IP
      000000A8H   SFRSYM    DATA     BYTE      IE
      000000F8H   SFRSYM    DATA     BYTE      P7
      000000E8H   SFRSYM    DATA     BYTE      P6
      000000C8H   SFRSYM    DATA     BYTE      P5
      000000C0H   SFRSYM    DATA     BYTE      P4
      000000B0H   SFRSYM    DATA     BYTE      P3
      000000A0H   SFRSYM    DATA     BYTE      P2
      00000090H   SFRSYM    DATA     BYTE      P1
      00000080H   SFRSYM    DATA     BYTE      P0
      000005BAH   SYMBOL    EDATA    BYTE      wireless_uart_data
      000005BBH   SYMBOL    EDATA    ---       wireless_uart_fifo
      000005CFH   SYMBOL    EDATA    ---       wireless_uart_buffer

      00FF6B71H   BLOCK     CODE     ---       LVL=0
      00FF6B71H   LINE      CODE     ---       #48
      00FF6B71H   LINE      CODE     ---       #51
      00FF6B77H   LINE      CODE     ---       #52
      ---         BLOCKEND  ---      ---       LVL=0
      REG=3       REGSYM    ---      ---       buff
      REG=7       REGSYM    ---      ---       buff
      DR8         REGSYM    ---      DWORD     len

      ---         MODULE    ---      ---       SEEKFREE_WIRELESS_CH573
      00FF6B8AH   PUBLIC    CODE     ---       wireless_ch573_callback
      000000D0H   SFRSYM    DATA     BYTE      PSW
      000000FEH   SFRSYM    DATA     BYTE      S4BUF
      000000B7H   SFRSYM    DATA     BYTE      IPH
      00000080H.7 SFRSYM    DATA     BIT       P07
      00000088H   SFRSYM    DATA     BYTE      TCON
      00000098H   SFRSYM    DATA     BYTE      SCON
      000000BCH   SFRSYM    DATA     BYTE      ADC_CONTR
      000000DEH   SFRSYM    DATA     BYTE      ADCCFG
      000000B8H   SFRSYM    DATA     BYTE      IP
      000000A8H   SFRSYM    DATA     BYTE      IE
L251 LINKER/LOCATER V4.66.93.0                                                        07/23/2024  16:57:56  PAGE 65


      000000F8H   SFRSYM    DATA     BYTE      P7
      000000E8H   SFRSYM    DATA     BYTE      P6
      000000C8H   SFRSYM    DATA     BYTE      P5
      000000C0H   SFRSYM    DATA     BYTE      P4
      000000B0H   SFRSYM    DATA     BYTE      P3
      000000A0H   SFRSYM    DATA     BYTE      P2
      00000090H   SFRSYM    DATA     BYTE      P1
      00000080H   SFRSYM    DATA     BYTE      P0
      0000060FH   SYMBOL    EDATA    ---       wireless_ch573_buffer
      0000064FH   SYMBOL    EDATA    BYTE      wireless_ch573_data
      00000650H   SYMBOL    EDATA    ---       wireless_ch573_fifo

      00FF6B8AH   BLOCK     CODE     ---       LVL=0
      00FF6B8AH   LINE      CODE     ---       #39
      00FF6B8AH   LINE      CODE     ---       #42
      00FF6B90H   LINE      CODE     ---       #43
      ---         BLOCKEND  ---      ---       LVL=0
      REG=3       REGSYM    ---      ---       buff
      REG=7       REGSYM    ---      ---       buff
      DR8         REGSYM    ---      DWORD     len

      ---         MODULE    ---      ---       isr
      00FF660FH   PUBLIC    CODE     ---       UART1_Isr
      00FF6B02H   PUBLIC    CODE     ---       UART2_Isr
      00FF6B20H   PUBLIC    CODE     ---       UART3_Isr
      00FF5F00H   PUBLIC    CODE     ---       UART4_Isr
      00FF49ECH   PUBLIC    CODE     ---       Get_Ratio
      00FF6D54H   PUBLIC    CODE     ---       INT0_Isr
      00FF0011H   PUBLIC    CODE     ---       INT1_Isr
      00FF6D2CH   PUBLIC    CODE     ---       INT2_Isr
      00FF6D34H   PUBLIC    CODE     ---       INT3_Isr
      00FF6D3CH   PUBLIC    CODE     ---       INT4_Isr
      00FF0012H   PUBLIC    CODE     ---       TM0_Isr
      00FF0019H   PUBLIC    CODE     ---       TM1_Isr
      00FF6D44H   PUBLIC    CODE     ---       TM2_Isr
      00FF6D4CH   PUBLIC    CODE     ---       TM3_Isr
      00FF2D9AH   PUBLIC    CODE     ---       TM4_Isr
      000004FCH   PUBLIC    EDATA    FLOAT     Act_PwmR
      00000500H   PUBLIC    EDATA    FLOAT     Ratio
      00000504H   PUBLIC    EDATA    FLOAT     sum_L
      00000508H   PUBLIC    EDATA    FLOAT     Exp_Speed
      0000050CH   PUBLIC    EDATA    CHAR      Read_Nums
      0000050DH   PUBLIC    EDATA    CHAR      Flag_Stop
      0000050EH   PUBLIC    EDATA    FLOAT     Exp_Speed_gain
      00000512H   PUBLIC    EDATA    FLOAT     sum_R
      00000516H   PUBLIC    EDATA    FLOAT     Plus_Mid
      0000051AH   PUBLIC    EDATA    FLOAT     Plus
      0000051EH   PUBLIC    EDATA    INT       CountDown
      00000520H   PUBLIC    EDATA    FLOAT     Slow
      00000524H   PUBLIC    EDATA    CHAR      count
      00000525H   PUBLIC    EDATA    FLOAT     Exp_Speed_L
      00000529H   PUBLIC    EDATA    FLOAT     Exp_Speed_R
      0000052DH   PUBLIC    EDATA    FLOAT     Sum_Dis
      00000531H   PUBLIC    EDATA    FLOAT     Angle_Edge
      00000535H   PUBLIC    EDATA    CHAR      Distance_Num
      00000536H   PUBLIC    EDATA    FLOAT     Flag_Out_L
      0000053AH   PUBLIC    EDATA    INT       Speed_Delay
      0000053CH   PUBLIC    EDATA    FLOAT     Flag_Out_R
      00000540H   PUBLIC    EDATA    CHAR      Edge_Delay
      00000541H   PUBLIC    EDATA    CHAR      Isr_Flag_10
      00000542H   PUBLIC    EDATA    INT       gx
      00000544H   PUBLIC    EDATA    INT       gy
      00000546H   PUBLIC    EDATA    INT       gz
      00000548H   PUBLIC    EDATA    FLOAT     Diff_Mid
      0000054CH   PUBLIC    EDATA    FLOAT     Diff
L251 LINKER/LOCATER V4.66.93.0                                                        07/23/2024  16:57:56  PAGE 66


      00000550H   PUBLIC    EDATA    FLOAT     Act_PwmL
      00000554H   PUBLIC    EDATA    FLOAT     Ratio_Mid
      000000D0H   SFRSYM    DATA     BYTE      PSW
      000000EFH   SFRSYM    DATA     BYTE      AUXINTIF
      000000FDH   SFRSYM    DATA     BYTE      S4CON
      000000ACH   SFRSYM    DATA     BYTE      S3CON
      0000009AH   SFRSYM    DATA     BYTE      S2CON
      000000B7H   SFRSYM    DATA     BYTE      IPH
      000000C7H   SFRSYM    DATA     BYTE      IAP_CONTR
      000000C8H.2 SFRSYM    DATA     BIT       P52
      00000088H   SFRSYM    DATA     BYTE      TCON
      00000098H   SFRSYM    DATA     BYTE      SCON
      00000099H   SFRSYM    DATA     BYTE      SBUF
      000000BCH   SFRSYM    DATA     BYTE      ADC_CONTR
      000000DEH   SFRSYM    DATA     BYTE      ADCCFG
      000000B8H   SFRSYM    DATA     BYTE      IP
      000000A8H   SFRSYM    DATA     BYTE      IE
      000000F8H   SFRSYM    DATA     BYTE      P7
      000000E8H   SFRSYM    DATA     BYTE      P6
      000000C8H   SFRSYM    DATA     BYTE      P5
      000000C0H   SFRSYM    DATA     BYTE      P4
      000000B0H   SFRSYM    DATA     BYTE      P3
      000000A0H   SFRSYM    DATA     BYTE      P2
      00000090H   SFRSYM    DATA     BYTE      P1
      00000080H   SFRSYM    DATA     BYTE      P0

      00FF2D9AH   BLOCK     CODE     ---       LVL=0
      00FF2D9AH   LINE      CODE     ---       #46
      00FF2DB0H   LINE      CODE     ---       #48
      00FF2DB3H   LINE      CODE     ---       #49
      00FF2DBCH   LINE      CODE     ---       #50
      00FF2DC6H   LINE      CODE     ---       #51
      00FF2DCCH   LINE      CODE     ---       #52
      00FF2DD2H   LINE      CODE     ---       #53
      00FF2DD5H   LINE      CODE     ---       #54
      00FF2DD8H   LINE      CODE     ---       #55
      00FF2DDBH   LINE      CODE     ---       #56
      00FF2DDEH   LINE      CODE     ---       #59
      00FF2E00H   LINE      CODE     ---       #61
      00FF2E1CH   LINE      CODE     ---       #62
      00FF2E24H   LINE      CODE     ---       #63
      00FF2E26H   LINE      CODE     ---       #66
      00FF2E6BH   LINE      CODE     ---       #67
      00FF2E6BH   LINE      CODE     ---       #70
      00FF2E96H   LINE      CODE     ---       #72
      00FF2EACH   LINE      CODE     ---       #73
      00FF2EB6H   LINE      CODE     ---       #74
      00FF2EB6H   LINE      CODE     ---       #75
      00FF2EDCH   LINE      CODE     ---       #81
      00FF2EE2H   LINE      CODE     ---       #83
      00FF2EF3H   LINE      CODE     ---       #84
      00FF2EFAH   LINE      CODE     ---       #86
      00FF2EFFH   LINE      CODE     ---       #87
      00FF2F08H   LINE      CODE     ---       #89
      00FF2F0EH   LINE      CODE     ---       #90
      00FF2F16H   LINE      CODE     ---       #91
      00FF2F1BH   LINE      CODE     ---       #92
      00FF2F1BH   LINE      CODE     ---       #93
      00FF2F41H   LINE      CODE     ---       #94
      00FF2F41H   LINE      CODE     ---       #98
      00FF2F50H   LINE      CODE     ---       #100
      00FF2F56H   LINE      CODE     ---       #101
      00FF2F5EH   LINE      CODE     ---       #102
      00FF2F62H   LINE      CODE     ---       #103
      00FF2F64H   LINE      CODE     ---       #106
L251 LINKER/LOCATER V4.66.93.0                                                        07/23/2024  16:57:56  PAGE 67


      00FF2F70H   LINE      CODE     ---       #107
      00FF2F7AH   LINE      CODE     ---       #108
      00FF2F82H   LINE      CODE     ---       #109
      00FF2F82H   LINE      CODE     ---       #110
      00FF2F99H   LINE      CODE     ---       #111
      00FF2FACH   LINE      CODE     ---       #112
      00FF2FC7H   LINE      CODE     ---       #113
      00FF2FF3H   LINE      CODE     ---       #114
      00FF3008H   LINE      CODE     ---       #115
      00FF3017H   LINE      CODE     ---       #116
      00FF3024H   LINE      CODE     ---       #118
      00FF3040H   LINE      CODE     ---       #119
      00FF305CH   LINE      CODE     ---       #120
      00FF305EH   LINE      CODE     ---       #123
      00FF308CH   LINE      CODE     ---       #124
      00FF30A6H   LINE      CODE     ---       #125
      00FF30A6H   LINE      CODE     ---       #126
      00FF30B0H   LINE      CODE     ---       #128
      00FF30C3H   LINE      CODE     ---       #129
      00FF30D6H   LINE      CODE     ---       #130
      00FF30D6H   LINE      CODE     ---       #133
      00FF30E0H   LINE      CODE     ---       #135
      00FF30E6H   LINE      CODE     ---       #136
      00FF30EBH   LINE      CODE     ---       #137
      00FF30EBH   LINE      CODE     ---       #138
      00FF3117H   LINE      CODE     ---       #139
      00FF311BH   LINE      CODE     ---       #140
      00FF313FH   LINE      CODE     ---       #141
      00FF3144H   LINE      CODE     ---       #145
      00FF315AH   LINE      CODE     ---       #147
      00FF3163H   LINE      CODE     ---       #148
      00FF3165H   LINE      CODE     ---       #149
      00FF3167H   LINE      CODE     ---       #152
      00FF3172H   LINE      CODE     ---       #153
      00FF317DH   LINE      CODE     ---       #154
      00FF317DH   LINE      CODE     ---       #157
      00FF3187H   LINE      CODE     ---       #159
      00FF3192H   LINE      CODE     ---       #160
      00FF319CH   LINE      CODE     ---       #161
      00FF319EH   LINE      CODE     ---       #163
      00FF31A7H   LINE      CODE     ---       #166
      00FF31B0H   LINE      CODE     ---       #168
      00FF31B9H   LINE      CODE     ---       #169
      00FF31BEH   LINE      CODE     ---       #170
      ---         BLOCKEND  ---      ---       LVL=0

      00FF49ECH   BLOCK     CODE     ---       LVL=0
      00000558H   SYMBOL    EDATA    FLOAT     sum_01
      0000055CH   SYMBOL    EDATA    FLOAT     sum_34
      00000560H   SYMBOL    EDATA    FLOAT     sum
      00FF49ECH   LINE      CODE     ---       #175
      00FF49ECH   LINE      CODE     ---       #176
      00FF49ECH   LINE      CODE     ---       #181
      00FF4A0CH   LINE      CODE     ---       #182
      00FF4A2EH   LINE      CODE     ---       #183
      00FF4A3DH   LINE      CODE     ---       #184
      00FF4A48H   LINE      CODE     ---       #186
      00FF4A5BH   LINE      CODE     ---       #187
      00FF4A6EH   LINE      CODE     ---       #188
      00FF4A77H   LINE      CODE     ---       #190
      00FF4A88H   LINE      CODE     ---       #192
      00FF4A97H   LINE      CODE     ---       #193
      00FF4A9DH   LINE      CODE     ---       #194
      00FF4AA1H   LINE      CODE     ---       #195
      00FF4AA6H   LINE      CODE     ---       #196
L251 LINKER/LOCATER V4.66.93.0                                                        07/23/2024  16:57:56  PAGE 68


      00FF4AA7H   LINE      CODE     ---       #199
      00FF4AB9H   LINE      CODE     ---       #200
      00FF4AC0H   LINE      CODE     ---       #201
      00FF4ADDH   LINE      CODE     ---       #203
      00FF4AE3H   LINE      CODE     ---       #204
      00FF4AF8H   LINE      CODE     ---       #207
      00FF4B02H   LINE      CODE     ---       #208
      00FF4B03H   LINE      CODE     ---       #209
      00FF4B18H   LINE      CODE     ---       #212
      00FF4B22H   LINE      CODE     ---       #213
      00FF4B22H   LINE      CODE     ---       #215
      00FF4B22H   LINE      CODE     ---       #216
      ---         BLOCKEND  ---      ---       LVL=0

      00FF660FH   BLOCK     CODE     ---       LVL=0
      00FF6613H   BLOCK     CODE     NEAR LAB  LVL=1
      R11         REGSYM    ---      BYTE      res
      00000564H   SYMBOL    EDATA    BYTE      dwon_count
      ---         BLOCKEND  ---      ---       LVL=1
      00FF660FH   LINE      CODE     ---       #238
      00FF6613H   LINE      CODE     ---       #239
      00FF6613H   LINE      CODE     ---       #242
      00FF6618H   LINE      CODE     ---       #244
      00FF661BH   LINE      CODE     ---       #245
      00FF6620H   LINE      CODE     ---       #246
      00FF6620H   LINE      CODE     ---       #247
      00FF6625H   LINE      CODE     ---       #249
      00FF6628H   LINE      CODE     ---       #250
      00FF662AH   LINE      CODE     ---       #252
      00FF662DH   LINE      CODE     ---       #254
      00FF663DH   LINE      CODE     ---       #255
      00FF6640H   LINE      CODE     ---       #256
      00FF6642H   LINE      CODE     ---       #259
      00FF6647H   LINE      CODE     ---       #260
      00FF6647H   LINE      CODE     ---       #261
      ---         BLOCKEND  ---      ---       LVL=0

      00FF6B02H   BLOCK     CODE     ---       LVL=0
      00FF6B02H   LINE      CODE     ---       #265
      00FF6B06H   LINE      CODE     ---       #267
      00FF6B0BH   LINE      CODE     ---       #269
      00FF6B0EH   LINE      CODE     ---       #270
      00FF6B13H   LINE      CODE     ---       #271
      00FF6B13H   LINE      CODE     ---       #272
      00FF6B18H   LINE      CODE     ---       #274
      00FF6B1BH   LINE      CODE     ---       #277
      ---         BLOCKEND  ---      ---       LVL=0

      00FF6B20H   BLOCK     CODE     ---       LVL=0
      00FF6B20H   LINE      CODE     ---       #282
      00FF6B24H   LINE      CODE     ---       #284
      00FF6B29H   LINE      CODE     ---       #286
      00FF6B2CH   LINE      CODE     ---       #287
      00FF6B31H   LINE      CODE     ---       #288
      00FF6B31H   LINE      CODE     ---       #289
      00FF6B36H   LINE      CODE     ---       #291
      00FF6B39H   LINE      CODE     ---       #294
      ---         BLOCKEND  ---      ---       LVL=0

      00FF5F00H   BLOCK     CODE     ---       LVL=0
      00FF5F00H   LINE      CODE     ---       #299
      00FF5F18H   LINE      CODE     ---       #301
      00FF5F1DH   LINE      CODE     ---       #303
      00FF5F20H   LINE      CODE     ---       #304
      00FF5F25H   LINE      CODE     ---       #305
L251 LINKER/LOCATER V4.66.93.0                                                        07/23/2024  16:57:56  PAGE 69


      00FF5F25H   LINE      CODE     ---       #306
      00FF5F2AH   LINE      CODE     ---       #308
      00FF5F2DH   LINE      CODE     ---       #311
      00FF5F37H   LINE      CODE     ---       #313
      00FF5F3AH   LINE      CODE     ---       #314
      00FF5F3CH   LINE      CODE     ---       #315
      00FF5F42H   LINE      CODE     ---       #317
      00FF5F45H   LINE      CODE     ---       #318
      00FF5F47H   LINE      CODE     ---       #319
      00FF5F4DH   LINE      CODE     ---       #321
      00FF5F50H   LINE      CODE     ---       #322
      00FF5F50H   LINE      CODE     ---       #324
      ---         BLOCKEND  ---      ---       LVL=0

      00FF6D54H   BLOCK     CODE     ---       LVL=0
      00FF6D54H   LINE      CODE     ---       #327
      00FF6D56H   LINE      CODE     ---       #329
      00FF6D58H   LINE      CODE     ---       #330
      ---         BLOCKEND  ---      ---       LVL=0

      00FF0011H   BLOCK     CODE     ---       LVL=0
      00FF0011H   LINE      CODE     ---       #331
      00FF0011H   LINE      CODE     ---       #334
      ---         BLOCKEND  ---      ---       LVL=0

      00FF6D2CH   BLOCK     CODE     ---       LVL=0
      00FF6D2CH   LINE      CODE     ---       #335
      00FF6D2EH   LINE      CODE     ---       #337
      00FF6D31H   LINE      CODE     ---       #338
      ---         BLOCKEND  ---      ---       LVL=0

      00FF6D34H   BLOCK     CODE     ---       LVL=0
      00FF6D34H   LINE      CODE     ---       #339
      00FF6D36H   LINE      CODE     ---       #341
      00FF6D39H   LINE      CODE     ---       #342
      ---         BLOCKEND  ---      ---       LVL=0

      00FF6D3CH   BLOCK     CODE     ---       LVL=0
      00FF6D3CH   LINE      CODE     ---       #344
      00FF6D3EH   LINE      CODE     ---       #346
      00FF6D41H   LINE      CODE     ---       #347
      ---         BLOCKEND  ---      ---       LVL=0

      00FF0012H   BLOCK     CODE     ---       LVL=0
      00FF0012H   LINE      CODE     ---       #349
      00FF0012H   LINE      CODE     ---       #352
      ---         BLOCKEND  ---      ---       LVL=0

      00FF0019H   BLOCK     CODE     ---       LVL=0
      00FF0019H   LINE      CODE     ---       #353
      00FF0019H   LINE      CODE     ---       #356
      ---         BLOCKEND  ---      ---       LVL=0

      00FF6D44H   BLOCK     CODE     ---       LVL=0
      00FF6D44H   LINE      CODE     ---       #357
      00FF6D46H   LINE      CODE     ---       #359
      00FF6D49H   LINE      CODE     ---       #361
      ---         BLOCKEND  ---      ---       LVL=0

      00FF6D4CH   BLOCK     CODE     ---       LVL=0
      00FF6D4CH   LINE      CODE     ---       #362
      00FF6D4EH   LINE      CODE     ---       #364
      00FF6D51H   LINE      CODE     ---       #366
      ---         BLOCKEND  ---      ---       LVL=0

L251 LINKER/LOCATER V4.66.93.0                                                        07/23/2024  16:57:56  PAGE 70


      ---         MODULE    ---      ---       main
      00FF43E8H   PUBLIC    CODE     ---       main
      00FF4C2AH   PUBLIC    CODE     ---       Init_all
      00FF68C4H   PUBLIC    CODE     ---       Filter_Window
      00FF5C4FH   PUBLIC    CODE     ---       Speed_Gain
      000006B4H   PUBLIC    EDATA    CHAR      KeyValue
      000006B5H   PUBLIC    EDATA    FLOAT     Dis_Process
      000006B9H   PUBLIC    EDATA    FLOAT     Adjust_Val
      000000D0H   SFRSYM    DATA     BYTE      PSW
      000000B7H   SFRSYM    DATA     BYTE      IPH
      000000E9H   SFRSYM    DATA     BYTE      WTST
      00000088H   SFRSYM    DATA     BYTE      TCON
      00000098H   SFRSYM    DATA     BYTE      SCON
      000000BCH   SFRSYM    DATA     BYTE      ADC_CONTR
      000000DEH   SFRSYM    DATA     BYTE      ADCCFG
      000000B8H   SFRSYM    DATA     BYTE      IP
      000000A8H   SFRSYM    DATA     BYTE      IE
      000000F8H   SFRSYM    DATA     BYTE      P7
      000000E8H   SFRSYM    DATA     BYTE      P6
      000000C8H   SFRSYM    DATA     BYTE      P5
      000000C0H   SFRSYM    DATA     BYTE      P4
      000000B0H   SFRSYM    DATA     BYTE      P3
      000000A0H   SFRSYM    DATA     BYTE      P2
      00000090H   SFRSYM    DATA     BYTE      P1
      00000080H   SFRSYM    DATA     BYTE      P0

      00FF68C4H   BLOCK     CODE     ---       LVL=0
      WR4         REGSYM    ---      WORD      Dis
      00FF68C6H   BLOCK     CODE     NEAR LAB  LVL=1
      000006BDH   SYMBOL    EDATA    ---       filter_buf
      WR4         REGSYM    ---      INT       i
      WR6         REGSYM    ---      WORD      filter_sum
      ---         BLOCKEND  ---      ---       LVL=1
      00FF68C4H   LINE      CODE     ---       #24
      00FF68C6H   LINE      CODE     ---       #25
      00FF68C6H   LINE      CODE     ---       #28
      00FF68C8H   LINE      CODE     ---       #29
      00FF68CCH   LINE      CODE     ---       #30
      00FF68CEH   LINE      CODE     ---       #32
      00FF68DAH   LINE      CODE     ---       #33
      00FF68E0H   LINE      CODE     ---       #34
      00FF68E8H   LINE      CODE     ---       #35
      00FF68EEH   LINE      CODE     ---       #36
      ---         BLOCKEND  ---      ---       LVL=0

      00FF43E8H   BLOCK     CODE     ---       LVL=0
      00FF43E8H   LINE      CODE     ---       #38
      00FF43E8H   LINE      CODE     ---       #40
      00FF43EBH   LINE      CODE     ---       #41
      00FF43EEH   LINE      CODE     ---       #42
      00FF43F4H   LINE      CODE     ---       #43
      00FF43F4H   LINE      CODE     ---       #46
      00FF442FH   LINE      CODE     ---       #49
      00FF4432H   LINE      CODE     ---       #50
      00FF443AH   LINE      CODE     ---       #51
      00FF4457H   LINE      CODE     ---       #52
      00FF447AH   LINE      CODE     ---       #53
      00FF4490H   LINE      CODE     ---       #54
      00FF44A8H   LINE      CODE     ---       #57
      00FF44B4H   LINE      CODE     ---       #59
      00FF44B7H   LINE      CODE     ---       #60
      00FF44CAH   LINE      CODE     ---       #61
      00FF44D1H   LINE      CODE     ---       #63
      00FF44E2H   LINE      CODE     ---       #64
      00FF44E2H   LINE      CODE     ---       #65
L251 LINKER/LOCATER V4.66.93.0                                                        07/23/2024  16:57:56  PAGE 71


      00FF44E5H   LINE      CODE     ---       #67
      00FF44ECH   LINE      CODE     ---       #78
      00FF450BH   LINE      CODE     ---       #81
      00FF4515H   LINE      CODE     ---       #82
      00FF4532H   LINE      CODE     ---       #83
      00FF4534H   LINE      CODE     ---       #84
      00FF454DH   LINE      CODE     ---       #87
      00FF4557H   LINE      CODE     ---       #88
      00FF4580H   LINE      CODE     ---       #89
      00FF4582H   LINE      CODE     ---       #91
      00FF4587H   LINE      CODE     ---       #93
      00FF458CH   LINE      CODE     ---       #94
      ---         BLOCKEND  ---      ---       LVL=0

      00FF5C4FH   BLOCK     CODE     ---       LVL=0
      WR30        REGSYM    ---      INT       i
      000006CFH   SYMBOL    EDATA    ---       Speed_Buf
      00FF5C4FH   LINE      CODE     ---       #98
      00FF5C4FH   LINE      CODE     ---       #99
      00FF5C4FH   LINE      CODE     ---       #100
      00FF5C51H   LINE      CODE     ---       #102
      00FF5C69H   LINE      CODE     ---       #103
      00FF5C69H   LINE      CODE     ---       #105
      00FF5C7FH   LINE      CODE     ---       #106
      00FF5C92H   LINE      CODE     ---       #107
      00FF5C9AH   LINE      CODE     ---       #108
      00FF5CA9H   LINE      CODE     ---       #110
      00FF5CAFH   LINE      CODE     ---       #111
      00FF5CB7H   LINE      CODE     ---       #112
      00FF5CB9H   LINE      CODE     ---       #115
      00FF5CBFH   LINE      CODE     ---       #116
      00FF5CC7H   LINE      CODE     ---       #117
      00FF5CC7H   LINE      CODE     ---       #118
      ---         BLOCKEND  ---      ---       LVL=0

      00FF4C2AH   BLOCK     CODE     ---       LVL=0
      00FF4C2AH   LINE      CODE     ---       #122
      00FF4C2AH   LINE      CODE     ---       #124
      00FF4C2DH   LINE      CODE     ---       #125
      00FF4C30H   LINE      CODE     ---       #126
      00FF4C3CH   LINE      CODE     ---       #127
      00FF4C3FH   LINE      CODE     ---       #130
      00FF4C48H   LINE      CODE     ---       #131
      00FF4C51H   LINE      CODE     ---       #134
      00FF4C54H   LINE      CODE     ---       #137
      00FF4C57H   LINE      CODE     ---       #140
      00FF4C5AH   LINE      CODE     ---       #143
      00FF4C5DH   LINE      CODE     ---       #146
      00FF4C68H   LINE      CODE     ---       #149
      00FF4C6DH   LINE      CODE     ---       #150
      00FF4C74H   LINE      CODE     ---       #153
      00FF4C77H   LINE      CODE     ---       #156
      00FF4C7AH   LINE      CODE     ---       #159
      00FF4C7DH   LINE      CODE     ---       #162
      00FF4CA8H   LINE      CODE     ---       #165
      00FF4CE7H   LINE      CODE     ---       #166
      ---         BLOCKEND  ---      ---       LVL=0

      ---         MODULE    ---      ---       motor
      00FF535BH   PUBLIC    CODE     ---       Right_SetSpeed
      00FF6408H   PUBLIC    CODE     ---       Motor_Init
      00FF5419H   PUBLIC    CODE     ---       Left_SetSpeed
      00FF68EFH   PUBLIC    CODE     ---       Limit_Out
      00FF5295H   PUBLIC    CODE     ---       Get_Speed
      00FF6C2FH   PUBLIC    CODE     ---       Num2Abs
L251 LINKER/LOCATER V4.66.93.0                                                        07/23/2024  16:57:56  PAGE 72


      0000070DH   PUBLIC    EDATA    FLOAT     Speed_L
      00000711H   PUBLIC    EDATA    FLOAT     Speed_R
      000003FAH   PUBLIC    EDATA    BYTE      ?Limit_Out?BYTE
      000000D0H   SFRSYM    DATA     BYTE      PSW
      000000B7H   SFRSYM    DATA     BYTE      IPH
      000000B0H.5 SFRSYM    DATA     BIT       P35
      000000C8H.3 SFRSYM    DATA     BIT       P53
      00000088H   SFRSYM    DATA     BYTE      TCON
      00000098H   SFRSYM    DATA     BYTE      SCON
      000000BCH   SFRSYM    DATA     BYTE      ADC_CONTR
      000000DEH   SFRSYM    DATA     BYTE      ADCCFG
      000000B8H   SFRSYM    DATA     BYTE      IP
      000000A8H   SFRSYM    DATA     BYTE      IE
      000000F8H   SFRSYM    DATA     BYTE      P7
      000000E8H   SFRSYM    DATA     BYTE      P6
      000000C8H   SFRSYM    DATA     BYTE      P5
      000000C0H   SFRSYM    DATA     BYTE      P4
      000000B0H   SFRSYM    DATA     BYTE      P3
      000000A0H   SFRSYM    DATA     BYTE      P2
      00000090H   SFRSYM    DATA     BYTE      P1
      00000080H   SFRSYM    DATA     BYTE      P0

      00FF68EFH   BLOCK     CODE     ---       LVL=0
      REG=7       REGSYM    ---      ---       Output
      DR24        REGSYM    ---      FLOAT     Limit_Min
      00000402H   SYMBOL    EDATA    FLOAT     Limit_Max
      00FF68EFH   LINE      CODE     ---       #14
      00FF68F3H   LINE      CODE     ---       #16
      00FF6905H   LINE      CODE     ---       #17
      00FF6919H   LINE      CODE     ---       #18
      ---         BLOCKEND  ---      ---       LVL=0

      00FF6C2FH   BLOCK     CODE     ---       LVL=0
      DR28        REGSYM    ---      FLOAT     x
      00FF6C2FH   LINE      CODE     ---       #21
      00FF6C31H   LINE      CODE     ---       #23
      00FF6C38H   LINE      CODE     ---       #24
      00FF6C3DH   LINE      CODE     ---       #25
      00FF6C3FH   LINE      CODE     ---       #26
      ---         BLOCKEND  ---      ---       LVL=0

      00FF6408H   BLOCK     CODE     ---       LVL=0
      00FF6408H   LINE      CODE     ---       #28
      00FF6408H   LINE      CODE     ---       #30
      00FF6419H   LINE      CODE     ---       #31
      00FF642AH   LINE      CODE     ---       #33
      00FF643BH   LINE      CODE     ---       #34
      ---         BLOCKEND  ---      ---       LVL=0

      00FF5419H   BLOCK     CODE     ---       LVL=0
      DR12        REGSYM    ---      FLOAT     speed
      00FF541DH   BLOCK     CODE     NEAR LAB  LVL=1
      00000715H   SYMBOL    EDATA    INT       Special_NumL
      ---         BLOCKEND  ---      ---       LVL=1
      00FF5419H   LINE      CODE     ---       #37
      00FF541DH   LINE      CODE     ---       #38
      00FF541DH   LINE      CODE     ---       #40
      00FF542FH   LINE      CODE     ---       #41
      00FF5437H   LINE      CODE     ---       #43
      00FF543DH   LINE      CODE     ---       #44
      00FF5443H   LINE      CODE     ---       #46
      00FF544CH   LINE      CODE     ---       #47
      00FF5455H   LINE      CODE     ---       #48
      00FF5459H   LINE      CODE     ---       #49
      00FF5459H   LINE      CODE     ---       #52
L251 LINKER/LOCATER V4.66.93.0                                                        07/23/2024  16:57:56  PAGE 73


      00FF546EH   LINE      CODE     ---       #53
      00FF5481H   LINE      CODE     ---       #54
      00FF548AH   LINE      CODE     ---       #56
      00FF54A0H   LINE      CODE     ---       #57
      00FF54A6H   LINE      CODE     ---       #58
      00FF54A8H   LINE      CODE     ---       #59
      00FF54B1H   LINE      CODE     ---       #61
      00FF54BAH   LINE      CODE     ---       #62
      00FF54D2H   LINE      CODE     ---       #63
      00FF54D2H   LINE      CODE     ---       #64
      00FF54D4H   LINE      CODE     ---       #65
      00FF54D4H   LINE      CODE     ---       #66
      ---         BLOCKEND  ---      ---       LVL=0

      00FF535BH   BLOCK     CODE     ---       LVL=0
      DR12        REGSYM    ---      FLOAT     speed
      00FF535FH   BLOCK     CODE     NEAR LAB  LVL=1
      00000717H   SYMBOL    EDATA    INT       Special_NumR
      ---         BLOCKEND  ---      ---       LVL=1
      00FF535BH   LINE      CODE     ---       #68
      00FF535FH   LINE      CODE     ---       #69
      00FF535FH   LINE      CODE     ---       #71
      00FF5371H   LINE      CODE     ---       #72
      00FF5379H   LINE      CODE     ---       #74
      00FF537FH   LINE      CODE     ---       #75
      00FF5385H   LINE      CODE     ---       #77
      00FF538EH   LINE      CODE     ---       #78
      00FF5397H   LINE      CODE     ---       #79
      00FF539BH   LINE      CODE     ---       #80
      00FF539BH   LINE      CODE     ---       #83
      00FF53B0H   LINE      CODE     ---       #84
      00FF53C3H   LINE      CODE     ---       #85
      00FF53CCH   LINE      CODE     ---       #87
      00FF53E2H   LINE      CODE     ---       #88
      00FF53E8H   LINE      CODE     ---       #89
      00FF53EAH   LINE      CODE     ---       #90
      00FF53F3H   LINE      CODE     ---       #92
      00FF53FCH   LINE      CODE     ---       #93
      00FF5414H   LINE      CODE     ---       #94
      00FF5414H   LINE      CODE     ---       #95
      00FF5416H   LINE      CODE     ---       #96
      00FF5416H   LINE      CODE     ---       #97
      ---         BLOCKEND  ---      ---       LVL=0

      00FF5295H   BLOCK     CODE     ---       LVL=0
      00000719H   SYMBOL    EDATA    FLOAT     Speed_L_Last
      0000071DH   SYMBOL    EDATA    FLOAT     Speed_R_Last
      00FF5295H   LINE      CODE     ---       #99
      00FF5295H   LINE      CODE     ---       #100
      00FF5295H   LINE      CODE     ---       #103
      00FF52AAH   LINE      CODE     ---       #104
      00FF52C6H   LINE      CODE     ---       #105
      00FF52CDH   LINE      CODE     ---       #108
      00FF52E1H   LINE      CODE     ---       #109
      00FF52FBH   LINE      CODE     ---       #110
      00FF5300H   LINE      CODE     ---       #112
      00FF532DH   LINE      CODE     ---       #113
      00FF534AH   LINE      CODE     ---       #114
      00FF5352H   LINE      CODE     ---       #115
      00FF535AH   LINE      CODE     ---       #117
      ---         BLOCKEND  ---      ---       LVL=0
      DR12        REGSYM    ---      FLOAT     Speed

      ---         MODULE    ---      ---       ADC
      00FF48A1H   PUBLIC    CODE     ---       ADC_GetValue
L251 LINKER/LOCATER V4.66.93.0                                                        07/23/2024  16:57:56  PAGE 74


      00FF691AH   PUBLIC    CODE     ---       ADC_InitAll
      00000664H   PUBLIC    EDATA    ---       ADC_Array_Original
      000006A0H   PUBLIC    EDATA    ---       ADC_proc
      000000D0H   SFRSYM    DATA     BYTE      PSW
      000000B7H   SFRSYM    DATA     BYTE      IPH
      00000088H   SFRSYM    DATA     BYTE      TCON
      00000098H   SFRSYM    DATA     BYTE      SCON
      000000BCH   SFRSYM    DATA     BYTE      ADC_CONTR
      000000DEH   SFRSYM    DATA     BYTE      ADCCFG
      000000B8H   SFRSYM    DATA     BYTE      IP
      000000A8H   SFRSYM    DATA     BYTE      IE
      000000F8H   SFRSYM    DATA     BYTE      P7
      000000E8H   SFRSYM    DATA     BYTE      P6
      000000C8H   SFRSYM    DATA     BYTE      P5
      000000C0H   SFRSYM    DATA     BYTE      P4
      000000B0H   SFRSYM    DATA     BYTE      P3
      000000A0H   SFRSYM    DATA     BYTE      P2
      00000090H   SFRSYM    DATA     BYTE      P1
      00000080H   SFRSYM    DATA     BYTE      P0

      00FF691AH   BLOCK     CODE     ---       LVL=0
      00FF691AH   LINE      CODE     ---       #11
      00FF691AH   LINE      CODE     ---       #13
      00FF6921H   LINE      CODE     ---       #14
      00FF692AH   LINE      CODE     ---       #16
      00FF6933H   LINE      CODE     ---       #18
      00FF693CH   LINE      CODE     ---       #19
      ---         BLOCKEND  ---      ---       LVL=0

      00FF48A1H   BLOCK     CODE     ---       LVL=0
      00FF48A3H   BLOCK     CODE     NEAR LAB  LVL=1
      DR28        REGSYM    ---      FLOAT     temp
      R15         REGSYM    ---      CHAR      i
      R14         REGSYM    ---      CHAR      j
      ---         BLOCKEND  ---      ---       LVL=1
      00FF48A1H   LINE      CODE     ---       #23
      00FF48A3H   LINE      CODE     ---       #24
      00FF48A3H   LINE      CODE     ---       #27
      00FF48A5H   LINE      CODE     ---       #29
      00FF48C2H   LINE      CODE     ---       #30
      00FF48E1H   LINE      CODE     ---       #32
      00FF4900H   LINE      CODE     ---       #34
      00FF491FH   LINE      CODE     ---       #35
      00FF493EH   LINE      CODE     ---       #36
      00FF4948H   LINE      CODE     ---       #38
      00FF494AH   LINE      CODE     ---       #40
      00FF494CH   LINE      CODE     ---       #41
      00FF494EH   LINE      CODE     ---       #43
      00FF496DH   LINE      CODE     ---       #44
      00FF4974H   LINE      CODE     ---       #45
      00FF498DH   LINE      CODE     ---       #47
      00FF49A6H   LINE      CODE     ---       #48
      00FF49BDH   LINE      CODE     ---       #50
      00FF49DFH   LINE      CODE     ---       #52
      00FF49E9H   LINE      CODE     ---       #53
      ---         BLOCKEND  ---      ---       LVL=0

      ---         MODULE    ---      ---       PID
      00FF458FH   PUBLIC    CODE     ---       PID_Incremental_Calc
      00FF593EH   PUBLIC    CODE     ---       PID_Incremental_Init
      00FF558FH   PUBLIC    CODE     ---       PID_Calculate
      00FF5F69H   PUBLIC    CODE     ---       PID_Init
      0000023EH   PUBLIC    EDATA    ---       Turn
      0000027BH   PUBLIC    EDATA    ---       Right_Wheel
      000002B8H   PUBLIC    EDATA    ---       Left_Wheel
L251 LINKER/LOCATER V4.66.93.0                                                        07/23/2024  16:57:56  PAGE 75


      000002F5H   PUBLIC    EDATA    ---       Turn_PID
      000003FEH   PUBLIC    EDATA    BYTE      ?PID_Init?BYTE
      000003F2H   PUBLIC    EDATA    BYTE      ?PID_Calculate?BYTE
      000003FEH   PUBLIC    EDATA    BYTE      ?PID_Incremental_Init?BYTE
      000003F2H   PUBLIC    EDATA    BYTE      ?PID_Incremental_Calc?BYTE
      000000D0H   SFRSYM    DATA     BYTE      PSW
      000000B7H   SFRSYM    DATA     BYTE      IPH
      00000088H   SFRSYM    DATA     BYTE      TCON
      00000098H   SFRSYM    DATA     BYTE      SCON
      000000BCH   SFRSYM    DATA     BYTE      ADC_CONTR
      000000DEH   SFRSYM    DATA     BYTE      ADCCFG
      000000B8H   SFRSYM    DATA     BYTE      IP
      000000A8H   SFRSYM    DATA     BYTE      IE
      000000F8H   SFRSYM    DATA     BYTE      P7
      000000E8H   SFRSYM    DATA     BYTE      P6
      000000C8H   SFRSYM    DATA     BYTE      P5
      000000C0H   SFRSYM    DATA     BYTE      P4
      000000B0H   SFRSYM    DATA     BYTE      P3
      000000A0H   SFRSYM    DATA     BYTE      P2
      00000090H   SFRSYM    DATA     BYTE      P1
      00000080H   SFRSYM    DATA     BYTE      P0

      00FF5F69H   BLOCK     CODE     ---       LVL=0
      REG=2       REGSYM    ---      ---       PID_Struct
      DR4         REGSYM    ---      FLOAT     Kpa
      00000406H   SYMBOL    EDATA    FLOAT     Kpb
      0000040AH   SYMBOL    EDATA    FLOAT     Ki
      0000040EH   SYMBOL    EDATA    FLOAT     Kd
      00000412H   SYMBOL    EDATA    FLOAT     Out_Limit
      00000416H   SYMBOL    EDATA    FLOAT     Integral_Limit
      00FF5F69H   LINE      CODE     ---       #18
      00FF5F6BH   LINE      CODE     ---       #20
      00FF5F73H   LINE      CODE     ---       #21
      00FF5F7FH   LINE      CODE     ---       #22
      00FF5F8BH   LINE      CODE     ---       #23
      00FF5F97H   LINE      CODE     ---       #25
      00FF5FA0H   LINE      CODE     ---       #26
      00FF5FA8H   LINE      CODE     ---       #28
      00FF5FB0H   LINE      CODE     ---       #29
      00FF5FBCH   LINE      CODE     ---       #30
      00FF5FC8H   LINE      CODE     ---       #31
      ---         BLOCKEND  ---      ---       LVL=0

      00FF558FH   BLOCK     CODE     ---       LVL=0
      REG=6       REGSYM    ---      ---       PID_Struct
      DR28        REGSYM    ---      FLOAT     Exp_Val
      000003FAH   SYMBOL    EDATA    FLOAT     Act_Val
      00FF558FH   LINE      CODE     ---       #34
      00FF5591H   LINE      CODE     ---       #36
      00FF559FH   LINE      CODE     ---       #38
      00FF55F8H   LINE      CODE     ---       #42
      00FF5607H   LINE      CODE     ---       #45
      00FF5620H   LINE      CODE     ---       #46
      00FF5622H   LINE      CODE     ---       #47
      00FF5630H   LINE      CODE     ---       #48
      00FF5638H   LINE      CODE     ---       #49
      ---         BLOCKEND  ---      ---       LVL=0

      00FF593EH   BLOCK     CODE     ---       LVL=0
      REG=2       REGSYM    ---      ---       pid
      DR4         REGSYM    ---      FLOAT     Kp
      00000406H   SYMBOL    EDATA    FLOAT     Ki
      0000040AH   SYMBOL    EDATA    FLOAT     Kd
      0000040EH   SYMBOL    EDATA    FLOAT     Out_Limit
      00000412H   SYMBOL    EDATA    FLOAT     Integral_Limit
L251 LINKER/LOCATER V4.66.93.0                                                        07/23/2024  16:57:56  PAGE 76


      R15         REGSYM    ---      BYTE      use_lowpass_filter
      00FF593EH   LINE      CODE     ---       #61
      00FF5944H   LINE      CODE     ---       #63
      00FF594BH   LINE      CODE     ---       #64
      00FF5957H   LINE      CODE     ---       #65
      00FF5963H   LINE      CODE     ---       #67
      00FF596DH   LINE      CODE     ---       #68
      00FF5975H   LINE      CODE     ---       #69
      00FF597DH   LINE      CODE     ---       #70
      00FF5985H   LINE      CODE     ---       #72
      00FF598DH   LINE      CODE     ---       #73
      00FF5999H   LINE      CODE     ---       #74
      00FF59A8H   LINE      CODE     ---       #75
      00FF59B4H   LINE      CODE     ---       #76
      00FF59B8H   LINE      CODE     ---       #77
      00FF59C8H   LINE      CODE     ---       #78
      ---         BLOCKEND  ---      ---       LVL=0

      00FF458FH   BLOCK     CODE     ---       LVL=0
      REG=3       REGSYM    ---      ---       pid
      DR28        REGSYM    ---      FLOAT     setpoint
      000003FAH   SYMBOL    EDATA    FLOAT     input_value
      00FF4595H   BLOCK     CODE     NEAR LAB  LVL=1
      000003FEH   SYMBOL    EDATA    FLOAT     derivative
      ---         BLOCKEND  ---      ---       LVL=1
      00FF458FH   LINE      CODE     ---       #81
      00FF4595H   LINE      CODE     ---       #82
      00FF4595H   LINE      CODE     ---       #84
      00FF45A5H   LINE      CODE     ---       #85
      00FF45B5H   LINE      CODE     ---       #86
      00FF45C6H   LINE      CODE     ---       #87
      00FF45F7H   LINE      CODE     ---       #89
      00FF461FH   LINE      CODE     ---       #91
      00FF4649H   LINE      CODE     ---       #92
      00FF4661H   LINE      CODE     ---       #94
      00FF4687H   LINE      CODE     ---       #96
      00FF46ADH   LINE      CODE     ---       #99
      00FF46B3H   LINE      CODE     ---       #101
      00FF46EDH   LINE      CODE     ---       #102
      00FF46EDH   LINE      CODE     ---       #105
      00FF470AH   LINE      CODE     ---       #107
      00FF471AH   LINE      CODE     ---       #109
      00FF4722H   LINE      CODE     ---       #110
      ---         BLOCKEND  ---      ---       LVL=0

      ---         MODULE    ---      ---       MPU6050
      00FF6C0BH   PUBLIC    CODE     ---       i2c_nack
      00FF6D10H   PUBLIC    CODE     ---       Delay1ms
      00FF5AD7H   PUBLIC    CODE     ---       loadfirmware
      00FF6BBAH   PUBLIC    CODE     ---       i2c_ack
      00FF6C1DH   PUBLIC    CODE     ---       i2c_start
      00FF5E95H   PUBLIC    CODE     ---       i2c_read_bits
      00FF66FCH   PUBLIC    CODE     ---       i2c_read_byte
      00FF59CBH   PUBLIC    CODE     ---       xdmpUpdates
      00FF60E2H   PUBLIC    CODE     ---       MPU_Get_Gyroscope
      00FF67CFH   PUBLIC    CODE     ---       i2c_read_bit
      00FF5BD5H   PUBLIC    CODE     ---       i2c_mem_read
      00FF5639H   PUBLIC    CODE     ---       loadcfgupd
      00FF001EH   PUBLIC    CODE     ---       I2C_SDA_H
      00FF5B58H   PUBLIC    CODE     ---       i2c_write_bits
      00FF6AC2H   PUBLIC    CODE     ---       getDeviceID
      00FF0056H   PUBLIC    CODE     ---       I2C_SDA_L
      00FF6802H   PUBLIC    CODE     ---       i2c_write_byte
      00FF6945H   PUBLIC    CODE     ---       i2c_wait_ack
      00FF6C82H   PUBLIC    CODE     ---       i2c_stop
L251 LINKER/LOCATER V4.66.93.0                                                        07/23/2024  16:57:56  PAGE 77


      00FF005EH   PUBLIC    CODE     ---       I2C_SCL_H
      00FF0086H   PUBLIC    CODE     ---       I2C_SCL_L
      00FF6086H   PUBLIC    CODE     ---       i2c_write_bit
      00FF5FC9H   PUBLIC    CODE     ---       i2c_mem_write
      00FF3B51H   PUBLIC    CODE     ---       MPU6050_Refresh_DMP
      00FF0046H   PUBLIC    CODE     ---       MPU_Read_Bits
      00FF6D1AH   PUBLIC    CODE     ---       MPU_Read_Bit
      00FF6CE4H   PUBLIC    CODE     ---       MPU_Read_Len
      00FF0006H   PUBLIC    CODE     ---       I2C_SDA_Read
      00FF6CBDH   PUBLIC    CODE     ---       MPU_Write_Bits
      00FF6BCFH   PUBLIC    CODE     ---       MPU_Write_Byte
      00FF3DEBH   PUBLIC    CODE     ---       dmpInitialize
      00FF6CEFH   PUBLIC    CODE     ---       i2c_timeout_delay
      00FF6C91H   PUBLIC    CODE     ---       readdmp
      00FF6CCAH   PUBLIC    CODE     ---       MPU_Write_Bit
      00FF6CFAH   PUBLIC    CODE     ---       MPU_Write_Len
      00FF6BE4H   PUBLIC    CODE     ---       MPU_Delay_Ms
      00FF6D05H   PUBLIC    CODE     ---       i2c_delay
      00FF0026H   PUBLIC    CODE     ---       getFIFOCount
      00FF6835H   PUBLIC    CODE     ---       initMPU6050
      00FF6A7DH   PUBLIC    CODE     ---       MPU6050_DMP_Init
      00000491H   PUBLIC    EDATA    FLOAT     z_add
      00000495H   PUBLIC    EDATA    FLOAT     z_last
      00000499H   PUBLIC    EDATA    FLOAT     Roll
      0000049DH   PUBLIC    EDATA    FLOAT     x1
      000004A1H   PUBLIC    EDATA    FLOAT     y1
      000004A5H   PUBLIC    EDATA    FLOAT     z1
      000004A9H   PUBLIC    EDATA    FLOAT     z_now
      000004ADH   PUBLIC    EDATA    FLOAT     Yaw
      000004B1H   PUBLIC    EDATA    ---       Q
      000004C1H   PUBLIC    EDATA    ---       dmpdatas
      000004EBH   PUBLIC    EDATA    CHAR      mpu_state
      000004ECH   PUBLIC    EDATA    FLOAT     Pitch
      00FF1A26H   PUBLIC    CODE     ---       dmpUpdates
      00FF1A55H   PUBLIC    CODE     ---       dmpcfgupddata
      00FF1B15H   PUBLIC    CODE     ---       dmpmemorydata
      00000402H   PUBLIC    EDATA    BYTE      ?MPU_Get_Gyroscope?BYTE
      000000D0H   SFRSYM    DATA     BYTE      PSW
      000000B7H   SFRSYM    DATA     BYTE      IPH
      000000C8H.1 SFRSYM    DATA     BIT       P51
      00000088H   SFRSYM    DATA     BYTE      TCON
      000000C8H.0 SFRSYM    DATA     BIT       P50
      00000098H   SFRSYM    DATA     BYTE      SCON
      000000BCH   SFRSYM    DATA     BYTE      ADC_CONTR
      000000DEH   SFRSYM    DATA     BYTE      ADCCFG
      000000B8H   SFRSYM    DATA     BYTE      IP
      000000A8H   SFRSYM    DATA     BYTE      IE
      000000F8H   SFRSYM    DATA     BYTE      P7
      000000E8H   SFRSYM    DATA     BYTE      P6
      000000C8H   SFRSYM    DATA     BYTE      P5
      000000C0H   SFRSYM    DATA     BYTE      P4
      000000B0H   SFRSYM    DATA     BYTE      P3
      000000A0H   SFRSYM    DATA     BYTE      P2
      00000090H   SFRSYM    DATA     BYTE      P1
      00000080H   SFRSYM    DATA     BYTE      P0

      00FF6CEFH   BLOCK     CODE     ---       LVL=0
      R10         REGSYM    ---      CHAR      i
      00FF6CEFH   LINE      CODE     ---       #10
      00FF6CEFH   LINE      CODE     ---       #11
      00FF6CEFH   LINE      CODE     ---       #13
      00FF6CF2H   LINE      CODE     ---       #14
      00FF6CF9H   LINE      CODE     ---       #15
      ---         BLOCKEND  ---      ---       LVL=0

L251 LINKER/LOCATER V4.66.93.0                                                        07/23/2024  16:57:56  PAGE 78


      00FF6D05H   BLOCK     CODE     ---       LVL=0
      R10         REGSYM    ---      CHAR      i
      00FF6D05H   LINE      CODE     ---       #17
      00FF6D05H   LINE      CODE     ---       #18
      00FF6D05H   LINE      CODE     ---       #20
      00FF6D08H   LINE      CODE     ---       #21
      00FF6D0FH   LINE      CODE     ---       #22
      ---         BLOCKEND  ---      ---       LVL=0

      00FF005EH   BLOCK     CODE     ---       LVL=0
      00FF005EH   LINE      CODE     ---       #25
      00FF005EH   LINE      CODE     ---       #27
      00FF0060H   LINE      CODE     ---       #28
      ---         BLOCKEND  ---      ---       LVL=0

      00FF0086H   BLOCK     CODE     ---       LVL=0
      00FF0086H   LINE      CODE     ---       #31
      00FF0086H   LINE      CODE     ---       #33
      00FF0088H   LINE      CODE     ---       #34
      ---         BLOCKEND  ---      ---       LVL=0

      00FF001EH   BLOCK     CODE     ---       LVL=0
      00FF001EH   LINE      CODE     ---       #37
      00FF001EH   LINE      CODE     ---       #39
      00FF0020H   LINE      CODE     ---       #40
      ---         BLOCKEND  ---      ---       LVL=0

      00FF0056H   BLOCK     CODE     ---       LVL=0
      00FF0056H   LINE      CODE     ---       #43
      00FF0056H   LINE      CODE     ---       #45
      00FF0058H   LINE      CODE     ---       #46
      ---         BLOCKEND  ---      ---       LVL=0

      00FF0006H   BLOCK     CODE     ---       LVL=0
      00FF0006H   LINE      CODE     ---       #49
      00FF0006H   LINE      CODE     ---       #51
      00FF000AH   LINE      CODE     ---       #52
      ---         BLOCKEND  ---      ---       LVL=0

      00FF6C1DH   BLOCK     CODE     ---       LVL=0
      00FF6C1DH   LINE      CODE     ---       #60
      00FF6C1DH   LINE      CODE     ---       #62
      00FF6C20H   LINE      CODE     ---       #63
      00FF6C23H   LINE      CODE     ---       #64
      00FF6C26H   LINE      CODE     ---       #66
      00FF6C29H   LINE      CODE     ---       #67
      00FF6C2CH   LINE      CODE     ---       #68
      ---         BLOCKEND  ---      ---       LVL=0

      00FF6C82H   BLOCK     CODE     ---       LVL=0
      00FF6C82H   LINE      CODE     ---       #77
      00FF6C82H   LINE      CODE     ---       #79
      00FF6C85H   LINE      CODE     ---       #80
      00FF6C88H   LINE      CODE     ---       #81
      00FF6C8BH   LINE      CODE     ---       #83
      00FF6C8EH   LINE      CODE     ---       #84
      ---         BLOCKEND  ---      ---       LVL=0

      00FF6BBAH   BLOCK     CODE     ---       LVL=0
      00FF6BBAH   LINE      CODE     ---       #93
      00FF6BBAH   LINE      CODE     ---       #95
      00FF6BBDH   LINE      CODE     ---       #96
      00FF6BC0H   LINE      CODE     ---       #97
      00FF6BC3H   LINE      CODE     ---       #99
      00FF6BC6H   LINE      CODE     ---       #100
L251 LINKER/LOCATER V4.66.93.0                                                        07/23/2024  16:57:56  PAGE 79


      00FF6BC9H   LINE      CODE     ---       #101
      00FF6BCCH   LINE      CODE     ---       #102
      ---         BLOCKEND  ---      ---       LVL=0

      00FF6C0BH   BLOCK     CODE     ---       LVL=0
      00FF6C0BH   LINE      CODE     ---       #111
      00FF6C0BH   LINE      CODE     ---       #113
      00FF6C0EH   LINE      CODE     ---       #114
      00FF6C11H   LINE      CODE     ---       #115
      00FF6C14H   LINE      CODE     ---       #117
      00FF6C17H   LINE      CODE     ---       #118
      00FF6C1AH   LINE      CODE     ---       #119
      ---         BLOCKEND  ---      ---       LVL=0

      00FF6945H   BLOCK     CODE     ---       LVL=0
      00FF6947H   BLOCK     CODE     NEAR LAB  LVL=1
      WR14        REGSYM    ---      WORD      time_temp
      ---         BLOCKEND  ---      ---       LVL=1
      00FF6945H   LINE      CODE     ---       #129
      00FF6947H   LINE      CODE     ---       #130
      00FF6947H   LINE      CODE     ---       #131
      00FF6949H   LINE      CODE     ---       #133
      00FF694CH   LINE      CODE     ---       #134
      00FF694FH   LINE      CODE     ---       #135
      00FF6951H   LINE      CODE     ---       #137
      00FF6953H   LINE      CODE     ---       #138
      00FF6956H   LINE      CODE     ---       #139
      00FF695CH   LINE      CODE     ---       #141
      00FF695FH   LINE      CODE     ---       #142
      00FF6963H   LINE      CODE     ---       #143
      00FF6968H   LINE      CODE     ---       #145
      00FF696BH   LINE      CODE     ---       #146
      00FF696CH   LINE      CODE     ---       #147
      ---         BLOCKEND  ---      ---       LVL=0

      00FF6802H   BLOCK     CODE     ---       LVL=0
      R15         REGSYM    ---      BYTE      dat
      00FF6806H   BLOCK     CODE     NEAR LAB  LVL=1
      R14         REGSYM    ---      BYTE      i
      ---         BLOCKEND  ---      ---       LVL=1
      00FF6802H   LINE      CODE     ---       #155
      00FF6806H   LINE      CODE     ---       #156
      00FF6806H   LINE      CODE     ---       #157
      00FF6806H   LINE      CODE     ---       #159
      00FF6809H   LINE      CODE     ---       #160
      00FF680CH   LINE      CODE     ---       #162
      00FF6815H   LINE      CODE     ---       #163
      00FF681AH   LINE      CODE     ---       #165
      00FF681DH   LINE      CODE     ---       #166
      00FF681FH   LINE      CODE     ---       #167
      00FF6822H   LINE      CODE     ---       #168
      00FF6825H   LINE      CODE     ---       #169
      00FF6828H   LINE      CODE     ---       #170
      00FF682BH   LINE      CODE     ---       #171
      00FF682EH   LINE      CODE     ---       #172
      00FF6832H   LINE      CODE     ---       #173
      ---         BLOCKEND  ---      ---       LVL=0

      00FF66FCH   BLOCK     CODE     ---       LVL=0
      R15         REGSYM    ---      BYTE      ack
      00FF6702H   BLOCK     CODE     NEAR LAB  LVL=1
      R13         REGSYM    ---      BYTE      i
      R14         REGSYM    ---      BYTE      receive
      ---         BLOCKEND  ---      ---       LVL=1
      00FF66FCH   LINE      CODE     ---       #181
L251 LINKER/LOCATER V4.66.93.0                                                        07/23/2024  16:57:56  PAGE 80


      00FF6702H   LINE      CODE     ---       #182
      00FF6702H   LINE      CODE     ---       #183
      00FF6704H   LINE      CODE     ---       #185
      00FF6707H   LINE      CODE     ---       #187
      00FF670AH   LINE      CODE     ---       #188
      00FF670DH   LINE      CODE     ---       #189
      00FF6710H   LINE      CODE     ---       #190
      00FF6712H   LINE      CODE     ---       #191
      00FF6717H   LINE      CODE     ---       #192
      00FF6719H   LINE      CODE     ---       #193
      00FF671CH   LINE      CODE     ---       #194
      00FF6720H   LINE      CODE     ---       #195
      00FF6724H   LINE      CODE     ---       #196
      00FF6729H   LINE      CODE     ---       #198
      00FF672CH   LINE      CODE     ---       #200
      00FF672EH   LINE      CODE     ---       #201
      ---         BLOCKEND  ---      ---       LVL=0

      00FF5FC9H   BLOCK     CODE     ---       LVL=0
      0000040FH   SYMBOL    EDATA    BYTE      DevAddress
      00000410H   SYMBOL    EDATA    BYTE      MemAddress
      REG=3       REGSYM    ---      ---       pData
      00000411H   SYMBOL    EDATA    WORD      Len
      00FF5FC9H   LINE      CODE     ---       #209
      00FF5FD9H   LINE      CODE     ---       #211
      00FF5FDCH   LINE      CODE     ---       #212
      00FF5FE5H   LINE      CODE     ---       #213
      00FF5FEAH   LINE      CODE     ---       #214
      00FF5FEEH   LINE      CODE     ---       #215
      00FF5FF5H   LINE      CODE     ---       #216
      00FF5FFAH   LINE      CODE     ---       #217
      00FF5FFEH   LINE      CODE     ---       #218
      00FF6000H   LINE      CODE     ---       #220
      00FF6008H   LINE      CODE     ---       #221
      00FF600DH   LINE      CODE     ---       #222
      00FF6011H   LINE      CODE     ---       #223
      00FF6021H   LINE      CODE     ---       #224
      00FF6024H   LINE      CODE     ---       #225
      00FF6025H   LINE      CODE     ---       #226
      ---         BLOCKEND  ---      ---       LVL=0

      00FF5BD5H   BLOCK     CODE     ---       LVL=0
      00000414H   SYMBOL    EDATA    BYTE      DevAddress
      00000415H   SYMBOL    EDATA    BYTE      MemAddress
      REG=3       REGSYM    ---      ---       pBuffer
      00000416H   SYMBOL    EDATA    WORD      Len
      00FF5BD5H   LINE      CODE     ---       #234
      00FF5BE5H   LINE      CODE     ---       #236
      00FF5BE8H   LINE      CODE     ---       #237
      00FF5BF1H   LINE      CODE     ---       #238
      00FF5BF6H   LINE      CODE     ---       #239
      00FF5BFAH   LINE      CODE     ---       #240
      00FF5C01H   LINE      CODE     ---       #241
      00FF5C06H   LINE      CODE     ---       #242
      00FF5C0AH   LINE      CODE     ---       #243
      00FF5C0DH   LINE      CODE     ---       #244
      00FF5C18H   LINE      CODE     ---       #245
      00FF5C1DH   LINE      CODE     ---       #246
      00FF5C21H   LINE      CODE     ---       #247
      00FF5C23H   LINE      CODE     ---       #249
      00FF5C38H   LINE      CODE     ---       #250
      00FF5C48H   LINE      CODE     ---       #251
      00FF5C4BH   LINE      CODE     ---       #252
      00FF5C4CH   LINE      CODE     ---       #253
      ---         BLOCKEND  ---      ---       LVL=0
L251 LINKER/LOCATER V4.66.93.0                                                        07/23/2024  16:57:56  PAGE 81



      00FF6086H   BLOCK     CODE     ---       LVL=0
      R13         REGSYM    ---      BYTE      DevAddress
      R14         REGSYM    ---      BYTE      addr
      R15         REGSYM    ---      BYTE      bitNum
      R12         REGSYM    ---      BYTE      Data
      00FF6090H   BLOCK     CODE     NEAR LAB  LVL=1
      0000040CH   SYMBOL    EDATA    BYTE      b
      ---         BLOCKEND  ---      ---       LVL=1
      00FF6086H   LINE      CODE     ---       #262
      00FF6090H   LINE      CODE     ---       #263
      00FF6090H   LINE      CODE     ---       #265
      00FF609DH   LINE      CODE     ---       #267
      00FF60CCH   LINE      CODE     ---       #268
      00FF60DDH   LINE      CODE     ---       #269
      00FF60DDH   LINE      CODE     ---       #271
      00FF60DFH   LINE      CODE     ---       #272
      ---         BLOCKEND  ---      ---       LVL=0

      00FF5B58H   BLOCK     CODE     ---       LVL=0
      0000040CH   SYMBOL    EDATA    BYTE      DevAddress
      R12         REGSYM    ---      BYTE      addr
      R13         REGSYM    ---      BYTE      bitStart
      R14         REGSYM    ---      BYTE      length
      R15         REGSYM    ---      BYTE      Data
      00FF5B66H   BLOCK     CODE     NEAR LAB  LVL=1
      000004F0H   SYMBOL    EDATA    BYTE      b
      000004F1H   SYMBOL    EDATA    BYTE      mask
      ---         BLOCKEND  ---      ---       LVL=1
      00FF5B58H   LINE      CODE     ---       #282
      00FF5B66H   LINE      CODE     ---       #283
      00FF5B66H   LINE      CODE     ---       #292
      00FF5B73H   LINE      CODE     ---       #294
      00FF5B99H   LINE      CODE     ---       #295
      00FF5BA2H   LINE      CODE     ---       #296
      00FF5BA4H   LINE      CODE     ---       #297
      00FF5BB3H   LINE      CODE     ---       #298
      00FF5BBDH   LINE      CODE     ---       #300
      00FF5BD0H   LINE      CODE     ---       #301
      00FF5BD0H   LINE      CODE     ---       #303
      00FF5BD2H   LINE      CODE     ---       #304
      ---         BLOCKEND  ---      ---       LVL=0

      00FF67CFH   BLOCK     CODE     ---       LVL=0
      R11         REGSYM    ---      BYTE      DevAddress
      R10         REGSYM    ---      BYTE      addr
      0000040CH   SYMBOL    EDATA    BYTE      bitNum
      REG=3       REGSYM    ---      ---       Data
      00FF67D7H   BLOCK     CODE     NEAR LAB  LVL=1
      0000040DH   SYMBOL    EDATA    BYTE      b
      ---         BLOCKEND  ---      ---       LVL=1
      00FF67CFH   LINE      CODE     ---       #312
      00FF67D7H   LINE      CODE     ---       #313
      00FF67D7H   LINE      CODE     ---       #315
      00FF67E4H   LINE      CODE     ---       #317
      00FF67FAH   LINE      CODE     ---       #318
      00FF67FDH   LINE      CODE     ---       #319
      00FF67FDH   LINE      CODE     ---       #322
      00FF67FFH   LINE      CODE     ---       #323
      00FF67FFH   LINE      CODE     ---       #324
      ---         BLOCKEND  ---      ---       LVL=0

      00FF5E95H   BLOCK     CODE     ---       LVL=0
      R11         REGSYM    ---      BYTE      DevAddress
      R10         REGSYM    ---      BYTE      addr
L251 LINKER/LOCATER V4.66.93.0                                                        07/23/2024  16:57:56  PAGE 82


      R14         REGSYM    ---      BYTE      bitStart
      R15         REGSYM    ---      BYTE      length
      0000040CH   SYMBOL    EDATA    ---       Data
      00FF5E9FH   BLOCK     CODE     NEAR LAB  LVL=1
      000004F2H   SYMBOL    EDATA    BYTE      b
      000004F3H   SYMBOL    EDATA    BYTE      mask
      ---         BLOCKEND  ---      ---       LVL=1
      00FF5E95H   LINE      CODE     ---       #333
      00FF5E9FH   LINE      CODE     ---       #334
      00FF5E9FH   LINE      CODE     ---       #341
      00FF5EACH   LINE      CODE     ---       #344
      00FF5ECEH   LINE      CODE     ---       #345
      00FF5ED6H   LINE      CODE     ---       #346
      00FF5EEDH   LINE      CODE     ---       #347
      00FF5EF8H   LINE      CODE     ---       #348
      00FF5EFBH   LINE      CODE     ---       #349
      00FF5EFBH   LINE      CODE     ---       #351
      00FF5EFDH   LINE      CODE     ---       #352
      ---         BLOCKEND  ---      ---       LVL=0

      00FF6D10H   BLOCK     CODE     ---       LVL=0
      DR4         REGSYM    ---      DWORD     i
      00FF6D10H   LINE      CODE     ---       #356
      00FF6D10H   LINE      CODE     ---       #357
      00FF6D10H   LINE      CODE     ---       #359
      00FF6D11H   LINE      CODE     ---       #360
      00FF6D15H   LINE      CODE     ---       #361
      00FF6D19H   LINE      CODE     ---       #362
      ---         BLOCKEND  ---      ---       LVL=0

      00FF6BE4H   BLOCK     CODE     ---       LVL=0
      WR14        REGSYM    ---      WORD      Milliseconds
      00FF6BE4H   LINE      CODE     ---       #365
      00FF6BE8H   LINE      CODE     ---       #367
      00FF6BF5H   LINE      CODE     ---       #369
      ---         BLOCKEND  ---      ---       LVL=0

      00FF6CFAH   BLOCK     CODE     ---       LVL=0
      R7          REGSYM    ---      BYTE      reg
      R6          REGSYM    ---      BYTE      len
      REG=0       REGSYM    ---      ---       buf
      00FF6CFAH   LINE      CODE     ---       #377
      00FF6CFEH   LINE      CODE     ---       #379
      ---         BLOCKEND  ---      ---       LVL=0

      00FF6CE4H   BLOCK     CODE     ---       LVL=0
      R7          REGSYM    ---      BYTE      reg
      R6          REGSYM    ---      BYTE      len
      REG=0       REGSYM    ---      ---       buf
      00FF6CE4H   LINE      CODE     ---       #388
      00FF6CE8H   LINE      CODE     ---       #390
      ---         BLOCKEND  ---      ---       LVL=0

      00FF6BCFH   BLOCK     CODE     ---       LVL=0
      R10         REGSYM    ---      BYTE      reg
      0000040EH   SYMBOL    EDATA    BYTE      Data
      00FF6BCFH   LINE      CODE     ---       #398
      00FF6BD5H   LINE      CODE     ---       #400
      ---         BLOCKEND  ---      ---       LVL=0
      R10         REGSYM    ---      BYTE      reg

      00FF6CCAH   BLOCK     CODE     ---       LVL=0
      R7          REGSYM    ---      BYTE      addr
      R6          REGSYM    ---      BYTE      bitNum
      R10         REGSYM    ---      BYTE      Data
L251 LINKER/LOCATER V4.66.93.0                                                        07/23/2024  16:57:56  PAGE 83


      00FF6CCAH   LINE      CODE     ---       #414
      00FF6CD0H   LINE      CODE     ---       #416
      ---         BLOCKEND  ---      ---       LVL=0

      00FF6CBDH   BLOCK     CODE     ---       LVL=0
      R7          REGSYM    ---      BYTE      addr
      R6          REGSYM    ---      BYTE      bitStart
      R5          REGSYM    ---      BYTE      length
      R4          REGSYM    ---      BYTE      Data
      00FF6CBDH   LINE      CODE     ---       #420
      00FF6CC5H   LINE      CODE     ---       #422
      ---         BLOCKEND  ---      ---       LVL=0

      00FF6D1AH   BLOCK     CODE     ---       LVL=0
      R7          REGSYM    ---      BYTE      addr
      R6          REGSYM    ---      BYTE      bitNum
      REG=0       REGSYM    ---      ---       Data
      00FF6D1AH   LINE      CODE     ---       #426
      00FF6D1EH   LINE      CODE     ---       #428
      ---         BLOCKEND  ---      ---       LVL=0

      00FF0046H   BLOCK     CODE     ---       LVL=0
      R7          REGSYM    ---      BYTE      addr
      R6          REGSYM    ---      BYTE      bitStart
      R10         REGSYM    ---      BYTE      length
      REG=0       REGSYM    ---      ---       Data
      00FF0046H   LINE      CODE     ---       #432
      00FF004CH   LINE      CODE     ---       #434
      ---         BLOCKEND  ---      ---       LVL=0
      R11         REGSYM    ---      BYTE      res
      R10         REGSYM    ---      BYTE      fsr
      R10         REGSYM    ---      BYTE      fsr
      WR6         REGSYM    ---      WORD      lpf
      R10         REGSYM    ---      BYTE      Data
      WR14        REGSYM    ---      WORD      rate
      000004F4H   SYMBOL    EDATA    BYTE      Data
      WR4         REGSYM    ---      INT       raw
      DR4         REGSYM    ---      FLOAT     temp

      00FF60E2H   BLOCK     CODE     ---       LVL=0
      00000406H   SYMBOL    EDATA    ---       gx
      REG=3       REGSYM    ---      ---       gy
      0000040AH   SYMBOL    EDATA    ---       gz
      00FF60EAH   BLOCK     CODE     NEAR LAB  LVL=1
      0000040EH   SYMBOL    EDATA    ---       buf
      R11         REGSYM    ---      BYTE      res
      ---         BLOCKEND  ---      ---       LVL=1
      00FF60E2H   LINE      CODE     ---       #543
      00FF60EAH   LINE      CODE     ---       #544
      00FF60EAH   LINE      CODE     ---       #546
      00FF60F6H   LINE      CODE     ---       #547
      00FF60F8H   LINE      CODE     ---       #549
      00FF610FH   LINE      CODE     ---       #550
      00FF6122H   LINE      CODE     ---       #551
      00FF6137H   LINE      CODE     ---       #552
      00FF6137H   LINE      CODE     ---       #553
      00FF6137H   LINE      CODE     ---       #554
      ---         BLOCKEND  ---      ---       LVL=0
      REG=3       REGSYM    ---      ---       ay
      R11         REGSYM    ---      BYTE      res

      00FF5AD7H   BLOCK     CODE     ---       LVL=0
      00FF5AD9H   BLOCK     CODE     NEAR LAB  LVL=1
      WR14        REGSYM    ---      WORD      datanum
      0000040CH   SYMBOL    EDATA    BYTE      ye
L251 LINKER/LOCATER V4.66.93.0                                                        07/23/2024  16:57:56  PAGE 84


      0000040DH   SYMBOL    EDATA    BYTE      i
      R12         REGSYM    ---      BYTE      bank
      R13         REGSYM    ---      BYTE      addr
      ---         BLOCKEND  ---      ---       LVL=1
      00FF5AD7H   LINE      CODE     ---       #790
      00FF5AD9H   LINE      CODE     ---       #791
      00FF5AD9H   LINE      CODE     ---       #792
      00FF5ADBH   LINE      CODE     ---       #794
      00FF5ADDH   LINE      CODE     ---       #795
      00FF5ADFH   LINE      CODE     ---       #797
      00FF5ADFH   LINE      CODE     ---       #799
      00FF5AE4H   LINE      CODE     ---       #800
      00FF5AE8H   LINE      CODE     ---       #802
      00FF5AEEH   LINE      CODE     ---       #803
      00FF5AF1H   LINE      CODE     ---       #805
      00FF5AF8H   LINE      CODE     ---       #806
      00FF5AFFH   LINE      CODE     ---       #807
      00FF5B11H   LINE      CODE     ---       #808
      00FF5B15H   LINE      CODE     ---       #809
      00FF5B18H   LINE      CODE     ---       #810
      00FF5B2BH   LINE      CODE     ---       #811
      00FF5B32H   LINE      CODE     ---       #812
      00FF5B3AH   LINE      CODE     ---       #813
      00FF5B41H   LINE      CODE     ---       #814
      00FF5B53H   LINE      CODE     ---       #815
      00FF5B53H   LINE      CODE     ---       #816
      00FF5B55H   LINE      CODE     ---       #817
      ---         BLOCKEND  ---      ---       LVL=0

      00FF5639H   BLOCK     CODE     ---       LVL=0
      00FF563BH   BLOCK     CODE     NEAR LAB  LVL=1
      R14         REGSYM    ---      BYTE      line
      0000040CH   SYMBOL    EDATA    BYTE      bank
      R15         REGSYM    ---      BYTE      datacounts
      R13         REGSYM    ---      BYTE      bytes2write
      0000040DH   SYMBOL    EDATA    BYTE      offset
      000004F5H   SYMBOL    EDATA    BYTE      writingcounts
      R12         REGSYM    ---      BYTE      special
      ---         BLOCKEND  ---      ---       LVL=1
      00FF5639H   LINE      CODE     ---       #819
      00FF563BH   LINE      CODE     ---       #820
      00FF563BH   LINE      CODE     ---       #823
      00FF563DH   LINE      CODE     ---       #829
      00FF5640H   LINE      CODE     ---       #831
      00FF5656H   LINE      CODE     ---       #832
      00FF566CH   LINE      CODE     ---       #833
      00FF5680H   LINE      CODE     ---       #834
      00FF5689H   LINE      CODE     ---       #835
      00FF5692H   LINE      CODE     ---       #836
      00FF56A3H   LINE      CODE     ---       #837
      00FF56A7H   LINE      CODE     ---       #838
      00FF56A9H   LINE      CODE     ---       #839
      00FF56ADH   LINE      CODE     ---       #841
      00FF56C1H   LINE      CODE     ---       #842
      00FF56C6H   LINE      CODE     ---       #847
      00FF56CEH   LINE      CODE     ---       #848
      00FF56D0H   LINE      CODE     ---       #850
      00FF56D3H   LINE      CODE     ---       #851
      00FF56DAH   LINE      CODE     ---       #853
      00FF56DCH   LINE      CODE     ---       #854
      ---         BLOCKEND  ---      ---       LVL=0

      00FF59CBH   BLOCK     CODE     ---       LVL=0
      0000040CH   SYMBOL    EDATA    BYTE      datacounts
      00FF59D1H   BLOCK     CODE     NEAR LAB  LVL=1
L251 LINKER/LOCATER V4.66.93.0                                                        07/23/2024  16:57:56  PAGE 85


      000004F6H   SYMBOL    EDATA    BYTE      writingcounts
      R7          REGSYM    ---      BYTE      bank
      R14         REGSYM    ---      BYTE      offset
      R15         REGSYM    ---      BYTE      bytes2write
      ---         BLOCKEND  ---      ---       LVL=1
      00FF59CBH   LINE      CODE     ---       #857
      00FF59D1H   LINE      CODE     ---       #858
      00FF59D1H   LINE      CODE     ---       #862
      00FF59ECH   LINE      CODE     ---       #863
      00FF5A07H   LINE      CODE     ---       #864
      00FF5A22H   LINE      CODE     ---       #865
      00FF5A27H   LINE      CODE     ---       #866
      00FF5A2EH   LINE      CODE     ---       #867
      00FF5A43H   LINE      CODE     ---       #868
      00FF5A47H   LINE      CODE     ---       #869
      00FF5A51H   LINE      CODE     ---       #870
      00FF5A53H   LINE      CODE     ---       #871
      ---         BLOCKEND  ---      ---       LVL=0

      00FF0026H   BLOCK     CODE     ---       LVL=0
      0000040CH   SYMBOL    EDATA    ---       i
      00FF0026H   LINE      CODE     ---       #875
      00FF0026H   LINE      CODE     ---       #876
      00FF0026H   LINE      CODE     ---       #878
      00FF0032H   LINE      CODE     ---       #879
      00FF0042H   LINE      CODE     ---       #880
      ---         BLOCKEND  ---      ---       LVL=0

      00FF6C91H   BLOCK     CODE     ---       LVL=0
      REG=7       REGSYM    ---      ---       Data
      00FF6C91H   LINE      CODE     ---       #886
      00FF6C91H   LINE      CODE     ---       #888
      00FF6C9FH   LINE      CODE     ---       #889
      ---         BLOCKEND  ---      ---       LVL=0

      00FF3DEBH   BLOCK     CODE     ---       LVL=0
      00000406H   SYMBOL    EDATA    BYTE      hwRevision
      00000407H   SYMBOL    EDATA    BYTE      otpValid
      00000408H   SYMBOL    EDATA    BYTE      mpuIntStatus
      00000409H   SYMBOL    EDATA    BYTE      xgOffsetTC
      0000040AH   SYMBOL    EDATA    BYTE      ygOffsetTC
      0000040BH   SYMBOL    EDATA    BYTE      zgOffsetTC
      000004F7H   SYMBOL    EDATA    WORD      fifoCount
      00FF3DEBH   LINE      CODE     ---       #892
      00FF3DEBH   LINE      CODE     ---       #893
      00FF3DEBH   LINE      CODE     ---       #897
      00FF3DF6H   LINE      CODE     ---       #898
      00FF3DFDH   LINE      CODE     ---       #899
      00FF3E07H   LINE      CODE     ---       #900
      00FF3E0FH   LINE      CODE     ---       #901
      00FF3E17H   LINE      CODE     ---       #902
      00FF3E23H   LINE      CODE     ---       #903
      00FF3E2AH   LINE      CODE     ---       #904
      00FF3E34H   LINE      CODE     ---       #905
      00FF3E42H   LINE      CODE     ---       #906
      00FF3E51H   LINE      CODE     ---       #907
      00FF3E60H   LINE      CODE     ---       #911
      00FF3E6BH   LINE      CODE     ---       #912
      00FF3E72H   LINE      CODE     ---       #913
      00FF3E77H   LINE      CODE     ---       #914
      00FF3E79H   LINE      CODE     ---       #915
      00FF3E7EH   LINE      CODE     ---       #916
      00FF3E80H   LINE      CODE     ---       #917
      00FF3E8EH   LINE      CODE     ---       #918
      00FF3E96H   LINE      CODE     ---       #919
L251 LINKER/LOCATER V4.66.93.0                                                        07/23/2024  16:57:56  PAGE 86


      00FF3E9EH   LINE      CODE     ---       #920
      00FF3EACH   LINE      CODE     ---       #921
      00FF3EBAH   LINE      CODE     ---       #922
      00FF3EC8H   LINE      CODE     ---       #923
      00FF3ED0H   LINE      CODE     ---       #924
      00FF3ED7H   LINE      CODE     ---       #925
      00FF3EDFH   LINE      CODE     ---       #926
      00FF3EEBH   LINE      CODE     ---       #927
      00FF3EF8H   LINE      CODE     ---       #928
      00FF3F05H   LINE      CODE     ---       #929
      00FF3F0BH   LINE      CODE     ---       #930
      00FF3F0DH   LINE      CODE     ---       #931
      00FF3F14H   LINE      CODE     ---       #932
      00FF3F16H   LINE      CODE     ---       #933
      00FF3F21H   LINE      CODE     ---       #934
      00FF3F28H   LINE      CODE     ---       #936
      00FF3F33H   LINE      CODE     ---       #938
      00FF3F3BH   LINE      CODE     ---       #939
      00FF3F43H   LINE      CODE     ---       #940
      00FF3F4BH   LINE      CODE     ---       #941
      00FF3F52H   LINE      CODE     ---       #942
      00FF3F5DH   LINE      CODE     ---       #943
      00FF3F68H   LINE      CODE     ---       #944
      00FF3F73H   LINE      CODE     ---       #945
      00FF3F7EH   LINE      CODE     ---       #946
      00FF3F85H   LINE      CODE     ---       #947
      00FF3F87H   LINE      CODE     ---       #948
      00FF3F8EH   LINE      CODE     ---       #949
      00FF3F90H   LINE      CODE     ---       #950
      00FF3F97H   LINE      CODE     ---       #951
      00FF3F99H   LINE      CODE     ---       #952
      00FF3FA6H   LINE      CODE     ---       #953
      00FF3FB1H   LINE      CODE     ---       #955
      00FF3FBDH   LINE      CODE     ---       #956
      00FF3FC4H   LINE      CODE     ---       #957
      00FF3FC6H   LINE      CODE     ---       #958
      00FF3FD3H   LINE      CODE     ---       #959
      00FF3FDEH   LINE      CODE     ---       #961
      00FF3FEAH   LINE      CODE     ---       #962
      00FF3FF1H   LINE      CODE     ---       #963
      00FF3FF3H   LINE      CODE     ---       #964
      00FF3FFDH   LINE      CODE     ---       #965
      00FF4008H   LINE      CODE     ---       #966
      00FF4014H   LINE      CODE     ---       #968
      00FF4016H   LINE      CODE     ---       #969
      ---         BLOCKEND  ---      ---       LVL=0

      00FF6835H   BLOCK     CODE     ---       LVL=0
      00FF6835H   LINE      CODE     ---       #972
      00FF6835H   LINE      CODE     ---       #974
      00FF6843H   LINE      CODE     ---       #975
      00FF6850H   LINE      CODE     ---       #976
      00FF685DH   LINE      CODE     ---       #977
      ---         BLOCKEND  ---      ---       LVL=0

      00FF6AC2H   BLOCK     CODE     ---       LVL=0
      00000406H   SYMBOL    EDATA    BYTE      b
      00FF6AC2H   LINE      CODE     ---       #981
      00FF6AC2H   LINE      CODE     ---       #982
      00FF6AC2H   LINE      CODE     ---       #983
      00FF6AC7H   LINE      CODE     ---       #984
      00FF6AD6H   LINE      CODE     ---       #985
      00FF6AE1H   LINE      CODE     ---       #987
      ---         BLOCKEND  ---      ---       LVL=0

L251 LINKER/LOCATER V4.66.93.0                                                        07/23/2024  16:57:56  PAGE 87


      00FF6A7DH   BLOCK     CODE     ---       LVL=0
      00FF6A7DH   LINE      CODE     ---       #989
      00FF6A7DH   LINE      CODE     ---       #991
      00FF6A80H   LINE      CODE     ---       #992
      00FF6A85H   LINE      CODE     ---       #993
      00FF6A8AH   LINE      CODE     ---       #994
      00FF6A95H   LINE      CODE     ---       #995
      ---         BLOCKEND  ---      ---       LVL=0

      00FF3B51H   BLOCK     CODE     ---       LVL=0
      00FF3B53H   BLOCK     CODE     NEAR LAB  LVL=1
      000004F9H   SYMBOL    EDATA    BYTE      zd
      000004FAH   SYMBOL    EDATA    WORD      i
      ---         BLOCKEND  ---      ---       LVL=1
      00FF3B51H   LINE      CODE     ---       #999
      00FF3B53H   LINE      CODE     ---       #1000
      00FF3B53H   LINE      CODE     ---       #1004
      00FF3B5AH   LINE      CODE     ---       #1005
      00FF3B66H   LINE      CODE     ---       #1006
      00FF3B79H   LINE      CODE     ---       #1008
      00FF3B84H   LINE      CODE     ---       #1009
      00FF3B87H   LINE      CODE     ---       #1010
      00FF3B8FH   LINE      CODE     ---       #1012
      00FF3BA2H   LINE      CODE     ---       #1014
      00FF3BABH   LINE      CODE     ---       #1016
      00FF3BC9H   LINE      CODE     ---       #1017
      00FF3BE1H   LINE      CODE     ---       #1018
      00FF3BF9H   LINE      CODE     ---       #1019
      00FF3C11H   LINE      CODE     ---       #1020
      00FF3C11H   LINE      CODE     ---       #1025
      00FF3C59H   LINE      CODE     ---       #1026
      00FF3CD0H   LINE      CODE     ---       #1027
      00FF3D54H   LINE      CODE     ---       #1029
      00FF3D6FH   LINE      CODE     ---       #1030
      00FF3D85H   LINE      CODE     ---       #1032
      00FF3D95H   LINE      CODE     ---       #1033
      00FF3DB4H   LINE      CODE     ---       #1034
      00FF3DD3H   LINE      CODE     ---       #1036
      00FF3DDBH   LINE      CODE     ---       #1038
      00FF3DE8H   LINE      CODE     ---       #1040
      ---         BLOCKEND  ---      ---       LVL=0

      ---         MODULE    ---      ---       TOF
      00FF5E28H   PUBLIC    CODE     ---       vl53l0x_get_distance
      00FF229EH   PUBLIC    CODE     ---       vl53l0x_init
      00000760H   PUBLIC    EDATA    WORD      vl53l0x_distance_mm
      00000762H   PUBLIC    EDATA    BYTE      vl53l0x_finsh_flag
      000000D0H   SFRSYM    DATA     BYTE      PSW
      000000B7H   SFRSYM    DATA     BYTE      IPH
      000000B0H.3 SFRSYM    DATA     BIT       P33
      00000088H   SFRSYM    DATA     BYTE      TCON
      000000B0H.2 SFRSYM    DATA     BIT       P32
      00000098H   SFRSYM    DATA     BYTE      SCON
      000000BCH   SFRSYM    DATA     BYTE      ADC_CONTR
      000000DEH   SFRSYM    DATA     BYTE      ADCCFG
      000000B8H   SFRSYM    DATA     BYTE      IP
      000000A8H   SFRSYM    DATA     BYTE      IE
      000000F8H   SFRSYM    DATA     BYTE      P7
      000000E8H   SFRSYM    DATA     BYTE      P6
      000000C8H   SFRSYM    DATA     BYTE      P5
      000000C0H   SFRSYM    DATA     BYTE      P4
      000000B0H   SFRSYM    DATA     BYTE      P3
      000000A0H   SFRSYM    DATA     BYTE      P2
      00000090H   SFRSYM    DATA     BYTE      P1
      00000080H   SFRSYM    DATA     BYTE      P0
L251 LINKER/LOCATER V4.66.93.0                                                        07/23/2024  16:57:56  PAGE 88


      00FF6AE2H   SYMBOL    CODE     ---       vl53l0x_simiic_sendack
      00FF664CH   SYMBOL    CODE     ---       vl53l0x_timeout_microseconds_to_mclks
      00FF65D1H   SYMBOL    CODE     ---       vl53l0x_timeout_mclks_to_microseconds
      00FF69EAH   SYMBOL    CODE     ---       vl53l0x_set_signal_rate_limit
      00FF6688H   SYMBOL    CODE     ---       vl53l0x_read_ch
      00FF6C62H   SYMBOL    CODE     ---       vl53l0x_decode_timeout
      00FF6896H   SYMBOL    CODE     ---       vl53l0x_send_ch
      00FF4725H   SYMBOL    CODE     ---       vl53l0x_get_spad_info
      00FF6768H   SYMBOL    CODE     ---       vl53l0x_encode_timeout
      00FF613AH   SYMBOL    CODE     ---       vl53l0x_get_sequence_step_enables
      00FF0066H   SYMBOL    CODE     ---       vl53l0x_sccb_waitack
      00FF6CD7H   SYMBOL    CODE     ---       vl53l0x_simiic_delay
      00FF5CC8H   SYMBOL    CODE     ---       vl53l0x_perform_single_ref_calibration
      00FF51BAH   SYMBOL    CODE     ---       vl53l0x_get_sequence_step_timeouts
      00FF6CA0H   SYMBOL    CODE     ---       vl53l0x_simiic_start
      00FF61E6H   SYMBOL    CODE     ---       vl53l0x_simiic_read_regs
      00FF5DB5H   SYMBOL    CODE     ---       vl53l0x_get_measurement_timing_budget
      00FF6733H   SYMBOL    CODE     ---       vl53l0x_simiic_write_dats
      00FF69C1H   SYMBOL    CODE     ---       vl53l0x_simiic_read_reg
      00FF623AH   SYMBOL    CODE     ---       vl53l0x_simiic_read_regs_1
      00FF4FF6H   SYMBOL    CODE     ---       vl53l0x_set_measurement_timing_budget
      00FF6C40H   SYMBOL    CODE     ---       vl53l0x_simiic_stop
      00FF6AA0H   SYMBOL    CODE     ---       vl53l0x_simiic_write_reg
      00FF632CH   SYMBOL    CODE     ---       vl53l0x_get_vcsel_pulse_period

      00FF6CD7H   BLOCK     CODE     ---       LVL=0
      WR6         REGSYM    ---      WORD      j
      00FF6CD7H   LINE      CODE     ---       #77
      00FF6CD7H   LINE      CODE     ---       #78
      00FF6CD7H   LINE      CODE     ---       #79
      00FF6CDBH   LINE      CODE     ---       #80
      00FF6CE3H   LINE      CODE     ---       #81
      ---         BLOCKEND  ---      ---       LVL=0

      00FF6CA0H   BLOCK     CODE     ---       LVL=0
      00FF6CA0H   LINE      CODE     ---       #84
      00FF6CA0H   LINE      CODE     ---       #86
      00FF6CA2H   LINE      CODE     ---       #87
      00FF6CA4H   LINE      CODE     ---       #88
      00FF6CA7H   LINE      CODE     ---       #89
      00FF6CA9H   LINE      CODE     ---       #90
      00FF6CACH   LINE      CODE     ---       #91
      00FF6CAEH   LINE      CODE     ---       #92
      ---         BLOCKEND  ---      ---       LVL=0

      00FF6C40H   BLOCK     CODE     ---       LVL=0
      00FF6C40H   LINE      CODE     ---       #95
      00FF6C40H   LINE      CODE     ---       #97
      00FF6C42H   LINE      CODE     ---       #98
      00FF6C44H   LINE      CODE     ---       #99
      00FF6C47H   LINE      CODE     ---       #100
      00FF6C49H   LINE      CODE     ---       #101
      00FF6C4CH   LINE      CODE     ---       #102
      00FF6C4EH   LINE      CODE     ---       #103
      ---         BLOCKEND  ---      ---       LVL=0

      00FF6AE2H   BLOCK     CODE     ---       LVL=0
      R15         REGSYM    ---      BYTE      ack_dat
      00FF6AE2H   LINE      CODE     ---       #108
      00FF6AE6H   LINE      CODE     ---       #110
      00FF6AE8H   LINE      CODE     ---       #111
      00FF6AEBH   LINE      CODE     ---       #112
      00FF6AF3H   LINE      CODE     ---       #113
      00FF6AF5H   LINE      CODE     ---       #115
      00FF6AF7H   LINE      CODE     ---       #116
L251 LINKER/LOCATER V4.66.93.0                                                        07/23/2024  16:57:56  PAGE 89


      00FF6AFAH   LINE      CODE     ---       #117
      00FF6AFCH   LINE      CODE     ---       #118
      00FF6AFFH   LINE      CODE     ---       #119
      ---         BLOCKEND  ---      ---       LVL=0

      00FF0066H   BLOCK     CODE     ---       LVL=0
      00FF0066H   LINE      CODE     ---       #122
      00FF0066H   LINE      CODE     ---       #124
      00FF0068H   LINE      CODE     ---       #126
      00FF006BH   LINE      CODE     ---       #128
      00FF006DH   LINE      CODE     ---       #129
      00FF0070H   LINE      CODE     ---       #131
      00FF0073H   LINE      CODE     ---       #134
      00FF0075H   LINE      CODE     ---       #135
      00FF0078H   LINE      CODE     ---       #136
      00FF0078H   LINE      CODE     ---       #138
      00FF007AH   LINE      CODE     ---       #139
      00FF007DH   LINE      CODE     ---       #140
      00FF0081H   LINE      CODE     ---       #141
      ---         BLOCKEND  ---      ---       LVL=0

      00FF6896H   BLOCK     CODE     ---       LVL=0
      R15         REGSYM    ---      BYTE      c
      00FF689AH   BLOCK     CODE     NEAR LAB  LVL=1
      R14         REGSYM    ---      BYTE      i
      ---         BLOCKEND  ---      ---       LVL=1
      00FF6896H   LINE      CODE     ---       #147
      00FF689AH   LINE      CODE     ---       #148
      00FF689AH   LINE      CODE     ---       #149
      00FF689DH   LINE      CODE     ---       #150
      00FF689FH   LINE      CODE     ---       #152
      00FF68A8H   LINE      CODE     ---       #153
      00FF68AAH   LINE      CODE     ---       #154
      00FF68ACH   LINE      CODE     ---       #155
      00FF68AFH   LINE      CODE     ---       #156
      00FF68B1H   LINE      CODE     ---       #157
      00FF68B4H   LINE      CODE     ---       #158
      00FF68B6H   LINE      CODE     ---       #159
      00FF68BEH   LINE      CODE     ---       #160
      00FF68C1H   LINE      CODE     ---       #161
      ---         BLOCKEND  ---      ---       LVL=0

      00FF6688H   BLOCK     CODE     ---       LVL=0
      R15         REGSYM    ---      BYTE      ack_x
      00FF668EH   BLOCK     CODE     NEAR LAB  LVL=1
      R13         REGSYM    ---      BYTE      i
      R14         REGSYM    ---      BYTE      c
      ---         BLOCKEND  ---      ---       LVL=1
      00FF6688H   LINE      CODE     ---       #167
      00FF668EH   LINE      CODE     ---       #168
      00FF668EH   LINE      CODE     ---       #171
      00FF6690H   LINE      CODE     ---       #172
      00FF6692H   LINE      CODE     ---       #173
      00FF6695H   LINE      CODE     ---       #174
      00FF6697H   LINE      CODE     ---       #176
      00FF669AH   LINE      CODE     ---       #178
      00FF669DH   LINE      CODE     ---       #179
      00FF669FH   LINE      CODE     ---       #180
      00FF66A2H   LINE      CODE     ---       #181
      00FF66A4H   LINE      CODE     ---       #182
      00FF66A7H   LINE      CODE     ---       #183
      00FF66A9H   LINE      CODE     ---       #184
      00FF66ACH   LINE      CODE     ---       #186
      00FF66AEH   LINE      CODE     ---       #187
      00FF66B2H   LINE      CODE     ---       #190
L251 LINKER/LOCATER V4.66.93.0                                                        07/23/2024  16:57:56  PAGE 90


      00FF66B4H   LINE      CODE     ---       #191
      00FF66B7H   LINE      CODE     ---       #192
      00FF66BCH   LINE      CODE     ---       #194
      00FF66BEH   LINE      CODE     ---       #195
      ---         BLOCKEND  ---      ---       LVL=0

      00FF6733H   BLOCK     CODE     ---       LVL=0
      0000043BH   SYMBOL    EDATA    BYTE      dev_add
      0000043CH   SYMBOL    EDATA    ---       dat
      DR12        REGSYM    ---      DWORD     len
      00FF6733H   LINE      CODE     ---       #207
      00FF673FH   LINE      CODE     ---       #209
      00FF6742H   LINE      CODE     ---       #210
      00FF6748H   LINE      CODE     ---       #211
      00FF674AH   LINE      CODE     ---       #213
      00FF675AH   LINE      CODE     ---       #214
      00FF6762H   LINE      CODE     ---       #217
      00FF6765H   LINE      CODE     ---       #218
      ---         BLOCKEND  ---      ---       LVL=0

      00FF6AA0H   BLOCK     CODE     ---       LVL=0
      R13         REGSYM    ---      BYTE      dev_add
      R14         REGSYM    ---      BYTE      reg
      R15         REGSYM    ---      BYTE      dat
      00FF6AA0H   LINE      CODE     ---       #230
      00FF6AA8H   LINE      CODE     ---       #232
      00FF6AABH   LINE      CODE     ---       #233
      00FF6AB0H   LINE      CODE     ---       #234
      00FF6AB5H   LINE      CODE     ---       #235
      00FF6ABAH   LINE      CODE     ---       #236
      00FF6ABDH   LINE      CODE     ---       #237
      ---         BLOCKEND  ---      ---       LVL=0

      00FF69C1H   BLOCK     CODE     ---       LVL=0
      R15         REGSYM    ---      BYTE      dev_add
      R14         REGSYM    ---      BYTE      reg
      00FF69C7H   BLOCK     CODE     NEAR LAB  LVL=1
      R15         REGSYM    ---      BYTE      dat
      ---         BLOCKEND  ---      ---       LVL=1
      00FF69C1H   LINE      CODE     ---       #248
      00FF69C7H   LINE      CODE     ---       #249
      00FF69C7H   LINE      CODE     ---       #251
      00FF69CAH   LINE      CODE     ---       #252
      00FF69CFH   LINE      CODE     ---       #253
      00FF69D4H   LINE      CODE     ---       #256
      00FF69D7H   LINE      CODE     ---       #257
      00FF69E0H   LINE      CODE     ---       #258
      00FF69E4H   LINE      CODE     ---       #259
      00FF69E7H   LINE      CODE     ---       #261
      00FF69E7H   LINE      CODE     ---       #262
      ---         BLOCKEND  ---      ---       LVL=0

      00FF61E6H   BLOCK     CODE     ---       LVL=0
      00000442H   SYMBOL    EDATA    BYTE      dev_add
      00000443H   SYMBOL    EDATA    BYTE      reg
      REG=3       REGSYM    ---      ---       dat_add
      00000444H   SYMBOL    EDATA    DWORD     num
      00FF61E6H   LINE      CODE     ---       #275
      00FF61F2H   LINE      CODE     ---       #277
      00FF61F5H   LINE      CODE     ---       #278
      00FF61FEH   LINE      CODE     ---       #279
      00FF6205H   LINE      CODE     ---       #282
      00FF6208H   LINE      CODE     ---       #283
      00FF6213H   LINE      CODE     ---       #284
      00FF6215H   LINE      CODE     ---       #286
L251 LINKER/LOCATER V4.66.93.0                                                        07/23/2024  16:57:56  PAGE 91


      00FF621DH   LINE      CODE     ---       #287
      00FF621FH   LINE      CODE     ---       #288
      00FF622DH   LINE      CODE     ---       #289
      00FF6234H   LINE      CODE     ---       #290
      00FF6237H   LINE      CODE     ---       #291
      ---         BLOCKEND  ---      ---       LVL=0

      00FF623AH   BLOCK     CODE     ---       LVL=0
      000003FDH   SYMBOL    EDATA    BYTE      dev_add
      000003FEH   SYMBOL    EDATA    BYTE      reg
      REG=3       REGSYM    ---      ---       dat_add
      000003FFH   SYMBOL    EDATA    DWORD     num
      00FF623AH   LINE      CODE     ---       #304
      00FF6246H   LINE      CODE     ---       #306
      00FF6249H   LINE      CODE     ---       #307
      00FF6252H   LINE      CODE     ---       #308
      00FF6259H   LINE      CODE     ---       #311
      00FF625CH   LINE      CODE     ---       #312
      00FF6267H   LINE      CODE     ---       #313
      00FF6269H   LINE      CODE     ---       #315
      00FF6271H   LINE      CODE     ---       #316
      00FF6273H   LINE      CODE     ---       #317
      00FF6281H   LINE      CODE     ---       #318
      00FF6288H   LINE      CODE     ---       #319
      00FF628BH   LINE      CODE     ---       #320
      ---         BLOCKEND  ---      ---       LVL=0

      00FF4725H   BLOCK     CODE     ---       LVL=0
      00000418H   SYMBOL    EDATA    ---       index
      REG=3       REGSYM    ---      ---       type_is_aperture
      00FF472DH   BLOCK     CODE     NEAR LAB  LVL=1
      0000041CH   SYMBOL    EDATA    BYTE      tmp
      0000041DH   SYMBOL    EDATA    BYTE      return_state
      0000041EH   SYMBOL    EDATA    WORD      loop_count
      ---         BLOCKEND  ---      ---       LVL=1
      00FF4725H   LINE      CODE     ---       #352
      00FF472DH   LINE      CODE     ---       #353
      00FF472DH   LINE      CODE     ---       #354
      00FF4732H   LINE      CODE     ---       #355
      00FF4736H   LINE      CODE     ---       #356
      00FF473CH   LINE      CODE     ---       #358
      00FF473CH   LINE      CODE     ---       #360
      00FF4747H   LINE      CODE     ---       #361
      00FF4752H   LINE      CODE     ---       #362
      00FF475BH   LINE      CODE     ---       #364
      00FF4766H   LINE      CODE     ---       #365
      00FF477AH   LINE      CODE     ---       #366
      00FF4789H   LINE      CODE     ---       #367
      00FF4794H   LINE      CODE     ---       #368
      00FF479FH   LINE      CODE     ---       #370
      00FF47AAH   LINE      CODE     ---       #372
      00FF47B5H   LINE      CODE     ---       #373
      00FF47BFH   LINE      CODE     ---       #375
      00FF47C4H   LINE      CODE     ---       #376
      00FF47C6H   LINE      CODE     ---       #378
      00FF47DAH   LINE      CODE     ---       #379
      00FF47E4H   LINE      CODE     ---       #380
      00FF47EEH   LINE      CODE     ---       #382
      00FF47F4H   LINE      CODE     ---       #383
      00FF47F6H   LINE      CODE     ---       #384
      00FF47FDH   LINE      CODE     ---       #387
      00FF4806H   LINE      CODE     ---       #389
      00FF4806H   LINE      CODE     ---       #390
      00FF4806H   LINE      CODE     ---       #391
      00FF4811H   LINE      CODE     ---       #392
L251 LINKER/LOCATER V4.66.93.0                                                        07/23/2024  16:57:56  PAGE 92


      00FF4825H   LINE      CODE     ---       #394
      00FF4832H   LINE      CODE     ---       #395
      00FF483CH   LINE      CODE     ---       #397
      00FF4846H   LINE      CODE     ---       #398
      00FF4851H   LINE      CODE     ---       #399
      00FF4865H   LINE      CODE     ---       #400
      00FF4871H   LINE      CODE     ---       #401
      00FF487CH   LINE      CODE     ---       #402
      00FF4886H   LINE      CODE     ---       #404
      00FF4890H   LINE      CODE     ---       #405
      00FF489AH   LINE      CODE     ---       #406
      00FF489AH   LINE      CODE     ---       #408
      00FF489EH   LINE      CODE     ---       #409
      ---         BLOCKEND  ---      ---       LVL=0

      00FF65D1H   BLOCK     CODE     ---       LVL=0
      WR30        REGSYM    ---      WORD      timeout_period_mclks
      R5          REGSYM    ---      BYTE      vcsel_period_pclks
      00FF65D3H   BLOCK     CODE     NEAR LAB  LVL=1
      DR24        REGSYM    ---      DWORD     macro_period_ns
      ---         BLOCKEND  ---      ---       LVL=1
      00FF65D1H   LINE      CODE     ---       #419
      00FF65D3H   LINE      CODE     ---       #420
      00FF65D3H   LINE      CODE     ---       #421
      00FF65F4H   LINE      CODE     ---       #423
      ---         BLOCKEND  ---      ---       LVL=0

      00FF664CH   BLOCK     CODE     ---       LVL=0
      DR28        REGSYM    ---      DWORD     timeout_period_us
      R3          REGSYM    ---      BYTE      vcsel_period_pclks
      00FF664EH   BLOCK     CODE     NEAR LAB  LVL=1
      DR8         REGSYM    ---      DWORD     macro_period_ns
      ---         BLOCKEND  ---      ---       LVL=1
      00FF664CH   LINE      CODE     ---       #434
      00FF664EH   LINE      CODE     ---       #435
      00FF664EH   LINE      CODE     ---       #436
      00FF666FH   LINE      CODE     ---       #438
      ---         BLOCKEND  ---      ---       LVL=0

      00FF6C62H   BLOCK     CODE     ---       LVL=0
      WR4         REGSYM    ---      WORD      reg_val
      00FF6C62H   LINE      CODE     ---       #448
      00FF6C64H   LINE      CODE     ---       #451
      00FF6C71H   LINE      CODE     ---       #453
      ---         BLOCKEND  ---      ---       LVL=0

      00FF6768H   BLOCK     CODE     ---       LVL=0
      WR2         REGSYM    ---      WORD      timeout_mclks
      00FF676AH   BLOCK     CODE     NEAR LAB  LVL=1
      DR8         REGSYM    ---      DWORD     ls_byte
      WR4         REGSYM    ---      WORD      ms_byte
      WR6         REGSYM    ---      WORD      return_data
      ---         BLOCKEND  ---      ---       LVL=1
      00FF6768H   LINE      CODE     ---       #462
      00FF676AH   LINE      CODE     ---       #463
      00FF676AH   LINE      CODE     ---       #464
      00FF676AH   LINE      CODE     ---       #465
      00FF676EH   LINE      CODE     ---       #466
      00FF676EH   LINE      CODE     ---       #468
      00FF6774H   LINE      CODE     ---       #471
      00FF677AH   LINE      CODE     ---       #472
      00FF677CH   LINE      CODE     ---       #474
      00FF6785H   LINE      CODE     ---       #475
      00FF6787H   LINE      CODE     ---       #476
      00FF6791H   LINE      CODE     ---       #477
L251 LINKER/LOCATER V4.66.93.0                                                        07/23/2024  16:57:56  PAGE 93


      00FF679BH   LINE      CODE     ---       #478
      00FF679BH   LINE      CODE     ---       #479
      00FF679BH   LINE      CODE     ---       #480
      ---         BLOCKEND  ---      ---       LVL=0

      00FF613AH   BLOCK     CODE     ---       LVL=0
      REG=3       REGSYM    ---      ---       enables
      00FF613EH   BLOCK     CODE     NEAR LAB  LVL=1
      0000043BH   SYMBOL    EDATA    BYTE      sequence_config
      ---         BLOCKEND  ---      ---       LVL=1
      00FF613AH   LINE      CODE     ---       #489
      00FF613EH   LINE      CODE     ---       #490
      00FF613EH   LINE      CODE     ---       #491
      00FF6143H   LINE      CODE     ---       #492
      00FF6154H   LINE      CODE     ---       #494
      00FF615EH   LINE      CODE     ---       #495
      00FF616AH   LINE      CODE     ---       #496
      00FF6178H   LINE      CODE     ---       #497
      00FF6184H   LINE      CODE     ---       #498
      00FF618FH   LINE      CODE     ---       #499
      ---         BLOCKEND  ---      ---       LVL=0

      00FF632CH   BLOCK     CODE     ---       LVL=0
      WR6         REGSYM    ---      INT       type
      00000441H   SYMBOL    EDATA    BYTE      data_buffer
      00FF632CH   LINE      CODE     ---       #508
      00FF632CH   LINE      CODE     ---       #509
      00FF632CH   LINE      CODE     ---       #510
      00FF6331H   LINE      CODE     ---       #511
      00FF6335H   LINE      CODE     ---       #513
      00FF6342H   LINE      CODE     ---       #514
      00FF6342H   LINE      CODE     ---       #515
      00FF6344H   LINE      CODE     ---       #516
      00FF634AH   LINE      CODE     ---       #518
      00FF635EH   LINE      CODE     ---       #519
      00FF636CH   LINE      CODE     ---       #520
      00FF636EH   LINE      CODE     ---       #523
      00FF6374H   LINE      CODE     ---       #524
      00FF6374H   LINE      CODE     ---       #525
      00FF6378H   LINE      CODE     ---       #526
      ---         BLOCKEND  ---      ---       LVL=0

      00FF51BAH   BLOCK     CODE     ---       LVL=0
      0000043BH   SYMBOL    EDATA    ---       enables
      REG=3       REGSYM    ---      ---       timeouts
      00FF51C2H   BLOCK     CODE     NEAR LAB  LVL=1
      0000043FH   SYMBOL    EDATA    ---       reg_buffer
      WR6         REGSYM    ---      WORD      reg16_buffer
      ---         BLOCKEND  ---      ---       LVL=1
      00FF51BAH   LINE      CODE     ---       #536
      00FF51C2H   LINE      CODE     ---       #537
      00FF51C2H   LINE      CODE     ---       #539
      00FF51C2H   LINE      CODE     ---       #541
      00FF51CCH   LINE      CODE     ---       #543
      00FF51E0H   LINE      CODE     ---       #544
      00FF51ECH   LINE      CODE     ---       #545
      00FF51FAH   LINE      CODE     ---       #547
      00FF520EH   LINE      CODE     ---       #548
      00FF521AH   LINE      CODE     ---       #549
      00FF5221H   LINE      CODE     ---       #550
      00FF522FH   LINE      CODE     ---       #552
      00FF523CH   LINE      CODE     ---       #554
      00FF5250H   LINE      CODE     ---       #555
      00FF525CH   LINE      CODE     ---       #556
      00FF5263H   LINE      CODE     ---       #558
L251 LINKER/LOCATER V4.66.93.0                                                        07/23/2024  16:57:56  PAGE 94


      00FF526DH   LINE      CODE     ---       #560
      00FF527FH   LINE      CODE     ---       #561
      00FF527FH   LINE      CODE     ---       #563
      00FF5292H   LINE      CODE     ---       #564
      ---         BLOCKEND  ---      ---       LVL=0

      00FF5CC8H   BLOCK     CODE     ---       LVL=0
      R10         REGSYM    ---      BYTE      vhv_init_byte
      00FF5CCCH   BLOCK     CODE     NEAR LAB  LVL=1
      R15         REGSYM    ---      BYTE      return_state
      00000418H   SYMBOL    EDATA    BYTE      data_buffer
      00000419H   SYMBOL    EDATA    WORD      loop_count
      ---         BLOCKEND  ---      ---       LVL=1
      00FF5CC8H   LINE      CODE     ---       #573
      00FF5CCCH   LINE      CODE     ---       #574
      00FF5CCCH   LINE      CODE     ---       #575
      00FF5CCEH   LINE      CODE     ---       #576
      00FF5CD3H   LINE      CODE     ---       #577
      00FF5CD9H   LINE      CODE     ---       #578
      00FF5CD9H   LINE      CODE     ---       #580
      00FF5CE3H   LINE      CODE     ---       #581
      00FF5CE3H   LINE      CODE     ---       #582
      00FF5CE5H   LINE      CODE     ---       #584
      00FF5CEFH   LINE      CODE     ---       #586
      00FF5CF2H   LINE      CODE     ---       #587
      00FF5CF4H   LINE      CODE     ---       #588
      00FF5CF4H   LINE      CODE     ---       #589
      00FF5D06H   LINE      CODE     ---       #591
      00FF5D1AH   LINE      CODE     ---       #592
      00FF5D22H   LINE      CODE     ---       #594
      00FF5D26H   LINE      CODE     ---       #596
      00FF5D26H   LINE      CODE     ---       #597
      00FF5D26H   LINE      CODE     ---       #598
      00FF5D31H   LINE      CODE     ---       #599
      00FF5D3AH   LINE      CODE     ---       #600
      00FF5D3AH   LINE      CODE     ---       #602
      00FF5D3CH   LINE      CODE     ---       #603
      ---         BLOCKEND  ---      ---       LVL=0

      00FF4FF6H   BLOCK     CODE     ---       LVL=0
      DR12        REGSYM    ---      DWORD     budget_us
      00FF4FFAH   BLOCK     CODE     NEAR LAB  LVL=1
      00000418H   SYMBOL    EDATA    BYTE      return_state
      00000419H   SYMBOL    EDATA    ---       data_buffer
      WR6         REGSYM    ---      WORD      dat
      0000041CH   SYMBOL    EDATA    DWORD     used_budget_us
      DR4         REGSYM    ---      DWORD     final_range_timeout_us
      WR6         REGSYM    ---      WORD      final_range_timeout_mclks
      00000420H   SYMBOL    EDATA    ---       enables
      00000425H   SYMBOL    EDATA    ---       timeouts
      ---         BLOCKEND  ---      ---       LVL=1
      00FF4FF6H   LINE      CODE     ---       #616
      00FF4FFAH   LINE      CODE     ---       #617
      00FF4FFAH   LINE      CODE     ---       #618
      00FF4FFFH   LINE      CODE     ---       #620
      00FF4FFFH   LINE      CODE     ---       #628
      00FF4FFFH   LINE      CODE     ---       #630
      00FF5005H   LINE      CODE     ---       #632
      00FF5005H   LINE      CODE     ---       #633
      00FF5008H   LINE      CODE     ---       #634
      00FF5008H   LINE      CODE     ---       #636
      00FF5010H   LINE      CODE     ---       #637
      00FF5017H   LINE      CODE     ---       #638
      00FF5022H   LINE      CODE     ---       #640
      00FF5028H   LINE      CODE     ---       #642
L251 LINKER/LOCATER V4.66.93.0                                                        07/23/2024  16:57:56  PAGE 95


      00FF5038H   LINE      CODE     ---       #643
      00FF5038H   LINE      CODE     ---       #645
      00FF503EH   LINE      CODE     ---       #647
      00FF504AH   LINE      CODE     ---       #648
      00FF504CH   LINE      CODE     ---       #649
      00FF5052H   LINE      CODE     ---       #651
      00FF5064H   LINE      CODE     ---       #652
      00FF5064H   LINE      CODE     ---       #654
      00FF506AH   LINE      CODE     ---       #656
      00FF507CH   LINE      CODE     ---       #657
      00FF507CH   LINE      CODE     ---       #659
      00FF5082H   LINE      CODE     ---       #664
      00FF508EH   LINE      CODE     ---       #665
      00FF5096H   LINE      CODE     ---       #668
      00FF509CH   LINE      CODE     ---       #669
      00FF509EH   LINE      CODE     ---       #670
      00FF509EH   LINE      CODE     ---       #675
      00FF50A2H   LINE      CODE     ---       #676
      00FF50A9H   LINE      CODE     ---       #680
      00FF50AFH   LINE      CODE     ---       #682
      00FF50B5H   LINE      CODE     ---       #683
      00FF50B5H   LINE      CODE     ---       #685
      00FF50B8H   LINE      CODE     ---       #686
      00FF50BEH   LINE      CODE     ---       #687
      00FF50C2H   LINE      CODE     ---       #688
      00FF50C6H   LINE      CODE     ---       #689
      00FF50D3H   LINE      CODE     ---       #690
      00FF50D3H   LINE      CODE     ---       #692
      00FF50D7H   LINE      CODE     ---       #693
      ---         BLOCKEND  ---      ---       LVL=0

      00FF5DB5H   BLOCK     CODE     ---       LVL=0
      00FF5DB7H   BLOCK     CODE     NEAR LAB  LVL=1
      00000418H   SYMBOL    EDATA    ---       enables
      0000041DH   SYMBOL    EDATA    ---       timeouts
      DR12        REGSYM    ---      DWORD     budget_us
      ---         BLOCKEND  ---      ---       LVL=1
      00FF5DB5H   LINE      CODE     ---       #702
      00FF5DB7H   LINE      CODE     ---       #703
      00FF5DB7H   LINE      CODE     ---       #708
      00FF5DBBH   LINE      CODE     ---       #710
      00FF5DC2H   LINE      CODE     ---       #711
      00FF5DCDH   LINE      CODE     ---       #713
      00FF5DD3H   LINE      CODE     ---       #715
      00FF5DDFH   LINE      CODE     ---       #716
      00FF5DDFH   LINE      CODE     ---       #718
      00FF5DE5H   LINE      CODE     ---       #720
      00FF5DF1H   LINE      CODE     ---       #721
      00FF5DF3H   LINE      CODE     ---       #722
      00FF5DF9H   LINE      CODE     ---       #724
      00FF5E03H   LINE      CODE     ---       #725
      00FF5E03H   LINE      CODE     ---       #727
      00FF5E09H   LINE      CODE     ---       #729
      00FF5E13H   LINE      CODE     ---       #730
      00FF5E13H   LINE      CODE     ---       #732
      00FF5E19H   LINE      CODE     ---       #734
      00FF5E23H   LINE      CODE     ---       #735
      00FF5E23H   LINE      CODE     ---       #737
      00FF5E25H   LINE      CODE     ---       #738
      ---         BLOCKEND  ---      ---       LVL=0

      00FF69EAH   BLOCK     CODE     ---       LVL=0
      DR4         REGSYM    ---      FLOAT     limit_mcps
      00000418H   SYMBOL    EDATA    ---       data_buffer
      WR6         REGSYM    ---      WORD      limit_mcps_16bit
L251 LINKER/LOCATER V4.66.93.0                                                        07/23/2024  16:57:56  PAGE 96


      00FF69EAH   LINE      CODE     ---       #751
      00FF69EAH   LINE      CODE     ---       #752
      00FF69EAH   LINE      CODE     ---       #754
      00FF69F6H   LINE      CODE     ---       #758
      00FF69FCH   LINE      CODE     ---       #759
      00FF6A00H   LINE      CODE     ---       #760
      00FF6A04H   LINE      CODE     ---       #762
      ---         BLOCKEND  ---      ---       LVL=0

      00FF5E28H   BLOCK     CODE     ---       LVL=0
      00FF5E2AH   BLOCK     CODE     NEAR LAB  LVL=1
      000003FAH   SYMBOL    EDATA    ---       reg_databuffer
      WR14        REGSYM    ---      WORD      distance
      ---         BLOCKEND  ---      ---       LVL=1
      00FF5E28H   LINE      CODE     ---       #774
      00FF5E2AH   LINE      CODE     ---       #775
      00FF5E2AH   LINE      CODE     ---       #778
      00FF5E3EH   LINE      CODE     ---       #779
      00FF5E46H   LINE      CODE     ---       #781
      00FF5E4BH   LINE      CODE     ---       #782
      00FF5E4DH   LINE      CODE     ---       #786
      00FF5E61H   LINE      CODE     ---       #787
      00FF5E6FH   LINE      CODE     ---       #788
      00FF5E75H   LINE      CODE     ---       #790
      00FF5E7BH   LINE      CODE     ---       #791
      00FF5E7FH   LINE      CODE     ---       #793
      00FF5E8EH   LINE      CODE     ---       #794
      00FF5E92H   LINE      CODE     ---       #796
      00FF5E92H   LINE      CODE     ---       #797
      ---         BLOCKEND  ---      ---       LVL=0

      00FF229EH   BLOCK     CODE     ---       LVL=0
      00FF22A2H   BLOCK     CODE     NEAR LAB  LVL=1
      00000406H   SYMBOL    EDATA    DWORD     measurement_timing_budget_us
      0000040AH   SYMBOL    EDATA    BYTE      stop_variable
      R15         REGSYM    ---      BYTE      return_state
      R14         REGSYM    ---      BYTE      reg_data_buffer
      0000040BH   SYMBOL    EDATA    ---       ref_spad_map
      00000411H   SYMBOL    EDATA    ---       data_buffer
      R13         REGSYM    ---      BYTE      i
      ---         BLOCKEND  ---      ---       LVL=1
      00FF229EH   LINE      CODE     ---       #808
      00FF22A2H   LINE      CODE     ---       #809
      00FF22A2H   LINE      CODE     ---       #810
      00FF22A2H   LINE      CODE     ---       #811
      00FF22A7H   LINE      CODE     ---       #812
      00FF22A9H   LINE      CODE     ---       #813
      00FF22A9H   LINE      CODE     ---       #816
      00FF22A9H   LINE      CODE     ---       #818
      00FF22B4H   LINE      CODE     ---       #819
      00FF22C0H   LINE      CODE     ---       #823
      00FF22C0H   LINE      CODE     ---       #832
      00FF22CAH   LINE      CODE     ---       #833
      00FF22D7H   LINE      CODE     ---       #835
      00FF22E1H   LINE      CODE     ---       #837
      00FF22ECH   LINE      CODE     ---       #838
      00FF22F7H   LINE      CODE     ---       #839
      00FF2300H   LINE      CODE     ---       #841
      00FF2314H   LINE      CODE     ---       #843
      00FF231EH   LINE      CODE     ---       #844
      00FF2328H   LINE      CODE     ---       #845
      00FF2332H   LINE      CODE     ---       #848
      00FF233CH   LINE      CODE     ---       #849
      00FF2349H   LINE      CODE     ---       #851
      00FF2352H   LINE      CODE     ---       #852
L251 LINKER/LOCATER V4.66.93.0                                                        07/23/2024  16:57:56  PAGE 97


      00FF235DH   LINE      CODE     ---       #856
      00FF236AH   LINE      CODE     ---       #858
      00FF236DH   LINE      CODE     ---       #863
      00FF2378H   LINE      CODE     ---       #864
      00FF237BH   LINE      CODE     ---       #865
      00FF237BH   LINE      CODE     ---       #868
      00FF238FH   LINE      CODE     ---       #870
      00FF239AH   LINE      CODE     ---       #871
      00FF23A4H   LINE      CODE     ---       #872
      00FF23AFH   LINE      CODE     ---       #873
      00FF23B9H   LINE      CODE     ---       #874
      00FF23C4H   LINE      CODE     ---       #876
      00FF23D5H   LINE      CODE     ---       #877
      00FF23D7H   LINE      CODE     ---       #879
      00FF23E9H   LINE      CODE     ---       #884
      00FF2417H   LINE      CODE     ---       #885
      00FF2419H   LINE      CODE     ---       #886
      00FF243CH   LINE      CODE     ---       #888
      00FF2445H   LINE      CODE     ---       #889
      00FF244CH   LINE      CODE     ---       #892
      00FF2452H   LINE      CODE     ---       #893
      00FF2455H   LINE      CODE     ---       #895
      00FF245FH   LINE      CODE     ---       #896
      00FF2466H   LINE      CODE     ---       #897
      00FF2473H   LINE      CODE     ---       #900
      00FF247EH   LINE      CODE     ---       #901
      00FF2487H   LINE      CODE     ---       #902
      00FF2491H   LINE      CODE     ---       #903
      00FF249BH   LINE      CODE     ---       #904
      00FF24A5H   LINE      CODE     ---       #905
      00FF24AFH   LINE      CODE     ---       #906
      00FF24BAH   LINE      CODE     ---       #907
      00FF24C5H   LINE      CODE     ---       #908
      00FF24CFH   LINE      CODE     ---       #909
      00FF24DAH   LINE      CODE     ---       #910
      00FF24E5H   LINE      CODE     ---       #911
      00FF24EFH   LINE      CODE     ---       #912
      00FF24FAH   LINE      CODE     ---       #913
      00FF2504H   LINE      CODE     ---       #914
      00FF250FH   LINE      CODE     ---       #915
      00FF2519H   LINE      CODE     ---       #916
      00FF2524H   LINE      CODE     ---       #917
      00FF252FH   LINE      CODE     ---       #918
      00FF253AH   LINE      CODE     ---       #919
      00FF2545H   LINE      CODE     ---       #920
      00FF254FH   LINE      CODE     ---       #921
      00FF2559H   LINE      CODE     ---       #922
      00FF2564H   LINE      CODE     ---       #923
      00FF256EH   LINE      CODE     ---       #924
      00FF2579H   LINE      CODE     ---       #925
      00FF2584H   LINE      CODE     ---       #926
      00FF258FH   LINE      CODE     ---       #927
      00FF2599H   LINE      CODE     ---       #928
      00FF25A3H   LINE      CODE     ---       #929
      00FF25ADH   LINE      CODE     ---       #930
      00FF25B7H   LINE      CODE     ---       #931
      00FF25C2H   LINE      CODE     ---       #932
      00FF25CDH   LINE      CODE     ---       #933
      00FF25D8H   LINE      CODE     ---       #934
      00FF25E3H   LINE      CODE     ---       #935
      00FF25EEH   LINE      CODE     ---       #936
      00FF25F8H   LINE      CODE     ---       #937
      00FF2602H   LINE      CODE     ---       #938
      00FF260DH   LINE      CODE     ---       #939
      00FF2617H   LINE      CODE     ---       #940
L251 LINKER/LOCATER V4.66.93.0                                                        07/23/2024  16:57:56  PAGE 98


      00FF2622H   LINE      CODE     ---       #941
      00FF262DH   LINE      CODE     ---       #942
      00FF2638H   LINE      CODE     ---       #943
      00FF2642H   LINE      CODE     ---       #944
      00FF264DH   LINE      CODE     ---       #945
      00FF2658H   LINE      CODE     ---       #946
      00FF2663H   LINE      CODE     ---       #947
      00FF266EH   LINE      CODE     ---       #948
      00FF2679H   LINE      CODE     ---       #949
      00FF2684H   LINE      CODE     ---       #950
      00FF268FH   LINE      CODE     ---       #951
      00FF2699H   LINE      CODE     ---       #952
      00FF26A4H   LINE      CODE     ---       #953
      00FF26AFH   LINE      CODE     ---       #954
      00FF26BAH   LINE      CODE     ---       #955
      00FF26C5H   LINE      CODE     ---       #956
      00FF26D0H   LINE      CODE     ---       #957
      00FF26DBH   LINE      CODE     ---       #958
      00FF26E6H   LINE      CODE     ---       #959
      00FF26F0H   LINE      CODE     ---       #960
      00FF26FAH   LINE      CODE     ---       #961
      00FF2705H   LINE      CODE     ---       #962
      00FF2710H   LINE      CODE     ---       #963
      00FF271BH   LINE      CODE     ---       #964
      00FF2725H   LINE      CODE     ---       #965
      00FF2730H   LINE      CODE     ---       #966
      00FF273BH   LINE      CODE     ---       #967
      00FF2746H   LINE      CODE     ---       #968
      00FF2750H   LINE      CODE     ---       #969
      00FF275AH   LINE      CODE     ---       #970
      00FF2765H   LINE      CODE     ---       #971
      00FF2770H   LINE      CODE     ---       #972
      00FF277AH   LINE      CODE     ---       #973
      00FF2785H   LINE      CODE     ---       #974
      00FF2790H   LINE      CODE     ---       #975
      00FF279BH   LINE      CODE     ---       #976
      00FF27A6H   LINE      CODE     ---       #977
      00FF27B0H   LINE      CODE     ---       #978
      00FF27BAH   LINE      CODE     ---       #979
      00FF27C4H   LINE      CODE     ---       #982
      00FF27CFH   LINE      CODE     ---       #983
      00FF27D9H   LINE      CODE     ---       #984
      00FF27E6H   LINE      CODE     ---       #985
      00FF27F1H   LINE      CODE     ---       #987
      00FF27F8H   LINE      CODE     ---       #992
      00FF2803H   LINE      CODE     ---       #993
      00FF280AH   LINE      CODE     ---       #996
      00FF2815H   LINE      CODE     ---       #997
      00FF281CH   LINE      CODE     ---       #999
      00FF281CH   LINE      CODE     ---       #1000
      00FF281EH   LINE      CODE     ---       #1001
      00FF281EH   LINE      CODE     ---       #1002
      00FF2829H   LINE      CODE     ---       #1003
      00FF282FH   LINE      CODE     ---       #1005
      00FF2832H   LINE      CODE     ---       #1006
      00FF2834H   LINE      CODE     ---       #1007
      00FF2834H   LINE      CODE     ---       #1008
      00FF283FH   LINE      CODE     ---       #1010
      00FF2846H   LINE      CODE     ---       #1012
      00FF2851H   LINE      CODE     ---       #1013
      00FF285CH   LINE      CODE     ---       #1014
      00FF2865H   LINE      CODE     ---       #1015
      00FF2871H   LINE      CODE     ---       #1016
      00FF287BH   LINE      CODE     ---       #1017
      00FF2885H   LINE      CODE     ---       #1018
L251 LINKER/LOCATER V4.66.93.0                                                        07/23/2024  16:57:56  PAGE 99


      00FF288FH   LINE      CODE     ---       #1020
      00FF2899H   LINE      CODE     ---       #1021
      00FF2899H   LINE      CODE     ---       #1023
      00FF289BH   LINE      CODE     ---       #1024
      ---         BLOCKEND  ---      ---       LVL=0

      ---         MODULE    ---      ---       Element
      00FF6513H   PUBLIC    CODE     ---       Elem_Up_Down
      00FF4B23H   PUBLIC    CODE     ---       Elem_Barrier
      00FF4017H   PUBLIC    CODE     ---       Elem_Circle
      000006E7H   PUBLIC    EDATA    CHAR      Special_Elem
      000006E8H   PUBLIC    EDATA    CHAR      Barrier_Flag1
      000006E9H   PUBLIC    EDATA    INT       Circle_Delay2
      000006EBH   PUBLIC    EDATA    CHAR      Barrier_Flag2
      000006ECH   PUBLIC    EDATA    CHAR      Barrier_Flag3
      000006EDH   PUBLIC    EDATA    FLOAT     Circle_Flag1
      000006F1H   PUBLIC    EDATA    FLOAT     Circle_Flag2
      000006F5H   PUBLIC    EDATA    CHAR      Circle_Flag3
      000006F6H   PUBLIC    EDATA    CHAR      Barrier_Executed
      000006F7H   PUBLIC    EDATA    CHAR      Down_Flag
      000006F8H   PUBLIC    EDATA    INT       circle_Delay1
      000000D0H   SFRSYM    DATA     BYTE      PSW
      000000B7H   SFRSYM    DATA     BYTE      IPH
      00000088H   SFRSYM    DATA     BYTE      TCON
      00000098H   SFRSYM    DATA     BYTE      SCON
      000000BCH   SFRSYM    DATA     BYTE      ADC_CONTR
      000000DEH   SFRSYM    DATA     BYTE      ADCCFG
      000000B8H   SFRSYM    DATA     BYTE      IP
      000000A8H   SFRSYM    DATA     BYTE      IE
      000000F8H   SFRSYM    DATA     BYTE      P7
      000000E8H   SFRSYM    DATA     BYTE      P6
      000000C8H   SFRSYM    DATA     BYTE      P5
      000000C0H   SFRSYM    DATA     BYTE      P4
      000000B0H   SFRSYM    DATA     BYTE      P3
      000000A0H   SFRSYM    DATA     BYTE      P2
      00000090H   SFRSYM    DATA     BYTE      P1
      00000080H   SFRSYM    DATA     BYTE      P0

      00FF6513H   BLOCK     CODE     ---       LVL=0
      DR28        REGSYM    ---      FLOAT     Angle
      00FF6515H   BLOCK     CODE     NEAR LAB  LVL=1
      000006FAH   SYMBOL    EDATA    CHAR      Elem_Over
      ---         BLOCKEND  ---      ---       LVL=1
      00FF6513H   LINE      CODE     ---       #31
      00FF6515H   LINE      CODE     ---       #32
      00FF6515H   LINE      CODE     ---       #34
      00FF6520H   LINE      CODE     ---       #35
      00FF652BH   LINE      CODE     ---       #36
      00FF6538H   LINE      CODE     ---       #38
      00FF653EH   LINE      CODE     ---       #39
      00FF6544H   LINE      CODE     ---       #41
      00FF654AH   LINE      CODE     ---       #42
      00FF6553H   LINE      CODE     ---       #43
      00FF6553H   LINE      CODE     ---       #46
      ---         BLOCKEND  ---      ---       LVL=0

      00FF4B23H   BLOCK     CODE     ---       LVL=0
      DR28        REGSYM    ---      FLOAT     Gyro_Z
      DR24        REGSYM    ---      FLOAT     Speed
      00FF4B25H   BLOCK     CODE     NEAR LAB  LVL=1
      000006FBH   SYMBOL    EDATA    FLOAT     Dis_Bar
      000006FFH   SYMBOL    EDATA    FLOAT     Sum_Angle_Bar
      00000703H   SYMBOL    EDATA    CHAR      Turn_Flag
      ---         BLOCKEND  ---      ---       LVL=1
      00FF4B23H   LINE      CODE     ---       #103
L251 LINKER/LOCATER V4.66.93.0                                                        07/23/2024  16:57:56  PAGE 100


      00FF4B25H   LINE      CODE     ---       #104
      00FF4B25H   LINE      CODE     ---       #109
      00FF4B39H   LINE      CODE     ---       #112
      00FF4B46H   LINE      CODE     ---       #114
      00FF4B5EH   LINE      CODE     ---       #115
      00FF4B6BH   LINE      CODE     ---       #116
      00FF4B77H   LINE      CODE     ---       #117
      00FF4B77H   LINE      CODE     ---       #118
      00FF4B97H   LINE      CODE     ---       #120
      00FF4B9DH   LINE      CODE     ---       #121
      00FF4BA2H   LINE      CODE     ---       #122
      00FF4BA8H   LINE      CODE     ---       #123
      00FF4BA8H   LINE      CODE     ---       #124
      00FF4BAFH   LINE      CODE     ---       #126
      00FF4BC5H   LINE      CODE     ---       #127
      00FF4BD2H   LINE      CODE     ---       #128
      00FF4BF0H   LINE      CODE     ---       #130
      00FF4BF6H   LINE      CODE     ---       #131
      00FF4BF8H   LINE      CODE     ---       #133
      00FF4C04H   LINE      CODE     ---       #134
      00FF4C04H   LINE      CODE     ---       #161
      00FF4C0BH   LINE      CODE     ---       #163
      00FF4C11H   LINE      CODE     ---       #164
      00FF4C15H   LINE      CODE     ---       #165
      00FF4C1AH   LINE      CODE     ---       #166
      00FF4C1EH   LINE      CODE     ---       #167
      00FF4C24H   LINE      CODE     ---       #169
      00FF4C29H   LINE      CODE     ---       #170
      ---         BLOCKEND  ---      ---       LVL=0

      00FF4017H   BLOCK     CODE     ---       LVL=0
      DR24        REGSYM    ---      FLOAT     Speed
      DR28        REGSYM    ---      FLOAT     Gyro_Z
      00FF401DH   BLOCK     CODE     NEAR LAB  LVL=1
      00000704H   SYMBOL    EDATA    CHAR      Elem_Over
      00000705H   SYMBOL    EDATA    FLOAT     Sum_Dis1
      00000709H   SYMBOL    EDATA    FLOAT     Sum_Angle_C1
      ---         BLOCKEND  ---      ---       LVL=1
      00FF4017H   LINE      CODE     ---       #175
      00FF401DH   LINE      CODE     ---       #176
      00FF401DH   LINE      CODE     ---       #180
      00FF4027H   LINE      CODE     ---       #182
      00FF402DH   LINE      CODE     ---       #183
      00FF4031H   LINE      CODE     ---       #184
      00FF4037H   LINE      CODE     ---       #186
      00FF4040H   LINE      CODE     ---       #187
      00FF4051H   LINE      CODE     ---       #188
      00FF4056H   LINE      CODE     ---       #189
      00FF4069H   LINE      CODE     ---       #191
      00FF4069H   LINE      CODE     ---       #192
      00FF4071H   LINE      CODE     ---       #193
      00FF4074H   LINE      CODE     ---       #194
      00FF4074H   LINE      CODE     ---       #196
      00FF4088H   LINE      CODE     ---       #198
      00FF4092H   LINE      CODE     ---       #199
      00FF40A8H   LINE      CODE     ---       #200
      00FF40BEH   LINE      CODE     ---       #202
      00FF40D6H   LINE      CODE     ---       #204
      00FF40FFH   LINE      CODE     ---       #206
      00FF4103H   LINE      CODE     ---       #207
      00FF4103H   LINE      CODE     ---       #208
      00FF4105H   LINE      CODE     ---       #209
      00FF4128H   LINE      CODE     ---       #211
      00FF4132H   LINE      CODE     ---       #212
      00FF413AH   LINE      CODE     ---       #213
L251 LINKER/LOCATER V4.66.93.0                                                        07/23/2024  16:57:56  PAGE 101


      00FF413AH   LINE      CODE     ---       #215
      00FF4147H   LINE      CODE     ---       #217
      00FF4161H   LINE      CODE     ---       #219
      00FF4169H   LINE      CODE     ---       #220
      00FF416BH   LINE      CODE     ---       #221
      00FF4185H   LINE      CODE     ---       #223
      00FF4191H   LINE      CODE     ---       #224
      00FF4193H   LINE      CODE     ---       #227
      00FF419EH   LINE      CODE     ---       #229
      00FF41BCH   LINE      CODE     ---       #231
      00FF41E7H   LINE      CODE     ---       #233
      00FF41EFH   LINE      CODE     ---       #234
      00FF41F5H   LINE      CODE     ---       #235
      00FF41F9H   LINE      CODE     ---       #236
      00FF41FDH   LINE      CODE     ---       #237
      00FF4201H   LINE      CODE     ---       #238
      00FF4207H   LINE      CODE     ---       #240
      00FF420DH   LINE      CODE     ---       #241
      00FF4216H   LINE      CODE     ---       #242
      00FF4216H   LINE      CODE     ---       #244
      00FF4216H   LINE      CODE     ---       #245
      00FF4218H   LINE      CODE     ---       #248
      00FF421EH   LINE      CODE     ---       #249
      00FF4222H   LINE      CODE     ---       #250
      00FF4226H   LINE      CODE     ---       #251
      00FF4226H   LINE      CODE     ---       #252
      ---         BLOCKEND  ---      ---       LVL=0

      ---         MODULE    ---      ---       Buzzer
      00FF6C51H   PUBLIC    CODE     ---       Buzzer_Init
      00000768H   PUBLIC    EDATA    WORD      x10_ms
      000000D0H   SFRSYM    DATA     BYTE      PSW
      000000B7H   SFRSYM    DATA     BYTE      IPH
      00000088H   SFRSYM    DATA     BYTE      TCON
      00000098H   SFRSYM    DATA     BYTE      SCON
      000000BCH   SFRSYM    DATA     BYTE      ADC_CONTR
      000000DEH   SFRSYM    DATA     BYTE      ADCCFG
      000000B8H   SFRSYM    DATA     BYTE      IP
      000000A8H   SFRSYM    DATA     BYTE      IE
      000000F8H   SFRSYM    DATA     BYTE      P7
      000000E8H   SFRSYM    DATA     BYTE      P6
      000000C8H   SFRSYM    DATA     BYTE      P5
      000000C0H   SFRSYM    DATA     BYTE      P4
      000000B0H   SFRSYM    DATA     BYTE      P3
      000000A0H   SFRSYM    DATA     BYTE      P2
      00000090H   SFRSYM    DATA     BYTE      P1
      00000080H   SFRSYM    DATA     BYTE      P0

      00FF6C51H   BLOCK     CODE     ---       LVL=0
      00FF6C51H   LINE      CODE     ---       #12
      00FF6C51H   LINE      CODE     ---       #14
      ---         BLOCKEND  ---      ---       LVL=0

      ---         MODULE    ---      ---       Key
      00FF6A36H   PUBLIC    CODE     ---       Key_Init
      00FF5D3FH   PUBLIC    CODE     ---       GetKey_Value
      00000763H   PUBLIC    EDATA    CHAR      Mode
      00000764H   PUBLIC    EDATA    CHAR      clear_Num
      000000D0H   SFRSYM    DATA     BYTE      PSW
      000000B7H   SFRSYM    DATA     BYTE      IPH
      000000F8H.3 SFRSYM    DATA     BIT       P73
      000000F8H.2 SFRSYM    DATA     BIT       P72
      000000F8H.1 SFRSYM    DATA     BIT       P71
      000000F8H.0 SFRSYM    DATA     BIT       P70
      00000088H   SFRSYM    DATA     BYTE      TCON
L251 LINKER/LOCATER V4.66.93.0                                                        07/23/2024  16:57:56  PAGE 102


      00000098H   SFRSYM    DATA     BYTE      SCON
      000000BCH   SFRSYM    DATA     BYTE      ADC_CONTR
      000000DEH   SFRSYM    DATA     BYTE      ADCCFG
      000000B8H   SFRSYM    DATA     BYTE      IP
      000000A8H   SFRSYM    DATA     BYTE      IE
      000000F8H   SFRSYM    DATA     BYTE      P7
      000000E8H   SFRSYM    DATA     BYTE      P6
      000000C8H   SFRSYM    DATA     BYTE      P5
      000000C0H   SFRSYM    DATA     BYTE      P4
      000000B0H   SFRSYM    DATA     BYTE      P3
      000000A0H   SFRSYM    DATA     BYTE      P2
      00000090H   SFRSYM    DATA     BYTE      P1
      00000080H   SFRSYM    DATA     BYTE      P0

      00FF6A36H   BLOCK     CODE     ---       LVL=0
      00FF6A36H   LINE      CODE     ---       #12
      00FF6A36H   LINE      CODE     ---       #15
      00FF6A3FH   LINE      CODE     ---       #16
      00FF6A48H   LINE      CODE     ---       #17
      00FF6A51H   LINE      CODE     ---       #18
      ---         BLOCKEND  ---      ---       LVL=0

      00FF5D3FH   BLOCK     CODE     ---       LVL=0
      R7          REGSYM    ---      BYTE      mode
      00FF5D41H   BLOCK     CODE     NEAR LAB  LVL=1
      00000765H   SYMBOL    EDATA    BYTE      key_up
      ---         BLOCKEND  ---      ---       LVL=1
      00FF5D3FH   LINE      CODE     ---       #30
      00FF5D41H   LINE      CODE     ---       #31
      00FF5D41H   LINE      CODE     ---       #33
      00FF5D45H   LINE      CODE     ---       #34
      00FF5D4BH   LINE      CODE     ---       #35
      00FF5D69H   LINE      CODE     ---       #38
      00FF5D6EH   LINE      CODE     ---       #39
      00FF5D76H   LINE      CODE     ---       #40
      00FF5D7FH   LINE      CODE     ---       #41
      00FF5D88H   LINE      CODE     ---       #42
      00FF5D91H   LINE      CODE     ---       #43
      00FF5D91H   LINE      CODE     ---       #44
      00FF5DADH   LINE      CODE     ---       #45
      00FF5DB3H   LINE      CODE     ---       #46
      00FF5DB4H   LINE      CODE     ---       #47
      ---         BLOCKEND  ---      ---       LVL=0

      ---         MODULE    ---      ---       UI
      00FF6D5BH   PUBLIC    CODE     ---       ui_show
      00FF64D1H   PUBLIC    CODE     ---       oled_all_static_state
      00FF4E1EH   PUBLIC    CODE     ---       value_name_init
      00FF644CH   PUBLIC    CODE     ---       oled_show
      00FF5782H   PUBLIC    CODE     ---       refresh_value
      00FF6D23H   PUBLIC    CODE     ---       ui_init
      00000008H   PUBLIC    EDATA    CHAR      page
      00000009H   PUBLIC    EDATA    ---       value
      00000079H   PUBLIC    EDATA    ---       value_name
      000000D0H   SFRSYM    DATA     BYTE      PSW
      000000B7H   SFRSYM    DATA     BYTE      IPH
      00000088H   SFRSYM    DATA     BYTE      TCON
      00000098H   SFRSYM    DATA     BYTE      SCON
      000000BCH   SFRSYM    DATA     BYTE      ADC_CONTR
      000000DEH   SFRSYM    DATA     BYTE      ADCCFG
      000000B8H   SFRSYM    DATA     BYTE      IP
      000000A8H   SFRSYM    DATA     BYTE      IE
      000000F8H   SFRSYM    DATA     BYTE      P7
      000000E8H   SFRSYM    DATA     BYTE      P6
      000000C8H   SFRSYM    DATA     BYTE      P5
L251 LINKER/LOCATER V4.66.93.0                                                        07/23/2024  16:57:56  PAGE 103


      000000C0H   SFRSYM    DATA     BYTE      P4
      000000B0H   SFRSYM    DATA     BYTE      P3
      000000A0H   SFRSYM    DATA     BYTE      P2
      00000090H   SFRSYM    DATA     BYTE      P1
      00000080H   SFRSYM    DATA     BYTE      P0

      00FF4E1EH   BLOCK     CODE     ---       LVL=0
      00FF4E1EH   LINE      CODE     ---       #23
      00FF4E1EH   LINE      CODE     ---       #26
      00FF4E2DH   LINE      CODE     ---       #27
      00FF4E3CH   LINE      CODE     ---       #28
      00FF4E4BH   LINE      CODE     ---       #29
      00FF4E5AH   LINE      CODE     ---       #33
      00FF4E69H   LINE      CODE     ---       #34
      00FF4E78H   LINE      CODE     ---       #35
      00FF4E87H   LINE      CODE     ---       #36
      00FF4E96H   LINE      CODE     ---       #40
      00FF4EA5H   LINE      CODE     ---       #41
      00FF4EB4H   LINE      CODE     ---       #42
      00FF4EC3H   LINE      CODE     ---       #43
      00FF4ED2H   LINE      CODE     ---       #46
      00FF4EE1H   LINE      CODE     ---       #47
      00FF4EF0H   LINE      CODE     ---       #48
      00FF4EFFH   LINE      CODE     ---       #49
      ---         BLOCKEND  ---      ---       LVL=0

      00FF5782H   BLOCK     CODE     ---       LVL=0
      00FF5782H   LINE      CODE     ---       #53
      00FF5782H   LINE      CODE     ---       #56
      00FF5788H   LINE      CODE     ---       #58
      00FF5790H   LINE      CODE     ---       #59
      00FF5798H   LINE      CODE     ---       #60
      00FF57A0H   LINE      CODE     ---       #61
      00FF57A8H   LINE      CODE     ---       #62
      00FF57A9H   LINE      CODE     ---       #63
      00FF57ACH   LINE      CODE     ---       #66
      00FF57B4H   LINE      CODE     ---       #67
      00FF57BCH   LINE      CODE     ---       #68
      00FF57C4H   LINE      CODE     ---       #69
      00FF57CCH   LINE      CODE     ---       #70
      00FF57CDH   LINE      CODE     ---       #71
      00FF57D0H   LINE      CODE     ---       #74
      00FF57D8H   LINE      CODE     ---       #75
      00FF57E0H   LINE      CODE     ---       #76
      00FF57E8H   LINE      CODE     ---       #77
      00FF57F0H   LINE      CODE     ---       #78
      00FF57F1H   LINE      CODE     ---       #79
      00FF57F4H   LINE      CODE     ---       #82
      00FF57FCH   LINE      CODE     ---       #83
      00FF5809H   LINE      CODE     ---       #84
      00FF5811H   LINE      CODE     ---       #85
      00FF5817H   LINE      CODE     ---       #86
      ---         BLOCKEND  ---      ---       LVL=0
      WR30        REGSYM    ---      INT       pages
      WR8         REGSYM    ---      INT       y
      DR24        REGSYM    ---      FLOAT     value_new

      00FF64D1H   BLOCK     CODE     ---       LVL=0
      00FF64D3H   BLOCK     CODE     NEAR LAB  LVL=1
      R14         REGSYM    ---      BYTE      i
      R15         REGSYM    ---      BYTE      j
      ---         BLOCKEND  ---      ---       LVL=1
      00FF64D1H   LINE      CODE     ---       #97
      00FF64D3H   LINE      CODE     ---       #98
      00FF64D3H   LINE      CODE     ---       #106
L251 LINKER/LOCATER V4.66.93.0                                                        07/23/2024  16:57:56  PAGE 104


      00FF64D5H   LINE      CODE     ---       #108
      00FF64DBH   LINE      CODE     ---       #109
      00FF64FAH   LINE      CODE     ---       #110
      00FF6509H   LINE      CODE     ---       #111
      00FF6510H   LINE      CODE     ---       #112
      ---         BLOCKEND  ---      ---       LVL=0

      00FF644CH   BLOCK     CODE     ---       LVL=0
      00FF644EH   BLOCK     CODE     NEAR LAB  LVL=1
      R14         REGSYM    ---      BYTE      i
      R15         REGSYM    ---      BYTE      j
      ---         BLOCKEND  ---      ---       LVL=1
      00FF644CH   LINE      CODE     ---       #115
      00FF644EH   LINE      CODE     ---       #116
      00FF644EH   LINE      CODE     ---       #118
      00FF6451H   LINE      CODE     ---       #119
      00FF6453H   LINE      CODE     ---       #121
      00FF6459H   LINE      CODE     ---       #122
      00FF6485H   LINE      CODE     ---       #123
      00FF648CH   LINE      CODE     ---       #124
      ---         BLOCKEND  ---      ---       LVL=0

      00FF6D23H   BLOCK     CODE     ---       LVL=0
      00FF6D23H   LINE      CODE     ---       #127
      00FF6D23H   LINE      CODE     ---       #129
      00FF6D26H   LINE      CODE     ---       #130
      00FF6D29H   LINE      CODE     ---       #131
      ---         BLOCKEND  ---      ---       LVL=0

      00FF6D5BH   BLOCK     CODE     ---       LVL=0
      00FF6D5BH   LINE      CODE     ---       #134
      00FF6D5BH   LINE      CODE     ---       #136
      00FF6D5EH   LINE      CODE     ---       #137
      ---         BLOCKEND  ---      ---       LVL=0

      ---         MODULE    ---      ---       HCSR04
      00000721H   PUBLIC    EDATA    INT       time
      000000D0H   SFRSYM    DATA     BYTE      PSW
      000000B7H   SFRSYM    DATA     BYTE      IPH
      000000B0H.3 SFRSYM    DATA     BIT       P33
      00000088H   SFRSYM    DATA     BYTE      TCON
      000000B0H.2 SFRSYM    DATA     BIT       P32
      00000098H   SFRSYM    DATA     BYTE      SCON
      000000BCH   SFRSYM    DATA     BYTE      ADC_CONTR
      000000DEH   SFRSYM    DATA     BYTE      ADCCFG
      000000B8H   SFRSYM    DATA     BYTE      IP
      000000A8H   SFRSYM    DATA     BYTE      IE
      000000F8H   SFRSYM    DATA     BYTE      P7
      000000E8H   SFRSYM    DATA     BYTE      P6
      000000C8H   SFRSYM    DATA     BYTE      P5
      000000C0H   SFRSYM    DATA     BYTE      P4
      000000B0H   SFRSYM    DATA     BYTE      P3
      000000A0H   SFRSYM    DATA     BYTE      P2
      00000090H   SFRSYM    DATA     BYTE      P1
      00000080H   SFRSYM    DATA     BYTE      P0
      00000723H   SYMBOL    EDATA    FLOAT     Distance_mm
      00000727H   SYMBOL    EDATA    FLOAT     time_end
      0000072BH   SYMBOL    EDATA    INT       i
      0000072DH   SYMBOL    EDATA    INT       j

      ---         MODULE    ---      ---       ?C?FPADD
      00FF0EB4H   PUBLIC    CODE     ---       ?C?FPADD
      00FF0EB1H   PUBLIC    CODE     ---       ?C?FPSUB

      ---         MODULE    ---      ---       ?C?FPMUL
L251 LINKER/LOCATER V4.66.93.0                                                        07/23/2024  16:57:56  PAGE 105


      00FF0F6CH   PUBLIC    CODE     ---       ?C?FPMUL

      ---         MODULE    ---      ---       ?C?FPDIV
      00FF100CH   PUBLIC    CODE     ---       ?C?FPDIV

      ---         MODULE    ---      ---       ?C?FPCMP
      00FF108FH   PUBLIC    CODE     ---       ?C?FPCMP
      00FF108DH   PUBLIC    CODE     ---       ?C?FPCMP3

      ---         MODULE    ---      ---       ?C?FPNEG
      00FF10D3H   PUBLIC    CODE     ---       ?C?FPNEG

      ---         MODULE    ---      ---       ?C?FCAST
      00FF10EBH   PUBLIC    CODE     NEAR LAB  ?C?FCASTC
      00FF10E6H   PUBLIC    CODE     NEAR LAB  ?C?FCASTI
      00FF10E1H   PUBLIC    CODE     NEAR LAB  ?C?FCASTL

      ---         MODULE    ---      ---       ?C?CASTF
      00FF111EH   PUBLIC    CODE     NEAR LAB  ?C?CASTF

      ---         MODULE    ---      ---       PRINTF
      00000440H   PUBLIC    EDATA    ---       ?PRINTF?BYTE
      00FF115BH   PUBLIC    CODE     NEAR LAB  PRINTF

      ---         MODULE    ---      ---       SQRT?_
      00FF1187H   PUBLIC    CODE     ---       SQRT?_

      ---         MODULE    ---      ---       ASIN?_
      00FF1217H   PUBLIC    CODE     ---       ASIN?_

      ---         MODULE    ---      ---       atan2
      00FF63C3H   PUBLIC    CODE     ---       atan2?_

      ---         MODULE    ---      ---       ?C?FPGETOPN
      00FF1237H   PUBLIC    CODE     ---       ?C?FPGETOPN2
      00FF1274H   PUBLIC    CODE     ---       ?C?FPNANRESULT
      00FF127CH   PUBLIC    CODE     ---       ?C?FPOVERFLOW
      00FF1250H   PUBLIC    CODE     ---       ?C?FPRESULT
      00FF1266H   PUBLIC    CODE     ---       ?C?FPRESULT2
      00FF1279H   PUBLIC    CODE     ---       ?C?FPUNDERFLOW

      ---         MODULE    ---      ---       ?C?PRNFMT
      00FF12B5H   PUBLIC    CODE     ---       ?C?PRNFMT

      ---         MODULE    ---      ---       ATAN?_
      00FF16E4H   PUBLIC    CODE     ---       ATAN?_

      ---         MODULE    ---      ---       ?C?FPCONVERT
      00FF17C4H   PUBLIC    CODE     ---       ?C?FPCONVERT
      00FF187CH   PUBLIC    CODE     ---       ?C?FPROUND

      ---         MODULE    ---      ---       ?C?FPSERIES
      00FF18BFH   PUBLIC    CODE     ---       ?C?FP2SERIES
      00FF18C8H   PUBLIC    CODE     ---       ?C?FPSERIES

      ---         MODULE    ---      ---       ?C?FTNPWR
      00FF191CH   PUBLIC    CODE     ---       ?C?FTNPWR

      ---         MODULE    ---      ---       ?C_START
      00FF0000H   PUBLIC    CODE     ---       ?C?STARTUP
      00FF0000H   PUBLIC    CODE     ---       ?C_STARTUP

      ---         MODULE    ---      ---       ?C?INITEDATA
      00FF6567H   PUBLIC    CODE     ---       ?C?INITEDATA

L251 LINKER/LOCATER V4.66.93.0                                                        07/23/2024  16:57:56  PAGE 106


      ---         MODULE    ---      ---       ?C?SIDIV
      00FF1953H   PUBLIC    CODE     ---       ?C?SIDIV

      ---         MODULE    ---      ---       ?C?LMUL
      00FF1985H   PUBLIC    CODE     ---       ?C?LMUL

      ---         MODULE    ---      ---       ?C?LIMUL
      00FF1996H   PUBLIC    CODE     ---       ?C?LIMUL

      ---         MODULE    ---      ---       ?C?ULDIV
      00FF19A1H   PUBLIC    CODE     NEAR LAB  ?C?ULDIV
      00FF199FH   PUBLIC    CODE     NEAR LAB  ?C?ULIDIV

      ---         MODULE    ---      ---       ?C?SLDIV
      00FF19F2H   PUBLIC    CODE     NEAR LAB  ?C?SLDIV

      ---         MODULE    ---      ---       ABS
      00FF6C72H   PUBLIC    CODE     ---       abs?_

      ---         MODULE    ---      ---       STRCPY?_
      00FF6BF8H   PUBLIC    CODE     NEAR LAB  STRCPY?_

      ---         MODULE    ---      ---       memcpy
      00FF6A11H   PUBLIC    CODE     ---       memcpy?_

      ---         MODULE    ---      ---       memset
      00FF6B3EH   PUBLIC    CODE     ---       memset?_

      ---         MODULE    ---      ---       ?C?INITEDATA_END
      00FF6F27H   PUBLIC    HCONST   WORD      ?C?INITEDATA_END

Program Size: data=8.0 edata+hdata=2146 xdata=0 const=737 code=27976
L251 RUN COMPLETE.  0 WARNING(S),  0 ERROR(S)
