L251 LINKER/LOCATER V4.66.93.0                                                          07/11/2024  19:40:54  PAGE 1


L251 LINKER/LOCATER V4.66.93.0, INVOKED BY:
D:\KEIL5\KEIL5_MDK\KEIL5_MDK_32\C251\BIN\L251.EXE .\Out_File\board.obj, .\Out_File\common.obj, .\Out_File\SEEKFREE_PRINT
>> F.obj, .\Out_File\zf_adc.obj, .\Out_File\zf_delay.obj, .\Out_File\zf_eeprom.obj, .\Out_File\zf_exti.obj, .\Out_File\z
>> f_gpio.obj, .\Out_File\zf_iic.obj, .\Out_File\zf_nvic.obj, .\Out_File\zf_pwm.obj, .\Out_File\zf_spi.obj, .\Out_File\z
>> f_tim.obj, .\Out_File\zf_uart.obj, .\Out_File\zf_fifo.obj, .\Out_File\SEEKFREE_18TFT.obj, .\Out_File\SEEKFREE_ABSOLUT
>> E_ENCODER.obj, .\Out_File\SEEKFREE_FONT.obj, .\Out_File\SEEKFREE_IIC.obj, .\Out_File\SEEKFREE_MPU6050.obj, .\Out_File
>> \SEEKFREE_OLED.obj, .\Out_File\SEEKFREE_AT24C02.obj, .\Out_File\SEEKFREE_BLUETOOTH_CH9141.obj, .\Out_File\SEEKFREE_IC
>> M20602.obj, .\Out_File\SEEKFREE_IPS114_SPI.obj, .\Out_File\SEEKFREE_TSL1401.obj, .\Out_File\SEEKFREE_VIRSCO.obj, .\Ou
>> t_File\SEEKFREE_WIRELESS.obj, .\Out_File\SEEKFREE_WIRELESS_CH573.obj, .\Out_File\isr.obj, .\Out_File\main.obj, .\Out_
>> File\motor.obj, .\Out_File\ADC.obj, .\Out_File\PID.obj, .\Out_File\MPU6050.obj, .\Out_File\TOF.obj, .\Out_File\Elemen
>> t.obj, .\Out_File\Buzzer.obj, .\Out_File\Key.obj, .\Out_File\UI.obj, .\Out_File\HCSR04.obj TO .\Out_File\SEEKFREE PRI
>> NT (.\Out_File\SEEKFREE.map) CASE DISABLEWARNING (16, 57) REMOVEUNUSED CLASSES (EDATA (0X0-0XFFF), HDATA (0X0-0XFFF))
>> 


CPU MODE:     251 SOURCE MODE
INTR FRAME:   2 BYTES SAVED ON INTERRUPT
MEMORY MODEL: XSMALL WITH FLOATING POINT ARITHMETIC


INPUT MODULES INCLUDED:
  .\Out_File\board.obj (board)
         COMMENT TYPE 0: C251 V5.60.0
  .\Out_File\common.obj (common)
         COMMENT TYPE 0: C251 V5.60.0
  .\Out_File\SEEKFREE_PRINTF.obj (SEEKFREE_PRINTF)
         COMMENT TYPE 0: C251 V5.60.0
  .\Out_File\zf_adc.obj (zf_adc)
         COMMENT TYPE 0: C251 V5.60.0
  .\Out_File\zf_delay.obj (zf_delay)
         COMMENT TYPE 0: C251 V5.60.0
  .\Out_File\zf_eeprom.obj (zf_eeprom)
         COMMENT TYPE 0: C251 V5.60.0
  .\Out_File\zf_exti.obj (zf_exti)
         COMMENT TYPE 0: C251 V5.60.0
  .\Out_File\zf_gpio.obj (zf_gpio)
         COMMENT TYPE 0: C251 V5.60.0
  .\Out_File\zf_iic.obj (zf_iic)
         COMMENT TYPE 0: C251 V5.60.0
  .\Out_File\zf_nvic.obj (zf_nvic)
         COMMENT TYPE 0: C251 V5.60.0
  .\Out_File\zf_pwm.obj (zf_pwm)
         COMMENT TYPE 0: C251 V5.60.0
  .\Out_File\zf_spi.obj (zf_spi)
         COMMENT TYPE 0: C251 V5.60.0
  .\Out_File\zf_tim.obj (zf_tim)
         COMMENT TYPE 0: C251 V5.60.0
  .\Out_File\zf_uart.obj (zf_uart)
         COMMENT TYPE 0: C251 V5.60.0
  .\Out_File\zf_fifo.obj (zf_fifo)
         COMMENT TYPE 0: C251 V5.60.0
  .\Out_File\SEEKFREE_18TFT.obj (SEEKFREE_18TFT)
         COMMENT TYPE 0: C251 V5.60.0
  .\Out_File\SEEKFREE_ABSOLUTE_ENCODER.obj (SEEKFREE_ABSOLUTE_ENCODER)
         COMMENT TYPE 0: C251 V5.60.0
  .\Out_File\SEEKFREE_FONT.obj (SEEKFREE_FONT)
         COMMENT TYPE 0: C251 V5.60.0
  .\Out_File\SEEKFREE_IIC.obj (SEEKFREE_IIC)
         COMMENT TYPE 0: C251 V5.60.0
  .\Out_File\SEEKFREE_MPU6050.obj (SEEKFREE_MPU6050)
         COMMENT TYPE 0: C251 V5.60.0
  .\Out_File\SEEKFREE_OLED.obj (SEEKFREE_OLED)
         COMMENT TYPE 0: C251 V5.60.0
  .\Out_File\SEEKFREE_AT24C02.obj (SEEKFREE_AT24C02)
         COMMENT TYPE 0: C251 V5.60.0
  .\Out_File\SEEKFREE_BLUETOOTH_CH9141.obj (SEEKFREE_BLUETOOTH_CH9141)
L251 LINKER/LOCATER V4.66.93.0                                                        07/11/2024  19:40:54  PAGE 2


         COMMENT TYPE 0: C251 V5.60.0
  .\Out_File\SEEKFREE_ICM20602.obj (SEEKFREE_ICM20602)
         COMMENT TYPE 0: C251 V5.60.0
  .\Out_File\SEEKFREE_IPS114_SPI.obj (SEEKFREE_IPS114_SPI)
         COMMENT TYPE 0: C251 V5.60.0
  .\Out_File\SEEKFREE_TSL1401.obj (SEEKFREE_TSL1401)
         COMMENT TYPE 0: C251 V5.60.0
  .\Out_File\SEEKFREE_VIRSCO.obj (SEEKFREE_VIRSCO)
         COMMENT TYPE 0: C251 V5.60.0
  .\Out_File\SEEKFREE_WIRELESS.obj (SEEKFREE_WIRELESS)
         COMMENT TYPE 0: C251 V5.60.0
  .\Out_File\SEEKFREE_WIRELESS_CH573.obj (SEEKFREE_WIRELESS_CH573)
         COMMENT TYPE 0: C251 V5.60.0
  .\Out_File\isr.obj (isr)
         COMMENT TYPE 0: C251 V5.60.0
  .\Out_File\main.obj (main)
         COMMENT TYPE 0: C251 V5.60.0
  .\Out_File\motor.obj (motor)
         COMMENT TYPE 0: C251 V5.60.0
  .\Out_File\ADC.obj (ADC)
         COMMENT TYPE 0: C251 V5.60.0
  .\Out_File\PID.obj (PID)
         COMMENT TYPE 0: C251 V5.60.0
  .\Out_File\MPU6050.obj (MPU6050)
         COMMENT TYPE 0: C251 V5.60.0
  .\Out_File\TOF.obj (TOF)
         COMMENT TYPE 0: C251 V5.60.0
  .\Out_File\Element.obj (Element)
         COMMENT TYPE 0: C251 V5.60.0
  .\Out_File\Buzzer.obj (Buzzer)
         COMMENT TYPE 0: C251 V5.60.0
  .\Out_File\Key.obj (Key)
         COMMENT TYPE 0: C251 V5.60.0
  .\Out_File\UI.obj (UI)
         COMMENT TYPE 0: C251 V5.60.0
  .\Out_File\HCSR04.obj (HCSR04)
         COMMENT TYPE 0: C251 V5.60.0
  D:\KEIL5\KEIL5_MDK\KEIL5_MDK_32\C251\LIB\C2SFPXS.LIB (?C?FPADD)
         COMMENT TYPE 0: A251 V4.69.6.0
  D:\KEIL5\KEIL5_MDK\KEIL5_MDK_32\C251\LIB\C2SFPXS.LIB (?C?FPMUL)
         COMMENT TYPE 0: A251 V4.69.6.0
  D:\KEIL5\KEIL5_MDK\KEIL5_MDK_32\C251\LIB\C2SFPXS.LIB (?C?FPDIV)
         COMMENT TYPE 0: A251 V4.69.6.0
  D:\KEIL5\KEIL5_MDK\KEIL5_MDK_32\C251\LIB\C2SFPXS.LIB (?C?FPCMP)
         COMMENT TYPE 0: A251 V4.69.6.0
  D:\KEIL5\KEIL5_MDK\KEIL5_MDK_32\C251\LIB\C2SFPXS.LIB (?C?FPNEG)
         COMMENT TYPE 0: A251 V4.69.6.0
  D:\KEIL5\KEIL5_MDK\KEIL5_MDK_32\C251\LIB\C2SFPXS.LIB (?C?FCAST)
         COMMENT TYPE 0: A251 V4.69.6.0
  D:\KEIL5\KEIL5_MDK\KEIL5_MDK_32\C251\LIB\C2SFPXS.LIB (?C?CASTF)
         COMMENT TYPE 0: A251 V4.69.6.0
  D:\KEIL5\KEIL5_MDK\KEIL5_MDK_32\C251\LIB\C2SFPXS.LIB (PRINTF)
         COMMENT TYPE 0: A251 V4.69.6.0
  D:\KEIL5\KEIL5_MDK\KEIL5_MDK_32\C251\LIB\C2SFPXS.LIB (SQRT?_)
         COMMENT TYPE 0: A251 V4.69.6.0
  D:\KEIL5\KEIL5_MDK\KEIL5_MDK_32\C251\LIB\C2SFPXS.LIB (ASIN?_)
         COMMENT TYPE 0: A251 V4.69.6.0
  D:\KEIL5\KEIL5_MDK\KEIL5_MDK_32\C251\LIB\C2SFPXS.LIB (atan2)
         COMMENT TYPE 0: C251 V5.58.7
  D:\KEIL5\KEIL5_MDK\KEIL5_MDK_32\C251\LIB\C2SFPXS.LIB (?C?FPGETOPN)
         COMMENT TYPE 0: A251 V4.69.6.0
  D:\KEIL5\KEIL5_MDK\KEIL5_MDK_32\C251\LIB\C2SFPXS.LIB (?C?PRNFMT)
         COMMENT TYPE 0: A251 V4.69.6.0
  D:\KEIL5\KEIL5_MDK\KEIL5_MDK_32\C251\LIB\C2SFPXS.LIB (ATAN?_)
         COMMENT TYPE 0: A251 V4.69.6.0
L251 LINKER/LOCATER V4.66.93.0                                                        07/11/2024  19:40:54  PAGE 3


  D:\KEIL5\KEIL5_MDK\KEIL5_MDK_32\C251\LIB\C2SFPXS.LIB (?C?FPCONVERT)
         COMMENT TYPE 0: A251 V4.69.6.0
  D:\KEIL5\KEIL5_MDK\KEIL5_MDK_32\C251\LIB\C2SFPXS.LIB (?C?FPSERIES)
         COMMENT TYPE 0: A251 V4.69.6.0
  D:\KEIL5\KEIL5_MDK\KEIL5_MDK_32\C251\LIB\C2SFPXS.LIB (?C?FTNPWR)
         COMMENT TYPE 0: A251 V4.69.6.0
  D:\KEIL5\KEIL5_MDK\KEIL5_MDK_32\C251\LIB\C2SXS.LIB (?C_START)
         COMMENT TYPE 0: A251 V4.69.6.0
  D:\KEIL5\KEIL5_MDK\KEIL5_MDK_32\C251\LIB\C2SXS.LIB (?C?INITEDATA)
         COMMENT TYPE 0: A251 V4.69.6.0
  D:\KEIL5\KEIL5_MDK\KEIL5_MDK_32\C251\LIB\C2SXS.LIB (?C?SIDIV)
         COMMENT TYPE 0: A251 V4.69.6.0
  D:\KEIL5\KEIL5_MDK\KEIL5_MDK_32\C251\LIB\C2SXS.LIB (?C?LMUL)
         COMMENT TYPE 0: A251 V4.69.6.0
  D:\KEIL5\KEIL5_MDK\KEIL5_MDK_32\C251\LIB\C2SXS.LIB (?C?LIMUL)
         COMMENT TYPE 0: A251 V4.69.6.0
  D:\KEIL5\KEIL5_MDK\KEIL5_MDK_32\C251\LIB\C2SXS.LIB (?C?ULDIV)
         COMMENT TYPE 0: A251 V4.69.6.0
  D:\KEIL5\KEIL5_MDK\KEIL5_MDK_32\C251\LIB\C2SXS.LIB (?C?SLDIV)
         COMMENT TYPE 0: A251 V4.69.6.0
  D:\KEIL5\KEIL5_MDK\KEIL5_MDK_32\C251\LIB\C2SXS.LIB (ABS)
         COMMENT TYPE 0: C251 V5.58.7
  D:\KEIL5\KEIL5_MDK\KEIL5_MDK_32\C251\LIB\C2SXS.LIB (STRCPY?_)
         COMMENT TYPE 0: A251 V4.69.6.0
  D:\KEIL5\KEIL5_MDK\KEIL5_MDK_32\C251\LIB\C2SXS.LIB (memcpy)
         COMMENT TYPE 0: C251 V5.58.7
  D:\KEIL5\KEIL5_MDK\KEIL5_MDK_32\C251\LIB\C2SXS.LIB (memset)
         COMMENT TYPE 0: C251 V5.58.7
  D:\KEIL5\KEIL5_MDK\KEIL5_MDK_32\C251\LIB\C2SXS.LIB (?C?INITEDATA_END)
         COMMENT TYPE 0: A251 V4.69.6.0


ACTIVE MEMORY CLASSES OF MODULE:  .\Out_File\SEEKFREE (board)

BASE        START       END         USED      MEMORY CLASS
==========================================================
000000H     000000H     000FFFH     00085CH   EDATA
000000H     000000H     000FFFH               HDATA
FF0000H     FF0000H     FFFFFFH     006BE3H   CODE
000000H     FF0000H     FFFFFFH     0002B8H   HCONST
FF0000H     FF0000H     FFFFFFH     000004H   CONST
000000H     000000H     00007FH     000008H   DATA


MEMORY MAP OF MODULE:  .\Out_File\SEEKFREE (board)


START     STOP      LENGTH    ALIGN  RELOC    MEMORY CLASS   SEGMENT NAME
=========================================================================
000000H   000007H   000008H   ---    AT..     DATA           "REG BANK 0"
000008H   00013CH   000135H   BYTE   UNIT     EDATA          ?ED?UI
00013DH   00023DH   000101H   BYTE   UNIT     EDATA          ?ED?SEEKFREE_TSL1401
00023EH   000320H   0000E3H   BYTE   UNIT     EDATA          ?ED?PID
000321H   0003EDH   0000CDH   BYTE   UNIT     EDATA          ?ED?ZF_UART
0003EEH   000490H   0000A3H   BYTE   UNIT     EDATA          _EDATA_GROUP_
000491H   0004FBH   00006BH   BYTE   UNIT     EDATA          ?ED?MPU6050
0004FCH   00055DH   000062H   BYTE   UNIT     EDATA          ?ED?ISR
00055EH   0005B2H   000055H   BYTE   UNIT     EDATA          ?ED?SEEKFREE_BLUETOOTH_CH9141
0005B3H   000607H   000055H   BYTE   UNIT     EDATA          ?ED?SEEKFREE_WIRELESS
000608H   00065CH   000055H   BYTE   UNIT     EDATA          ?ED?SEEKFREE_WIRELESS_CH573
00065DH   0006ACH   000050H   BYTE   UNIT     EDATA          ?ED?ADC
0006ADH   0006E7H   00003BH   BYTE   UNIT     EDATA          ?ED?MAIN
0006E8H   000706H   00001FH   BYTE   UNIT     EDATA          ?ED?ELEMENT
000707H   00071AH   000014H   BYTE   UNIT     EDATA          ?ED?MOTOR
00071BH   000728H   00000EH   BYTE   UNIT     EDATA          ?ED?HCSR04
L251 LINKER/LOCATER V4.66.93.0                                                        07/11/2024  19:40:54  PAGE 4


000729H   000734H   00000CH   BYTE   UNIT     EDATA          ?ED?SEEKFREE_MPU6050
000735H   000740H   00000CH   BYTE   UNIT     EDATA          ?ED?SEEKFREE_ICM20602
000741H   00074AH   00000AH   BYTE   UNIT     EDATA          ?ED?SEEKFREE_VIRSCO
00074BH   000751H   000007H   BYTE   UNIT     EDATA          ?ED?SEEKFREE_IIC
000752H   000755H   000004H   BYTE   UNIT     EDATA          ?ED?BOARD
000756H   000759H   000004H   BYTE   UNIT     EDATA          ?ED?ZF_DELAY
00075AH   00075CH   000003H   BYTE   UNIT     EDATA          ?ED?TOF
00075DH   00075FH   000003H   BYTE   UNIT     EDATA          ?ED?KEY
000760H   000761H   000002H   BYTE   UNIT     EDATA          ?ED?COMMON
000762H   000763H   000002H   BYTE   UNIT     EDATA          ?ED?BUZZER
000764H   000863H   000100H   BYTE   UNIT     EDATA          ?STACK
000864H   FEFFFFH   FEF79CH   ---    ---      **GAP**
FF0000H   FF0002H   000003H   ---    OFFS..   CODE           ?CO?start251?4
FF0003H   FF0005H   000003H   ---    OFFS..   CODE           ?PR?IV?0
FF0006H   FF000AH   000005H   BYTE   INSEG    CODE           ?PR?I2C_SDA_READ?MPU6050
FF000BH   FF000DH   000003H   ---    OFFS..   CODE           ?PR?IV?1
FF000EH   FF0010H   000003H   BYTE   INSEG    CODE           ?PR?ENABLEGLOBALIRQ?BOARD
FF0011H   FF0011H   000001H   BYTE   INSEG    CODE           ?PR?INT1_ISR?ISR
FF0012H   FF0012H   000001H   BYTE   INSEG    CODE           ?PR?TM0_ISR?ISR
FF0013H   FF0015H   000003H   ---    OFFS..   CODE           ?PR?IV?2
FF0016H   FF0018H   000003H   BYTE   INSEG    CODE           ?PR?DISABLEGLOBALIRQ?BOARD
FF0019H   FF0019H   000001H   BYTE   INSEG    CODE           ?PR?TM1_ISR?ISR
FF001AH   FF001AH   000001H   ---    ---      **GAP**
FF001BH   FF001DH   000003H   ---    OFFS..   CODE           ?PR?IV?3
FF001EH   FF0020H   000003H   BYTE   INSEG    CODE           ?PR?I2C_SDA_H?MPU6050
FF0021H   FF0022H   000002H   ---    ---      **GAP**
FF0023H   FF0025H   000003H   ---    OFFS..   CODE           ?PR?IV?4
FF0026H   FF0042H   00001DH   BYTE   INSEG    CODE           ?PR?GETFIFOCOUNT?MPU6050
FF0043H   FF0045H   000003H   ---    OFFS..   CODE           ?PR?IV?8
FF0046H   FF0052H   00000DH   BYTE   INSEG    CODE           ?PR?MPU_READ_BITS?MPU6050
FF0053H   FF0055H   000003H   ---    OFFS..   CODE           ?PR?IV?10
FF0056H   FF0058H   000003H   BYTE   INSEG    CODE           ?PR?I2C_SDA_L?MPU6050
FF0059H   FF005AH   000002H   ---    ---      **GAP**
FF005BH   FF005DH   000003H   ---    OFFS..   CODE           ?PR?IV?11
FF005EH   FF0060H   000003H   BYTE   INSEG    CODE           ?PR?I2C_SCL_H?MPU6050
FF0061H   FF0062H   000002H   ---    ---      **GAP**
FF0063H   FF0065H   000003H   ---    OFFS..   CODE           ?PR?IV?12
FF0066H   FF0081H   00001CH   BYTE   INSEG    CODE           ?PR?VL53L0X_SCCB_WAITACK?TOF
FF0082H   FF0082H   000001H   ---    ---      **GAP**
FF0083H   FF0085H   000003H   ---    OFFS..   CODE           ?PR?IV?16
FF0086H   FF0088H   000003H   BYTE   INSEG    CODE           ?PR?I2C_SCL_L?MPU6050
FF0089H   FF008AH   000002H   ---    ---      **GAP**
FF008BH   FF008DH   000003H   ---    OFFS..   CODE           ?PR?IV?17
FF008EH   FF0091H   000004H   BYTE   UNIT     CONST          ?CO?PRINTF
FF0092H   FF0092H   000001H   ---    ---      **GAP**
FF0093H   FF0095H   000003H   ---    OFFS..   CODE           ?PR?IV?18
FF0096H   FF009AH   000005H   ---    ---      **GAP**
FF009BH   FF009DH   000003H   ---    OFFS..   CODE           ?PR?IV?19
FF009EH   FF00A2H   000005H   ---    ---      **GAP**
FF00A3H   FF00A5H   000003H   ---    OFFS..   CODE           ?PR?IV?20
FF00A6H   FF0EADH   000E08H   BYTE   UNIT     CODE           ?CO?SEEKFREE_FONT
FF0EAEH   FF1A25H   000B78H   BYTE   UNIT     CODE           ?C?LIB_CODE
FF1A26H   FF229DH   000878H   BYTE   UNIT     CODE           ?CO?MPU6050
FF229EH   FF289FH   000602H   BYTE   INSEG    CODE           ?PR?VL53L0X_INIT?TOF
FF28A0H   FF2D99H   0004FAH   BYTE   INSEG    CODE           ?PR?ZF_SPRINTF?SEEKFREE_PRINTF
FF2D9AH   FF3190H   0003F7H   BYTE   INSEG    CODE           ?PR?GPIO_MODE?ZF_GPIO
FF3191H   FF34EEH   00035EH   BYTE   INSEG    CODE           ?PR?TM4_ISR?ISR
FF34EFH   FF37D2H   0002E4H   BYTE   INSEG    CODE           ?PR?PWM_INIT?ZF_PWM
FF37D3H   FF3A73H   0002A1H   BYTE   INSEG    CODE           ?PR?PWM_SET_GPIO?ZF_PWM
FF3A74H   FF3D0DH   00029AH   BYTE   INSEG    CODE           ?PR?MPU6050_REFRESH_DMP?MPU6050
FF3D0EH   FF3F39H   00022CH   BYTE   INSEG    CODE           ?PR?DMPINITIALIZE?MPU6050
FF3F3AH   FF4137H   0001FEH   BYTE   INSEG    CODE           ?PR?ELEM_CIRCLE?ELEMENT
FF4138H   FF42F6H   0001BFH   BYTE   INSEG    CODE           ?PR?UART_INIT?ZF_UART
FF42F7H   FF449BH   0001A5H   BYTE   INSEG    CODE           ?PR?MAIN?MAIN
FF449CH   FF4631H   000196H   BYTE   INSEG    CODE           ?PR?PID_INCREMENTAL_CALC?PID
L251 LINKER/LOCATER V4.66.93.0                                                        07/11/2024  19:40:54  PAGE 5


FF4632H   FF47ADH   00017CH   BYTE   INSEG    CODE           ?PR?VL53L0X_GET_SPAD_INFO?TOF
FF47AEH   FF48F8H   00014BH   BYTE   INSEG    CODE           ?PR?ADC_GETVALUE?ADC
FF48F9H   FF4A2FH   000137H   BYTE   INSEG    CODE           ?PR?GET_RATIO?ISR
FF4A30H   FF4B2BH   0000FCH   BYTE   INSEG    CODE           ?PR?INIT_ALL?MAIN
FF4B2CH   FF4C23H   0000F8H   BYTE   INSEG    CODE           ?PR?OLED_PRINTF_FLOAT?SEEKFREE_OLED
FF4C24H   FF4D13H   0000F0H   BYTE   INSEG    CODE           ?PR?VALUE_NAME_INIT?UI
FF4D14H   FF4DFBH   0000E8H   BYTE   INSEG    CODE           ?PR?OLED_P8X16STR?SEEKFREE_OLED
FF4DFCH   FF4EDFH   0000E4H   BYTE   INSEG    CODE           ?PR?VL53L0X_SET_MEASUREMENT_TIMING_BUDGET?TOF
FF4EE0H   FF4FBFH   0000E0H   BYTE   INSEG    CODE           ?PR?FIFO_WRITE_BUFFER?ZF_FIFO
FF4FC0H   FF509AH   0000DBH   BYTE   INSEG    CODE           ?PR?VL53L0X_GET_SEQUENCE_STEP_TIMEOUTS?TOF
FF509BH   FF5161H   0000C7H   BYTE   INSEG    CODE           ?PR?RIGHT_SETSPEED?MOTOR
FF5162H   FF5228H   0000C7H   BYTE   INSEG    CODE           ?PR?LEFT_SETSPEED?MOTOR
FF5229H   FF52E6H   0000BEH   BYTE   INSEG    CODE           ?PR?GET_SPEED?MOTOR
FF52E7H   FF539EH   0000B8H   BYTE   INSEG    CODE           ?PR?PWM_DUTY?ZF_PWM
FF539FH   FF5448H   0000AAH   BYTE   INSEG    CODE           ?PR?PID_CALCULATE?PID
FF5449H   FF54EEH   0000A6H   BYTE   INSEG    CODE           ?PR?LOADCFGUPD?MPU6050
FF54EFH   FF5591H   0000A3H   BYTE   INSEG    CODE           ?PR?OLED_INIT?SEEKFREE_OLED
FF5592H   FF562CH   00009BH   BYTE   INSEG    CODE           ?PR?REFRESH_VALUE?UI
FF562DH   FF56C3H   000097H   BYTE   INSEG    CODE           ?PR?ELEM_BARRIER_TIMER?ELEMENT
FF56C4H   FF5757H   000094H   BYTE   INSEG    CODE           ?PR?PIT_TIMER_MS?ZF_TIM
FF5758H   FF57E9H   000092H   BYTE   INSEG    CODE           ?PR?NUMBER_CONVERSION_ASCII?SEEKFREE_PRINTF
FF57EAH   FF5876H   00008DH   BYTE   INSEG    CODE           ?PR?PID_INCREMENTAL_INIT?PID
FF5877H   FF5901H   00008BH   BYTE   INSEG    CODE           ?PR?XDMPUPDATES?MPU6050
FF5902H   FF5982H   000081H   BYTE   INSEG    CODE           ?PR?BOARD_INIT?BOARD
FF5983H   FF5A03H   000081H   BYTE   INSEG    CODE           ?PR?LOADFIRMWARE?MPU6050
FF5A04H   FF5A80H   00007DH   BYTE   INSEG    CODE           ?PR?I2C_WRITE_BITS?MPU6050
FF5A81H   FF5AFAH   00007AH   BYTE   INSEG    CODE           ?PR?I2C_MEM_READ?MPU6050
FF5AFBH   FF5B73H   000079H   BYTE   INSEG    CODE           ?PR?SPEED_GAIN?MAIN
FF5B74H   FF5BEAH   000077H   BYTE   INSEG    CODE           ?PR?VL53L0X_PERFORM_SINGLE_REF_CALIBRATION?TOF
FF5BEBH   FF5C60H   000076H   BYTE   INSEG    CODE           ?PR?GETKEY_VALUE?KEY
FF5C61H   FF5CD3H   000073H   BYTE   INSEG    CODE           ?PR?VL53L0X_GET_MEASUREMENT_TIMING_BUDGET?TOF
FF5CD4H   FF5D40H   00006DH   BYTE   INSEG    CODE           ?PR?VL53L0X_GET_DISTANCE?TOF
FF5D41H   FF5DABH   00006BH   BYTE   INSEG    CODE           ?PR?I2C_READ_BITS?MPU6050
FF5DACH   FF5E14H   000069H   BYTE   INSEG    CODE           ?PR?UART4_ISR?ISR
FF5E15H   FF5E74H   000060H   BYTE   INSEG    CODE           ?PR?PID_INIT?PID
FF5E75H   FF5ED3H   00005FH   BYTE   INSEG    CODE           ?PR?I2C_MEM_WRITE?MPU6050
FF5ED4H   FF5F31H   00005EH   BYTE   INSEG    CODE           ?PR?ADC_INIT?ZF_ADC
FF5F32H   FF5F8DH   00005CH   BYTE   INSEG    CODE           ?PR?I2C_WRITE_BIT?MPU6050
FF5F8EH   FF5FE5H   000058H   BYTE   INSEG    CODE           ?PR?MPU_GET_GYROSCOPE?MPU6050
FF5FE6H   FF603DH   000058H   BYTE   INSEG    CODE           ?PR?VL53L0X_GET_SEQUENCE_STEP_ENABLES?TOF
FF603EH   FF6091H   000054H   BYTE   INSEG    CODE           ?PR?UART_PUTCHAR?ZF_UART
FF6092H   FF60E5H   000054H   BYTE   INSEG    CODE           ?PR?VL53L0X_SIMIIC_READ_REGS?TOF
FF60E6H   FF6139H   000054H   BYTE   INSEG    CODE           ?PR?VL53L0X_SIMIIC_READ_REGS_1?TOF
FF613AH   FF618AH   000051H   BYTE   INSEG    CODE           ?PR?CTIMER_COUNT_CLEAN?ZF_TIM
FF618BH   FF61D7H   00004DH   BYTE   INSEG    CODE           ?PR?CTIMER_COUNT_READ?ZF_TIM
FF61D8H   FF6224H   00004DH   BYTE   INSEG    CODE           ?PR?VL53L0X_GET_VCSEL_PULSE_PERIOD?TOF
FF6225H   FF626EH   00004AH   BYTE   INSEG    CODE           ?PR?CTIMER_COUNT_INIT?ZF_TIM
FF626FH   FF62B3H   000045H   BYTE   INSEG    CODE           ?PR?ATAN2?_?ATAN2
FF62B4H   FF62F7H   000044H   BYTE   INSEG    CODE           ?PR?MOTOR_INIT?MOTOR
FF62F8H   FF633AH   000043H   BYTE   INSEG    CODE           ?PR?OLED_SHOW?UI
FF633BH   FF637CH   000042H   BYTE   INSEG    CODE           ?PR?FIFO_HEAD_OFFSET?ZF_FIFO
FF637DH   FF63BEH   000042H   BYTE   INSEG    CODE           ?PR?OLED_ALL_STATIC_STATE?UI
FF63BFH   FF63FFH   000041H   BYTE   INSEG    CODE           ?PR?ELEM_UP_DOWN?ELEMENT
FF6400H   FF6412H   000013H   BYTE   UNIT     CODE           ?C_C51STARTUP
FF6413H   FF643BH   000029H   BYTE   UNIT     CODE           ?C_C51STARTUP?2
FF643CH   FF643EH   000003H   BYTE   UNIT     CODE           ?C_C51STARTUP?3
FF643FH   FF647CH   00003EH   BYTE   INSEG    CODE           ?PR?PRINTF_REVERSE_ORDER?SEEKFREE_PRINTF
FF647DH   FF64BAH   00003EH   BYTE   INSEG    CODE           ?PR?VL53L0X_TIMEOUT_MCLKS_TO_MICROSECONDS?TOF
FF64BBH   FF64F7H   00003DH   BYTE   INSEG    CODE           ?PR?UART1_ISR?ISR
FF64F8H   FF6533H   00003CH   BYTE   INSEG    CODE           ?PR?VL53L0X_TIMEOUT_MICROSECONDS_TO_MCLKS?TOF
FF6534H   FF656EH   00003BH   BYTE   INSEG    CODE           ?PR?VL53L0X_READ_CH?TOF
FF656FH   FF65A7H   000039H   BYTE   INSEG    CODE           ?PR?DELAY_INIT?ZF_DELAY
FF65A8H   FF65DEH   000037H   BYTE   INSEG    CODE           ?PR?I2C_READ_BYTE?MPU6050
FF65DFH   FF6613H   000035H   BYTE   INSEG    CODE           ?PR?VL53L0X_SIMIIC_WRITE_DATS?TOF
FF6614H   FF6647H   000034H   BYTE   INSEG    CODE           ?PR?VL53L0X_ENCODE_TIMEOUT?TOF
L251 LINKER/LOCATER V4.66.93.0                                                        07/11/2024  19:40:54  PAGE 6


FF6648H   FF667AH   000033H   BYTE   INSEG    CODE           ?PR?OLED_FILL?SEEKFREE_OLED
FF667BH   FF66ADH   000033H   BYTE   INSEG    CODE           ?PR?I2C_READ_BIT?MPU6050
FF66AEH   FF66E0H   000033H   BYTE   INSEG    CODE           ?PR?I2C_WRITE_BYTE?MPU6050
FF66E1H   FF6713H   000033H   BYTE   INSEG    CODE           ?PR?INITMPU6050?MPU6050
FF6714H   FF6741H   00002EH   BYTE   INSEG    CODE           ?PR?ADC_ONCE?ZF_ADC
FF6742H   FF676FH   00002EH   BYTE   INSEG    CODE           ?PR?VL53L0X_SEND_CH?TOF
FF6770H   FF679AH   00002BH   BYTE   INSEG    CODE           ?PR?FILTER_WINDOW?MAIN
FF679BH   FF67C5H   00002BH   BYTE   INSEG    CODE           ?PR?LIMIT_OUT?MOTOR
FF67C6H   FF67F0H   00002BH   BYTE   INSEG    CODE           ?PR?ADC_INITALL?ADC
FF67F1H   FF681AH   00002AH   BYTE   INSEG    CODE           ?PR?I2C_WAIT_ACK?MPU6050
FF681BH   FF6843H   000029H   BYTE   INSEG    CODE           ?PR?OLED_WRCMD?SEEKFREE_OLED
FF6844H   FF686CH   000029H   BYTE   INSEG    CODE           ?PR?OLED_WRDAT?SEEKFREE_OLED
FF686DH   FF6895H   000029H   BYTE   INSEG    CODE           ?PR?VL53L0X_SIMIIC_READ_REG?TOF
FF6896H   FF68BCH   000027H   BYTE   INSEG    CODE           ?PR?VL53L0X_SET_SIGNAL_RATE_LIMIT?TOF
FF68BDH   FF68E1H   000025H   BYTE   INSEG    CODE           ?PR?MEMCPY?_?MEMCPY
FF68E2H   FF6905H   000024H   BYTE   INSEG    CODE           ?PR?KEY_INIT?KEY
FF6906H   FF6928H   000023H   BYTE   INSEG    CODE           ?PR?OLED_SET_POS?SEEKFREE_OLED
FF6929H   FF694BH   000023H   BYTE   INSEG    CODE           ?PR?MPU6050_DMP_INIT?MPU6050
FF694CH   FF696DH   000022H   BYTE   INSEG    CODE           ?PR?VL53L0X_SIMIIC_WRITE_REG?TOF
FF696EH   FF698DH   000020H   BYTE   INSEG    CODE           ?PR?GETDEVICEID?MPU6050
FF698EH   FF69ADH   000020H   BYTE   INSEG    CODE           ?PR?VL53L0X_SIMIIC_SENDACK?TOF
FF69AEH   FF69CBH   00001EH   BYTE   INSEG    CODE           ?PR?UART2_ISR?ISR
FF69CCH   FF69E9H   00001EH   BYTE   INSEG    CODE           ?PR?UART3_ISR?ISR
FF69EAH   FF6A03H   00001AH   BYTE   INSEG    CODE           ?PR?MEMSET?_?MEMSET
FF6A04H   FF6A1CH   000019H   BYTE   INSEG    CODE           ?PR?BLUETOOTH_CH9141_UART_CALLBACK?SEEKFREE_BLUETOOTH_CH91
                                                             -41
FF6A1DH   FF6A35H   000019H   BYTE   INSEG    CODE           ?PR?WIRELESS_UART_CALLBACK?SEEKFREE_WIRELESS
FF6A36H   FF6A4EH   000019H   BYTE   INSEG    CODE           ?PR?WIRELESS_CH573_CALLBACK?SEEKFREE_WIRELESS_CH573
FF6A4FH   FF6A65H   000017H   BYTE   INSEG    CODE           ?PR?DELAY_MS?ZF_DELAY
FF6A66H   FF6A7AH   000015H   BYTE   INSEG    CODE           ?PR?I2C_ACK?MPU6050
FF6A7BH   FF6A8FH   000015H   BYTE   INSEG    CODE           ?PR?MPU_WRITE_BYTE?MPU6050
FF6A90H   FF6AA3H   000014H   BYTE   INSEG    CODE           ?PR?MPU_DELAY_MS?MPU6050
FF6AA4H   FF6AB6H   000013H   BYTE   UNIT     CODE           ?PR?STRCPY?_
FF6AB7H   FF6AC8H   000012H   BYTE   INSEG    CODE           ?PR?I2C_NACK?MPU6050
FF6AC9H   FF6ADAH   000012H   BYTE   INSEG    CODE           ?PR?I2C_START?MPU6050
FF6ADBH   FF6AEBH   000011H   BYTE   INSEG    CODE           ?PR?VL53L0X_SIMIIC_STOP?TOF
FF6AECH   FF6AFCH   000011H   BYTE   INSEG    CODE           ?PR?BUZZER_INIT?BUZZER
FF6AFDH   FF6B0CH   000010H   BYTE   INSEG    CODE           ?PR?VL53L0X_DECODE_TIMEOUT?TOF
FF6B0DH   FF6B1CH   000010H   BYTE   INSEG    CODE           ?PR?ABS?_?ABS
FF6B1DH   FF6B2BH   00000FH   BYTE   INSEG    CODE           ?PR?I2C_STOP?MPU6050
FF6B2CH   FF6B3AH   00000FH   BYTE   INSEG    CODE           ?PR?READDMP?MPU6050
FF6B3BH   FF6B49H   00000FH   BYTE   INSEG    CODE           ?PR?VL53L0X_SIMIIC_START?TOF
FF6B4AH   FF6B57H   00000EH   BYTE   INSEG    CODE           ?PR?PUTCHAR?BOARD
FF6B58H   FF6B64H   00000DH   BYTE   INSEG    CODE           ?PR?MPU_WRITE_BITS?MPU6050
FF6B65H   FF6B71H   00000DH   BYTE   INSEG    CODE           ?PR?MPU_WRITE_BIT?MPU6050
FF6B72H   FF6B7EH   00000DH   BYTE   INSEG    CODE           ?PR?VL53L0X_SIMIIC_DELAY?TOF
FF6B7FH   FF6B89H   00000BH   BYTE   INSEG    CODE           ?PR?MPU_READ_LEN?MPU6050
FF6B8AH   FF6B94H   00000BH   BYTE   INSEG    CODE           ?PR?I2C_TIMEOUT_DELAY?MPU6050
FF6B95H   FF6B9FH   00000BH   BYTE   INSEG    CODE           ?PR?MPU_WRITE_LEN?MPU6050
FF6BA0H   FF6BAAH   00000BH   BYTE   INSEG    CODE           ?PR?I2C_DELAY?MPU6050
FF6BABH   FF6BB4H   00000AH   BYTE   INSEG    CODE           ?PR?DELAY1MS?MPU6050
FF6BB5H   FF6BBDH   000009H   BYTE   INSEG    CODE           ?PR?MPU_READ_BIT?MPU6050
FF6BBEH   FF6BC6H   000009H   BYTE   INSEG    CODE           ?PR?UI_INIT?UI
FF6BC7H   FF6BCEH   000008H   BYTE   INSEG    CODE           ?PR?INT2_ISR?ISR
FF6BCFH   FF6BD6H   000008H   BYTE   INSEG    CODE           ?PR?INT3_ISR?ISR
FF6BD7H   FF6BDEH   000008H   BYTE   INSEG    CODE           ?PR?INT4_ISR?ISR
FF6BDFH   FF6BE6H   000008H   BYTE   INSEG    CODE           ?PR?TM2_ISR?ISR
FF6BE7H   FF6BEEH   000008H   BYTE   INSEG    CODE           ?PR?TM3_ISR?ISR
FF6BEFH   FF6BF5H   000007H   BYTE   INSEG    CODE           ?PR?INT0_ISR?ISR
FF6BF6H   FF6BFBH   000006H   BYTE   INSEG    CODE           ?PR?UI_SHOW?UI
FF6BFCH   FF6D9DH   0001A2H   BYTE   UNIT     HCONST         ?C_INITEDATA
FF6D9EH   FF6E0FH   000072H   BYTE   UNIT     HCONST         ?HC?UI
FF6E10H   FF6E67H   000058H   BYTE   UNIT     HCONST         ?HC?ZF_PWM
FF6E68H   FF6E87H   000020H   BYTE   UNIT     HCONST         ?HC?MAIN
FF6E88H   FF6E9DH   000016H   BYTE   UNIT     HCONST         ?HC?TOF
L251 LINKER/LOCATER V4.66.93.0                                                        07/11/2024  19:40:54  PAGE 7


FF6E9EH   FF6EA7H   00000AH   BYTE   UNIT     HCONST         ?HC?SEEKFREE_OLED
FF6EA8H   FF6EADH   000006H   BYTE   UNIT     HCONST         ?HC?SEEKFREE_18TFT
FF6EAEH   FF6EB3H   000006H   BYTE   UNIT     HCONST         ?HC?SEEKFREE_IPS114_SPI

* * * * * * * * *   R E M O V E D     S E G M E N T S   * * * * * * * *
   *DEL*:           000019H   BYTE   INSEG    CODE           ?PR?DELAY_US?ZF_DELAY
   *DEL*:           000016H   BYTE   INSEG    CODE           ?PR?IAP_SET_TPS?ZF_EEPROM
   *DEL*:           000015H   BYTE   INSEG    CODE           ?PR?EEPROM_TRIG?ZF_EEPROM
   *DEL*:           00000EH   BYTE   INSEG    CODE           ?PR?IAP_ERASE_PAGE?ZF_EEPROM
   *DEL*:           000004H   BYTE   INSEG    CODE           ?PR?IAP_IDLE?ZF_EEPROM
   *DEL*:           000047H   BYTE   INSEG    CODE           ?PR?IAP_READ_BYTES?ZF_EEPROM
   *DEL*:           00006DH   BYTE   INSEG    CODE           ?PR?EXTERN_IAP_WRITE_BYTES?ZF_EEPROM
   *DEL*:           000006H   BYTE   INSEG    CODE           ?PR?IAP_INIT?ZF_EEPROM
   *DEL*:           000047H   BYTE   INSEG    CODE           ?PR?IAP_WRITE_BYTES?ZF_EEPROM
   *DEL*:           00000CH   BYTE   INSEG    CODE           ?PR?IAP_GET_CMD_STATE?ZF_EEPROM
   *DEL*:           000004H   BYTE   UNIT     EDATA          ?ED?IAP_READ_BYTES?ZF_EEPROM
   *DEL*:           000004H   BYTE   UNIT     EDATA          ?ED?IAP_WRITE_BYTES?ZF_EEPROM
   *DEL*:           000204H   BYTE   UNIT     EDATA          ?ED?EXTERN_IAP_WRITE_BYTES?ZF_EEPROM
   *DEL*:           00003EH   BYTE   INSEG    CODE           ?PR?EXIT_INIT?ZF_EXTI
   *DEL*:           00006EH   BYTE   INSEG    CODE           ?PR?GPIO_PULL_SET?ZF_GPIO
   *DEL*:           000017H   BYTE   INSEG    CODE           ?PR?SEND_DATA?ZF_IIC
   *DEL*:           00002FH   BYTE   INSEG    CODE           ?PR?IIC_CHANGE_PIN?ZF_IIC
   *DEL*:           00001CH   BYTE   INSEG    CODE           ?PR?RECV_DATA?ZF_IIC
   *DEL*:           000010H   BYTE   INSEG    CODE           ?PR?START?ZF_IIC
   *DEL*:           000045H   BYTE   INSEG    CODE           ?PR?WAIT?ZF_IIC
   *DEL*:           000018H   BYTE   INSEG    CODE           ?PR?SEND_ACK?ZF_IIC
   *DEL*:           000010H   BYTE   INSEG    CODE           ?PR?RECV_ACK?ZF_IIC
   *DEL*:           000010H   BYTE   INSEG    CODE           ?PR?STOP?ZF_IIC
   *DEL*:           000019H   BYTE   INSEG    CODE           ?PR?SEND_NAK?ZF_IIC
   *DEL*:           00005EH   BYTE   INSEG    CODE           ?PR?IIC_INIT?ZF_IIC
   *DEL*:           000075H   BYTE   INSEG    CODE           ?PR?IIC_READ_REG?ZF_IIC
   *DEL*:           00009CH   BYTE   INSEG    CODE           ?PR?IIC_READ_REG_BYTES?ZF_IIC
   *DEL*:           000060H   BYTE   INSEG    CODE           ?PR?IIC_WRITE_REG?ZF_IIC
   *DEL*:           000015H   BYTE   INSEG    CODE           ?PR?IIC_DELAY_US?ZF_IIC
   *DEL*:           000004H   BYTE   UNIT     EDATA          ?ED?IIC_INIT?ZF_IIC
   *DEL*:           000004H   BYTE   UNIT     EDATA          ?ED?IIC_READ_REG?ZF_IIC
   *DEL*:           000003H   BYTE   UNIT     EDATA          ?ED?IIC_READ_REG_BYTES?ZF_IIC
   *DEL*:           00006CH   BYTE   INSEG    CODE           ?PR?NVIC_SETPRIORITY?ZF_NVIC
   *DEL*:           000121H   BYTE   INSEG    CODE           ?PR?PWM_FREQ?ZF_PWM
   *DEL*:           000004H   BYTE   UNIT     EDATA          ?ED?PWM_FREQ?ZF_PWM
   *DEL*:           00001DH   BYTE   INSEG    CODE           ?PR?SPI_CHANGE_MODE?ZF_SPI
   *DEL*:           0000AEH   BYTE   INSEG    CODE           ?PR?SPI_CHANGE_PIN?ZF_SPI
   *DEL*:           0000DFH   BYTE   INSEG    CODE           ?PR?SPI_INIT?ZF_SPI
   *DEL*:           00000EH   BYTE   INSEG    CODE           ?PR?SPI_MOSI?ZF_SPI
   *DEL*:           000004H   BYTE   UNIT     EDATA          ?ED?SPI_INIT?ZF_SPI
   *DEL*:           00009DH   BYTE   INSEG    CODE           ?PR?PIT_TIMER_US?ZF_TIM
   *DEL*:           00002DH   BYTE   INSEG    CODE           ?PR?UART_PUTBUFF?ZF_UART
   *DEL*:           00001EH   BYTE   INSEG    CODE           ?PR?UART_PUTSTR?ZF_UART
   *DEL*:           000004H   BYTE   UNIT     EDATA          ?ED?UART_PUTBUFF?ZF_UART
   *DEL*:           000002H   BYTE   UNIT     EDATA          ?ED?UART_PUTSTR?ZF_UART
   *DEL*:           000113H   BYTE   INSEG    CODE           ?PR?FIFO_READ_BUFFER?ZF_FIFO
   *DEL*:           000025H   BYTE   INSEG    CODE           ?PR?FIFO_CLEAR?ZF_FIFO
   *DEL*:           000046H   BYTE   INSEG    CODE           ?PR?FIFO_END_OFFSET?ZF_FIFO
   *DEL*:           000015H   BYTE   INSEG    CODE           ?PR?FIFO_USED?ZF_FIFO
   *DEL*:           000043H   BYTE   INSEG    CODE           ?PR?FIFO_INIT?ZF_FIFO
   *DEL*:           000004H   BYTE   UNIT     EDATA          ?ED?FIFO_INIT?ZF_FIFO
   *DEL*:           00000FH   BYTE   UNIT     EDATA          ?ED?FIFO_READ_BUFFER?ZF_FIFO
   *DEL*:           00008BH   BYTE   INSEG    CODE           ?PR?LCD_SHOWUINT16?SEEKFREE_18TFT
   *DEL*:           000082H   BYTE   INSEG    CODE           ?PR?LCD_SHOWINT32_SIMSPI?SEEKFREE_18TFT
   *DEL*:           0000DDH   BYTE   INSEG    CODE           ?PR?LCD_SHOWINT16_SIMSPI?SEEKFREE_18TFT
   *DEL*:           000082H   BYTE   INSEG    CODE           ?PR?LCD_SHOWINT32?SEEKFREE_18TFT
   *DEL*:           0000DDH   BYTE   INSEG    CODE           ?PR?LCD_SHOWINT16?SEEKFREE_18TFT
   *DEL*:           00002BH   BYTE   INSEG    CODE           ?PR?LCD_CLEAR_SIMSPI?SEEKFREE_18TFT
   *DEL*:           00002BH   BYTE   INSEG    CODE           ?PR?LCD_CLEAR?SEEKFREE_18TFT
   *DEL*:           00004EH   BYTE   INSEG    CODE           ?PR?LCD_SHOWSTR_SIMSPI?SEEKFREE_18TFT
L251 LINKER/LOCATER V4.66.93.0                                                        07/11/2024  19:40:54  PAGE 8


   *DEL*:           00004EH   BYTE   INSEG    CODE           ?PR?LCD_SHOWSTR?SEEKFREE_18TFT
   *DEL*:           000029H   BYTE   INSEG    CODE           ?PR?LCD_WRITEINDEX_SIMSPI?SEEKFREE_18TFT
   *DEL*:           000029H   BYTE   INSEG    CODE           ?PR?LCD_WRITEDATA_SIMSPI?SEEKFREE_18TFT
   *DEL*:           00000AH   BYTE   INSEG    CODE           ?PR?LCD_WRITEINDEX?SEEKFREE_18TFT
   *DEL*:           00000AH   BYTE   INSEG    CODE           ?PR?LCD_WRITEDATA?SEEKFREE_18TFT
   *DEL*:           00002CH   BYTE   INSEG    CODE           ?PR?LCD_WRITEDATA_16BIT_SIMSPI?SEEKFREE_18TFT
   *DEL*:           00004CH   BYTE   INSEG    CODE           ?PR?LCD_SET_REGION_SIMSPI?SEEKFREE_18TFT
   *DEL*:           0001F1H   BYTE   INSEG    CODE           ?PR?LCD_INIT_SIMSPI?SEEKFREE_18TFT
   *DEL*:           00009AH   BYTE   INSEG    CODE           ?PR?SHOWIMAGE?SEEKFREE_18TFT
   *DEL*:           000050H   BYTE   INSEG    CODE           ?PR?LCD_SET_REGION?SEEKFREE_18TFT
   *DEL*:           0001EEH   BYTE   INSEG    CODE           ?PR?LCD_INIT?SEEKFREE_18TFT
   *DEL*:           00007BH   BYTE   INSEG    CODE           ?PR?LCD_SHOWUINT8_SIMSPI?SEEKFREE_18TFT
   *DEL*:           00007BH   BYTE   INSEG    CODE           ?PR?LCD_SHOWUINT8?SEEKFREE_18TFT
   *DEL*:           0000B9H   BYTE   INSEG    CODE           ?PR?LCD_SHOWINT8_SIMSPI?SEEKFREE_18TFT
   *DEL*:           0000B9H   BYTE   INSEG    CODE           ?PR?LCD_SHOWINT8?SEEKFREE_18TFT
   *DEL*:           00001FH   BYTE   INSEG    CODE           ?PR?LCD_WRITEDATA_16BIT?SEEKFREE_18TFT
   *DEL*:           0000F8H   BYTE   INSEG    CODE           ?PR?LCD_SHOWFLOAT_SIMSPI?SEEKFREE_18TFT
   *DEL*:           000013H   BYTE   INSEG    CODE           ?PR?LCD_DRAWPOINT_SIMSPI?SEEKFREE_18TFT
   *DEL*:           0000F8H   BYTE   INSEG    CODE           ?PR?LCD_SHOWFLOAT?SEEKFREE_18TFT
   *DEL*:           000013H   BYTE   INSEG    CODE           ?PR?LCD_DRAWPOINT?SEEKFREE_18TFT
   *DEL*:           00008EH   BYTE   INSEG    CODE           ?PR?LCD_SHOWCHAR_SIMSPI?SEEKFREE_18TFT
   *DEL*:           00008EH   BYTE   INSEG    CODE           ?PR?LCD_SHOWCHAR?SEEKFREE_18TFT
   *DEL*:           00008BH   BYTE   INSEG    CODE           ?PR?LCD_SHOWUINT16_SIMSPI?SEEKFREE_18TFT
   *DEL*:           000004H   BYTE   UNIT     EDATA          ?ED?LCD_SET_REGION_SIMSPI?SEEKFREE_18TFT
   *DEL*:           000004H   BYTE   UNIT     EDATA          ?ED?LCD_SHOWCHAR_SIMSPI?SEEKFREE_18TFT
   *DEL*:           000006H   BYTE   UNIT     EDATA          ?ED?LCD_SHOWSTR_SIMSPI?SEEKFREE_18TFT
   *DEL*:           000005H   BYTE   UNIT     EDATA          ?ED?LCD_SHOWINT8_SIMSPI?SEEKFREE_18TFT
   *DEL*:           000004H   BYTE   UNIT     EDATA          ?ED?LCD_SHOWUINT8_SIMSPI?SEEKFREE_18TFT
   *DEL*:           000008H   BYTE   UNIT     EDATA          ?ED?LCD_SHOWINT16_SIMSPI?SEEKFREE_18TFT
   *DEL*:           000006H   BYTE   UNIT     EDATA          ?ED?LCD_SHOWUINT16_SIMSPI?SEEKFREE_18TFT
   *DEL*:           000028H   BYTE   UNIT     EDATA          ?ED?LCD_SHOWINT32_SIMSPI?SEEKFREE_18TFT
   *DEL*:           00002BH   BYTE   UNIT     EDATA          ?ED?LCD_SHOWFLOAT_SIMSPI?SEEKFREE_18TFT
   *DEL*:           000002H   BYTE   UNIT     EDATA          ?ED?LCD_WRITEDATA_16BIT?SEEKFREE_18TFT
   *DEL*:           000004H   BYTE   UNIT     EDATA          ?ED?LCD_SET_REGION?SEEKFREE_18TFT
   *DEL*:           000004H   BYTE   UNIT     EDATA          ?ED?LCD_SHOWCHAR?SEEKFREE_18TFT
   *DEL*:           000006H   BYTE   UNIT     EDATA          ?ED?LCD_SHOWSTR?SEEKFREE_18TFT
   *DEL*:           000005H   BYTE   UNIT     EDATA          ?ED?LCD_SHOWINT8?SEEKFREE_18TFT
   *DEL*:           000004H   BYTE   UNIT     EDATA          ?ED?LCD_SHOWUINT8?SEEKFREE_18TFT
   *DEL*:           000008H   BYTE   UNIT     EDATA          ?ED?LCD_SHOWINT16?SEEKFREE_18TFT
   *DEL*:           000006H   BYTE   UNIT     EDATA          ?ED?LCD_SHOWUINT16?SEEKFREE_18TFT
   *DEL*:           000028H   BYTE   UNIT     EDATA          ?ED?LCD_SHOWINT32?SEEKFREE_18TFT
   *DEL*:           00002BH   BYTE   UNIT     EDATA          ?ED?LCD_SHOWFLOAT?SEEKFREE_18TFT
   *DEL*:           000008H   BYTE   UNIT     EDATA          ?ED?SHOWIMAGE?SEEKFREE_18TFT
   *DEL*:           000011H   BYTE   INSEG    CODE           ?PR?ENCODER_SELF4_CHECK?SEEKFREE_ABSOLUTE_ENCODER
   *DEL*:           000011H   BYTE   INSEG    CODE           ?PR?ENCODER_SELF5_CHECK?SEEKFREE_ABSOLUTE_ENCODER
   *DEL*:           00002FH   BYTE   INSEG    CODE           ?PR?ENCODER_SPI_R_REG_BYTE?SEEKFREE_ABSOLUTE_ENCODER
   *DEL*:           000005H   BYTE   INSEG    CODE           ?PR?ENCODER_DELAY_US?SEEKFREE_ABSOLUTE_ENCODER
   *DEL*:           000038H   BYTE   INSEG    CODE           ?PR?ENCODER_SPI_W_REG_BYTE?SEEKFREE_ABSOLUTE_ENCODER
   *DEL*:           00001CH   BYTE   INSEG    CODE           ?PR?SIMSPI_R_REG_BYTE?SEEKFREE_ABSOLUTE_ENCODER
   *DEL*:           00001AH   BYTE   INSEG    CODE           ?PR?SIMSPI_W_REG_BYTE?SEEKFREE_ABSOLUTE_ENCODER
   *DEL*:           000029H   BYTE   INSEG    CODE           ?PR?ENCODER_INIT_SPI?SEEKFREE_ABSOLUTE_ENCODER
   *DEL*:           000004H   BYTE   INSEG    CODE           ?PR?SPI_WR_BYTE?SEEKFREE_ABSOLUTE_ENCODER
   *DEL*:           000024H   BYTE   INSEG    CODE           ?PR?SET_ZERO_POSITION_SIMSPI?SEEKFREE_ABSOLUTE_ENCODER
   *DEL*:           000023H   BYTE   INSEG    CODE           ?PR?ENCODER_ANGLE_SIMSPI?SEEKFREE_ABSOLUTE_ENCODER
   *DEL*:           00001CH   BYTE   INSEG    CODE           ?PR?SPI_R_REG_BYTE?SEEKFREE_ABSOLUTE_ENCODER
   *DEL*:           00001AH   BYTE   INSEG    CODE           ?PR?SPI_W_REG_BYTE?SEEKFREE_ABSOLUTE_ENCODER
   *DEL*:           00002FH   BYTE   INSEG    CODE           ?PR?ENCODER_SIMSPI_R_REG_BYTE?SEEKFREE_ABSOLUTE_ENCODER
   *DEL*:           000038H   BYTE   INSEG    CODE           ?PR?ENCODER_SIMSPI_W_REG_BYTE?SEEKFREE_ABSOLUTE_ENCODER
   *DEL*:           00000FH   BYTE   INSEG    CODE           ?PR?ENCODER_INIT_SIMSPI?SEEKFREE_ABSOLUTE_ENCODER
   *DEL*:           000024H   BYTE   INSEG    CODE           ?PR?SET_ZERO_POSITION_SPI?SEEKFREE_ABSOLUTE_ENCODER
   *DEL*:           00001FH   BYTE   INSEG    CODE           ?PR?SIMSPI_WR_BYTE?SEEKFREE_ABSOLUTE_ENCODER
   *DEL*:           000023H   BYTE   INSEG    CODE           ?PR?ENCODER_ANGLE_SPI?SEEKFREE_ABSOLUTE_ENCODER
   *DEL*:           000001H   BYTE   UNIT     EDATA          ?ED?ENCODER_SELF4_CHECK?SEEKFREE_ABSOLUTE_ENCODER
   *DEL*:           000001H   BYTE   UNIT     EDATA          ?ED?ENCODER_SELF5_CHECK?SEEKFREE_ABSOLUTE_ENCODER
   *DEL*:           00000FH   BYTE   INSEG    CODE           ?PR?SIMIIC_START?SEEKFREE_IIC
L251 LINKER/LOCATER V4.66.93.0                                                        07/11/2024  19:40:54  PAGE 9


   *DEL*:           000066H   BYTE   INSEG    CODE           ?PR?SIMIIC_READ_REGS?SEEKFREE_IIC
   *DEL*:           000001H   BYTE   INSEG    CODE           ?PR?SIMIIC_INIT?SEEKFREE_IIC
   *DEL*:           000034H   BYTE   INSEG    CODE           ?PR?SIMIIC_READ_REG?SEEKFREE_IIC
   *DEL*:           000011H   BYTE   INSEG    CODE           ?PR?SIMIIC_STOP?SEEKFREE_IIC
   *DEL*:           000022H   BYTE   INSEG    CODE           ?PR?SIMIIC_WRITE_REG?SEEKFREE_IIC
   *DEL*:           000020H   BYTE   INSEG    CODE           ?PR?SIMIIC_SENDACK?SEEKFREE_IIC
   *DEL*:           00003BH   BYTE   INSEG    CODE           ?PR?READ_CH?SEEKFREE_IIC
   *DEL*:           00002EH   BYTE   INSEG    CODE           ?PR?SEND_CH?SEEKFREE_IIC
   *DEL*:           00001CH   BYTE   INSEG    CODE           ?PR?SCCB_WAITACK?SEEKFREE_IIC
   *DEL*:           00000BH   BYTE   INSEG    CODE           ?PR?SIMIIC_DELAY?SEEKFREE_IIC
   *DEL*:           000005H   BYTE   UNIT     EDATA          ?ED?SIMIIC_READ_REGS?SEEKFREE_IIC
   *DEL*:           000055H   BYTE   INSEG    CODE           ?PR?MPU6050_INIT?SEEKFREE_MPU6050
   *DEL*:           00002CH   BYTE   INSEG    CODE           ?PR?MPU6050_SELF1_CHECK?SEEKFREE_MPU6050
   *DEL*:           000044H   BYTE   INSEG    CODE           ?PR?MPU6050_GET_GYRO?SEEKFREE_MPU6050
   *DEL*:           000044H   BYTE   INSEG    CODE           ?PR?MPU6050_GET_ACCDATA?SEEKFREE_MPU6050
   *DEL*:           000006H   BYTE   UNIT     EDATA          ?ED?MPU6050_GET_ACCDATA?SEEKFREE_MPU6050
   *DEL*:           000006H   BYTE   UNIT     EDATA          ?ED?MPU6050_GET_GYRO?SEEKFREE_MPU6050
   *DEL*:           000033H   BYTE   INSEG    CODE           ?PR?OLED_PUTPIXEL?SEEKFREE_OLED
   *DEL*:           000032H   BYTE   INSEG    CODE           ?PR?OLED_HEXASCII_SPI?SEEKFREE_OLED
   *DEL*:           000325H   BYTE   INSEG    CODE           ?PR?OLED_DIS_BMP_SPI?SEEKFREE_OLED
   *DEL*:           0000E8H   BYTE   INSEG    CODE           ?PR?OLED_P8X16STR_SPI?SEEKFREE_OLED
   *DEL*:           00002AH   BYTE   INSEG    CODE           ?PR?OLED_CLRPIXEL_SPI?SEEKFREE_OLED
   *DEL*:           000090H   BYTE   INSEG    CODE           ?PR?OLED_PRINT_CHINESE_SPI?SEEKFREE_OLED
   *DEL*:           000082H   BYTE   INSEG    CODE           ?PR?OLED_PRINTF_INT32?SEEKFREE_OLED
   *DEL*:           00001DH   BYTE   INSEG    CODE           ?PR?OLED_UINT16?SEEKFREE_OLED
   *DEL*:           000031H   BYTE   INSEG    CODE           ?PR?OLED_PUTPIXEL_SPI?SEEKFREE_OLED
   *DEL*:           000021H   BYTE   INSEG    CODE           ?PR?OLED_SET_POS_SPI?SEEKFREE_OLED
   *DEL*:           0000A9H   BYTE   INSEG    CODE           ?PR?OLED_P6X8STR?SEEKFREE_OLED
   *DEL*:           00004BH   BYTE   INSEG    CODE           ?PR?OLED_INT16?SEEKFREE_OLED
   *DEL*:           0000F8H   BYTE   INSEG    CODE           ?PR?OLED_PRINTF_FLOAT_SPI?SEEKFREE_OLED
   *DEL*:           00000AH   BYTE   INSEG    CODE           ?PR?OLED_WRCMD_SPI?SEEKFREE_OLED
   *DEL*:           00000AH   BYTE   INSEG    CODE           ?PR?OLED_WRDAT_SPI?SEEKFREE_OLED
   *DEL*:           000032H   BYTE   INSEG    CODE           ?PR?OLED_HEXASCII?SEEKFREE_OLED
   *DEL*:           000033H   BYTE   INSEG    CODE           ?PR?OLED_FILL_SPI?SEEKFREE_OLED
   *DEL*:           000082H   BYTE   INSEG    CODE           ?PR?OLED_PRINTF_INT32_SPI?SEEKFREE_OLED
   *DEL*:           00001DH   BYTE   INSEG    CODE           ?PR?OLED_UINT16_SPI?SEEKFREE_OLED
   *DEL*:           0000A9H   BYTE   INSEG    CODE           ?PR?OLED_P6X8STR_SPI?SEEKFREE_OLED
   *DEL*:           00004BH   BYTE   INSEG    CODE           ?PR?OLED_INT16_SPI?SEEKFREE_OLED
   *DEL*:           00033BH   BYTE   INSEG    CODE           ?PR?OLED_DIS_BMP?SEEKFREE_OLED
   *DEL*:           0000BFH   BYTE   INSEG    CODE           ?PR?OLED_INIT_SPI?SEEKFREE_OLED
   *DEL*:           00002CH   BYTE   INSEG    CODE           ?PR?OLED_CLRPIXEL?SEEKFREE_OLED
   *DEL*:           000090H   BYTE   INSEG    CODE           ?PR?OLED_PRINT_CHINESE?SEEKFREE_OLED
   *DEL*:           000005H   BYTE   UNIT     EDATA          ?ED?OLED_P6X8STR?SEEKFREE_OLED
   *DEL*:           000007H   BYTE   UNIT     EDATA          ?ED?OLED_UINT16?SEEKFREE_OLED
   *DEL*:           000007H   BYTE   UNIT     EDATA          ?ED?OLED_INT16?SEEKFREE_OLED
   *DEL*:           000028H   BYTE   UNIT     EDATA          ?ED?OLED_PRINTF_INT32?SEEKFREE_OLED
   *DEL*:           00000CH   BYTE   UNIT     EDATA          ?ED?OLED_DIS_BMP?SEEKFREE_OLED
   *DEL*:           00000AH   BYTE   UNIT     EDATA          ?ED?OLED_PRINT_CHINESE?SEEKFREE_OLED
   *DEL*:           000005H   BYTE   UNIT     EDATA          ?ED?OLED_P6X8STR_SPI?SEEKFREE_OLED
   *DEL*:           000005H   BYTE   UNIT     EDATA          ?ED?OLED_P8X16STR_SPI?SEEKFREE_OLED
   *DEL*:           000007H   BYTE   UNIT     EDATA          ?ED?OLED_UINT16_SPI?SEEKFREE_OLED
   *DEL*:           000007H   BYTE   UNIT     EDATA          ?ED?OLED_INT16_SPI?SEEKFREE_OLED
   *DEL*:           000028H   BYTE   UNIT     EDATA          ?ED?OLED_PRINTF_INT32_SPI?SEEKFREE_OLED
   *DEL*:           00002BH   BYTE   UNIT     EDATA          ?ED?OLED_PRINTF_FLOAT_SPI?SEEKFREE_OLED
   *DEL*:           00000CH   BYTE   UNIT     EDATA          ?ED?OLED_DIS_BMP_SPI?SEEKFREE_OLED
   *DEL*:           00000AH   BYTE   UNIT     EDATA          ?ED?OLED_PRINT_CHINESE_SPI?SEEKFREE_OLED
   *DEL*:           00005EH   BYTE   INSEG    CODE           ?PR?AT24C02_READ_BYTES?SEEKFREE_AT24C02
   *DEL*:           000017H   BYTE   INSEG    CODE           ?PR?AT24C02_READ_BYTE?SEEKFREE_AT24C02
   *DEL*:           00005BH   BYTE   INSEG    CODE           ?PR?AT24C02_WRITE_BYTES?SEEKFREE_AT24C02
   *DEL*:           000019H   BYTE   INSEG    CODE           ?PR?AT24C02_WRITE_BYTE?SEEKFREE_AT24C02
   *DEL*:           000002H   BYTE   UNIT     EDATA          ?ED?AT24C02_WRITE_BYTES?SEEKFREE_AT24C02
   *DEL*:           000002H   BYTE   UNIT     EDATA          ?ED?AT24C02_READ_BYTES?SEEKFREE_AT24C02
   *DEL*:           000022H   BYTE   INSEG    CODE           ?PR?BLUETOOTH_CH9141_READ_BUFF?SEEKFREE_BLUETOOTH_CH9141
   *DEL*:           0000ABH   BYTE   INSEG    CODE           ?PR?BLUETOOTH_CH9141_SEND_BUFF?SEEKFREE_BLUETOOTH_CH9141
   *DEL*:           00003CH   BYTE   INSEG    CODE           ?PR?BLUETOOTH_CH9141_INIT?SEEKFREE_BLUETOOTH_CH9141
L251 LINKER/LOCATER V4.66.93.0                                                        07/11/2024  19:40:54  PAGE 10


   *DEL*:           000006H   BYTE   UNIT     EDATA          ?ED?BLUETOOTH_CH9141_SEND_BUFF?SEEKFREE_BLUETOOTH_CH9141
   *DEL*:           000004H   BYTE   UNIT     EDATA          ?ED?BLUETOOTH_CH9141_READ_BUFF?SEEKFREE_BLUETOOTH_CH9141
   *DEL*:           00001FH   BYTE   INSEG    CODE           ?PR?ICM_SIMSPI_WR_BYTE?SEEKFREE_ICM20602
   *DEL*:           000075H   BYTE   INSEG    CODE           ?PR?ICM20602_INIT_SIMIIC?SEEKFREE_ICM20602
   *DEL*:           000040H   BYTE   INSEG    CODE           ?PR?ICM_SIMSPI_R_REG_BYTES?SEEKFREE_ICM20602
   *DEL*:           00001CH   BYTE   INSEG    CODE           ?PR?ICM_SIMSPI_R_REG_BYTE?SEEKFREE_ICM20602
   *DEL*:           000013H   BYTE   INSEG    CODE           ?PR?ICM_SIMSPI_W_REG_BYTE?SEEKFREE_ICM20602
   *DEL*:           000059H   BYTE   INSEG    CODE           ?PR?ICM20602_INIT_SIMSPI?SEEKFREE_ICM20602
   *DEL*:           00002BH   BYTE   INSEG    CODE           ?PR?ICM20602_SELF1_CHECK?SEEKFREE_ICM20602
   *DEL*:           000011H   BYTE   INSEG    CODE           ?PR?ICM20602_SELF4_CHECK?SEEKFREE_ICM20602
   *DEL*:           000044H   BYTE   INSEG    CODE           ?PR?GET_ICM20602_GYRO_SIMIIC?SEEKFREE_ICM20602
   *DEL*:           000044H   BYTE   INSEG    CODE           ?PR?GET_ICM20602_ACCDATA_SIMIIC?SEEKFREE_ICM20602
   *DEL*:           00003DH   BYTE   INSEG    CODE           ?PR?GET_ICM20602_GYRO_SIMSPI?SEEKFREE_ICM20602
   *DEL*:           00003DH   BYTE   INSEG    CODE           ?PR?GET_ICM20602_ACCDATA_SIMSPI?SEEKFREE_ICM20602
   *DEL*:           000006H   BYTE   UNIT     EDATA          ?ED?GET_ICM20602_ACCDATA_SIMIIC?SEEKFREE_ICM20602
   *DEL*:           000006H   BYTE   UNIT     EDATA          ?ED?GET_ICM20602_GYRO_SIMIIC?SEEKFREE_ICM20602
   *DEL*:           000003H   BYTE   UNIT     EDATA          ?ED?ICM_SIMSPI_R_REG_BYTES?SEEKFREE_ICM20602
   *DEL*:           000001H   BYTE   UNIT     EDATA          ?ED?ICM20602_SELF4_CHECK?SEEKFREE_ICM20602
   *DEL*:           000001H   BYTE   UNIT     EDATA          ?ED?ICM20602_INIT_SIMSPI?SEEKFREE_ICM20602
   *DEL*:           000006H   BYTE   UNIT     EDATA          ?ED?GET_ICM20602_ACCDATA_SIMSPI?SEEKFREE_ICM20602
   *DEL*:           000006H   BYTE   UNIT     EDATA          ?ED?GET_ICM20602_GYRO_SIMSPI?SEEKFREE_ICM20602
   *DEL*:           00007BH   BYTE   INSEG    CODE           ?PR?IPS114_SHOWUINT8_SIMSPI?SEEKFREE_IPS114_SPI
   *DEL*:           000077H   BYTE   INSEG    CODE           ?PR?IPS114_SHOWUINT8?SEEKFREE_IPS114_SPI
   *DEL*:           0000B9H   BYTE   INSEG    CODE           ?PR?IPS114_SHOWINT8_SIMSPI?SEEKFREE_IPS114_SPI
   *DEL*:           0000B5H   BYTE   INSEG    CODE           ?PR?IPS114_SHOWINT8?SEEKFREE_IPS114_SPI
   *DEL*:           00001FH   BYTE   INSEG    CODE           ?PR?IPS114_WRITEDATA_16BIT?SEEKFREE_IPS114_SPI
   *DEL*:           0000F8H   BYTE   INSEG    CODE           ?PR?IPS114_SHOWFLOAT_SIMSPI?SEEKFREE_IPS114_SPI
   *DEL*:           000013H   BYTE   INSEG    CODE           ?PR?IPS114_DRAWPOINT_SIMSPI?SEEKFREE_IPS114_SPI
   *DEL*:           0000F8H   BYTE   INSEG    CODE           ?PR?IPS114_SHOWFLOAT?SEEKFREE_IPS114_SPI
   *DEL*:           000013H   BYTE   INSEG    CODE           ?PR?IPS114_DRAWPOINT?SEEKFREE_IPS114_SPI
   *DEL*:           00008EH   BYTE   INSEG    CODE           ?PR?IPS114_SHOWCHAR_SIMSPI?SEEKFREE_IPS114_SPI
   *DEL*:           00008EH   BYTE   INSEG    CODE           ?PR?IPS114_SHOWCHAR?SEEKFREE_IPS114_SPI
   *DEL*:           00008BH   BYTE   INSEG    CODE           ?PR?IPS114_SHOWUINT16_SIMSPI?SEEKFREE_IPS114_SPI
   *DEL*:           00008BH   BYTE   INSEG    CODE           ?PR?IPS114_SHOWUINT16?SEEKFREE_IPS114_SPI
   *DEL*:           000082H   BYTE   INSEG    CODE           ?PR?IPS114_SHOWINT32_SIMSPI?SEEKFREE_IPS114_SPI
   *DEL*:           0000DDH   BYTE   INSEG    CODE           ?PR?IPS114_SHOWINT16_SIMSPI?SEEKFREE_IPS114_SPI
   *DEL*:           000082H   BYTE   INSEG    CODE           ?PR?IPS114_SHOWINT32?SEEKFREE_IPS114_SPI
   *DEL*:           0000D9H   BYTE   INSEG    CODE           ?PR?IPS114_SHOWINT16?SEEKFREE_IPS114_SPI
   *DEL*:           00003CH   BYTE   INSEG    CODE           ?PR?IPS114_CLEAR_SIMSPI?SEEKFREE_IPS114_SPI
   *DEL*:           00003CH   BYTE   INSEG    CODE           ?PR?IPS114_CLEAR?SEEKFREE_IPS114_SPI
   *DEL*:           00002CH   BYTE   INSEG    CODE           ?PR?IPS114_WRITEDATAI_16BIT_SIMSPI?SEEKFREE_IPS114_SPI
   *DEL*:           00004EH   BYTE   INSEG    CODE           ?PR?IPS114_SHOWSTR_SIMSPI?SEEKFREE_IPS114_SPI
   *DEL*:           00004EH   BYTE   INSEG    CODE           ?PR?IPS114_SHOWSTR?SEEKFREE_IPS114_SPI
   *DEL*:           000029H   BYTE   INSEG    CODE           ?PR?IPS114_WRITEINDEX_SIMSPI?SEEKFREE_IPS114_SPI
   *DEL*:           000029H   BYTE   INSEG    CODE           ?PR?IPS114_WRITEDATA_SIMSPI?SEEKFREE_IPS114_SPI
   *DEL*:           00000AH   BYTE   INSEG    CODE           ?PR?IPS114_WRITEINDEX?SEEKFREE_IPS114_SPI
   *DEL*:           00000AH   BYTE   INSEG    CODE           ?PR?IPS114_WRITEDATA?SEEKFREE_IPS114_SPI
   *DEL*:           000044H   BYTE   INSEG    CODE           ?PR?IPS114_SET_REGION_SIMSPI?SEEKFREE_IPS114_SPI
   *DEL*:           00014FH   BYTE   INSEG    CODE           ?PR?IPS114_INIT_SIMSPI?SEEKFREE_IPS114_SPI
   *DEL*:           000048H   BYTE   INSEG    CODE           ?PR?IPS114_SET_REGION?SEEKFREE_IPS114_SPI
   *DEL*:           00016DH   BYTE   INSEG    CODE           ?PR?IPS114_INIT?SEEKFREE_IPS114_SPI
   *DEL*:           000004H   BYTE   UNIT     EDATA          ?ED?IPS114_SET_REGION_SIMSPI?SEEKFREE_IPS114_SPI
   *DEL*:           000002H   BYTE   UNIT     EDATA          ?ED?IPS114_CLEAR_SIMSPI?SEEKFREE_IPS114_SPI
   *DEL*:           000004H   BYTE   UNIT     EDATA          ?ED?IPS114_SHOWCHAR_SIMSPI?SEEKFREE_IPS114_SPI
   *DEL*:           000006H   BYTE   UNIT     EDATA          ?ED?IPS114_SHOWSTR_SIMSPI?SEEKFREE_IPS114_SPI
   *DEL*:           000005H   BYTE   UNIT     EDATA          ?ED?IPS114_SHOWINT8_SIMSPI?SEEKFREE_IPS114_SPI
   *DEL*:           000004H   BYTE   UNIT     EDATA          ?ED?IPS114_SHOWUINT8_SIMSPI?SEEKFREE_IPS114_SPI
   *DEL*:           000008H   BYTE   UNIT     EDATA          ?ED?IPS114_SHOWINT16_SIMSPI?SEEKFREE_IPS114_SPI
   *DEL*:           000006H   BYTE   UNIT     EDATA          ?ED?IPS114_SHOWUINT16_SIMSPI?SEEKFREE_IPS114_SPI
   *DEL*:           000028H   BYTE   UNIT     EDATA          ?ED?IPS114_SHOWINT32_SIMSPI?SEEKFREE_IPS114_SPI
   *DEL*:           00002BH   BYTE   UNIT     EDATA          ?ED?IPS114_SHOWFLOAT_SIMSPI?SEEKFREE_IPS114_SPI
   *DEL*:           000002H   BYTE   UNIT     EDATA          ?ED?IPS114_WRITEDATA_16BIT?SEEKFREE_IPS114_SPI
   *DEL*:           000004H   BYTE   UNIT     EDATA          ?ED?IPS114_SET_REGION?SEEKFREE_IPS114_SPI
   *DEL*:           000002H   BYTE   UNIT     EDATA          ?ED?IPS114_CLEAR?SEEKFREE_IPS114_SPI
   *DEL*:           000004H   BYTE   UNIT     EDATA          ?ED?IPS114_SHOWCHAR?SEEKFREE_IPS114_SPI
L251 LINKER/LOCATER V4.66.93.0                                                        07/11/2024  19:40:54  PAGE 11


   *DEL*:           000006H   BYTE   UNIT     EDATA          ?ED?IPS114_SHOWSTR?SEEKFREE_IPS114_SPI
   *DEL*:           000005H   BYTE   UNIT     EDATA          ?ED?IPS114_SHOWINT8?SEEKFREE_IPS114_SPI
   *DEL*:           000004H   BYTE   UNIT     EDATA          ?ED?IPS114_SHOWUINT8?SEEKFREE_IPS114_SPI
   *DEL*:           000008H   BYTE   UNIT     EDATA          ?ED?IPS114_SHOWINT16?SEEKFREE_IPS114_SPI
   *DEL*:           000006H   BYTE   UNIT     EDATA          ?ED?IPS114_SHOWUINT16?SEEKFREE_IPS114_SPI
   *DEL*:           000028H   BYTE   UNIT     EDATA          ?ED?IPS114_SHOWINT32?SEEKFREE_IPS114_SPI
   *DEL*:           00002BH   BYTE   UNIT     EDATA          ?ED?IPS114_SHOWFLOAT?SEEKFREE_IPS114_SPI
   *DEL*:           000070H   BYTE   INSEG    CODE           ?PR?CCD_SEND_DATA?SEEKFREE_TSL1401
   *DEL*:           000016H   BYTE   INSEG    CODE           ?PR?CCD_INIT?SEEKFREE_TSL1401
   *DEL*:           000035H   BYTE   INSEG    CODE           ?PR?CCD_COLLECT?SEEKFREE_TSL1401
   *DEL*:           000003H   BYTE   UNIT     EDATA          ?ED?CCD_SEND_DATA?SEEKFREE_TSL1401
   *DEL*:           00003AH   BYTE   INSEG    CODE           ?PR?CRC_CHECK?SEEKFREE_VIRSCO
   *DEL*:           000069H   BYTE   INSEG    CODE           ?PR?DATA_CONVERSION?SEEKFREE_VIRSCO
   *DEL*:           000004H   BYTE   UNIT     EDATA          ?ED?DATA_CONVERSION?SEEKFREE_VIRSCO
   *DEL*:           000022H   BYTE   INSEG    CODE           ?PR?WIRELESS_UART_READ_BUFF?SEEKFREE_WIRELESS
   *DEL*:           00005DH   BYTE   INSEG    CODE           ?PR?WIRELESS_UART_SEND_BUFF?SEEKFREE_WIRELESS
   *DEL*:           00003CH   BYTE   INSEG    CODE           ?PR?WIRELESS_UART_INIT?SEEKFREE_WIRELESS
   *DEL*:           000002H   BYTE   UNIT     EDATA          ?ED?WIRELESS_UART_SEND_BUFF?SEEKFREE_WIRELESS
   *DEL*:           000004H   BYTE   UNIT     EDATA          ?ED?WIRELESS_UART_READ_BUFF?SEEKFREE_WIRELESS
   *DEL*:           000022H   BYTE   INSEG    CODE           ?PR?WIRELESS_CH573_READ_BUFF?SEEKFREE_WIRELESS_CH573
   *DEL*:           00005DH   BYTE   INSEG    CODE           ?PR?WIRELESS_CH573_SEND_BUFF?SEEKFREE_WIRELESS_CH573
   *DEL*:           00003CH   BYTE   INSEG    CODE           ?PR?WIRELESS_CH573_INIT?SEEKFREE_WIRELESS_CH573
   *DEL*:           000002H   BYTE   UNIT     EDATA          ?ED?WIRELESS_CH573_SEND_BUFF?SEEKFREE_WIRELESS_CH573
   *DEL*:           000004H   BYTE   UNIT     EDATA          ?ED?WIRELESS_CH573_READ_BUFF?SEEKFREE_WIRELESS_CH573
   *DEL*:           000012H   BYTE   INSEG    CODE           ?PR?MOTOR_TEST?MOTOR
   *DEL*:           000011H   BYTE   INSEG    CODE           ?PR?NUM2ABS?MOTOR
   *DEL*:           000013H   BYTE   INSEG    CODE           ?PR?MPU_SET_GYRO_FSR?MPU6050
   *DEL*:           000058H   BYTE   INSEG    CODE           ?PR?MPU_GET_ACCELEROMETER?MPU6050
   *DEL*:           000041H   BYTE   INSEG    CODE           ?PR?MPU_SET_LPF?MPU6050
   *DEL*:           000016H   BYTE   INSEG    CODE           ?PR?MPU_READ_BYTE?MPU6050
   *DEL*:           000013H   BYTE   INSEG    CODE           ?PR?MPU_SET_ACCEL_FSR?MPU6050
   *DEL*:           000031H   BYTE   INSEG    CODE           ?PR?ZERO_ALL?MPU6050
   *DEL*:           000069H   BYTE   INSEG    CODE           ?PR?MPU_INIT?MPU6050
   *DEL*:           00003BH   BYTE   INSEG    CODE           ?PR?MPU_GET_TEMPERATURE?MPU6050
   *DEL*:           000037H   BYTE   INSEG    CODE           ?PR?MPU_SET_RATE?MPU6050
   *DEL*:           000001H   BYTE   UNIT     EDATA          ?ED?MPU_READ_BYTE?MPU6050
   *DEL*:           000002H   BYTE   UNIT     EDATA          ?ED?MPU_GET_TEMPERATURE?MPU6050
   *DEL*:           00000EH   BYTE   UNIT     EDATA          ?ED?MPU_GET_ACCELEROMETER?MPU6050
   *DEL*:           00002DH   BYTE   INSEG    CODE           ?PR?OLED_CHANGE_VALUE?UI
   *DEL*:           00005FH   BYTE   INSEG    CODE           ?PR?SONAR?HCSR04
   *DEL*:           00002CH   BYTE   INSEG    CODE           ?PR?HC_SR04_INIT?HCSR04



OVERLAY MAP OF MODULE:   .\Out_File\SEEKFREE (board)


FUNCTION/MODULE                               EDATA_GROUP
--> CALLED FUNCTION/MODULE                    START  STOP
=========================================================
UART1_Isr/isr                                 ----- -----

*** NEW ROOT ********************************

UART2_Isr/isr                                 ----- -----

*** NEW ROOT ********************************

UART3_Isr/isr                                 ----- -----

*** NEW ROOT ********************************

UART4_Isr/isr                                 ----- -----
  +--> wireless_uart_callback/SEEKFREE_WIRELESS
  +--> bluetooth_ch9141_uart_callback/SEEKFREE_BLUETOOTH_CH9141
L251 LINKER/LOCATER V4.66.93.0                                                        07/11/2024  19:40:54  PAGE 12


  +--> wireless_ch573_callback/SEEKFREE_WIRELESS_CH573

wireless_uart_callback/SEEKFREE_WIRELESS      ----- -----
  +--> fifo_write_buffer/zf_fifo

fifo_write_buffer/zf_fifo                     03EEH 03F9H
  +--> memcpy?_/memcpy
  +--> fifo_head_offset/zf_fifo

memcpy?_/memcpy                               ----- -----

fifo_head_offset/zf_fifo                      ----- -----

bluetooth_ch9141_uart_callback/SEEKFREE_+     ----- -----
... BLUETOOTH_CH9141
  +--> fifo_write_buffer/zf_fifo

wireless_ch573_callback/SEEKFREE_WIRELES+     ----- -----
... S_CH573
  +--> fifo_write_buffer/zf_fifo

*** NEW ROOT ********************************

INT0_Isr/isr                                  ----- -----

*** NEW ROOT ********************************

INT1_Isr/isr                                  ----- -----

*** NEW ROOT ********************************

INT2_Isr/isr                                  ----- -----

*** NEW ROOT ********************************

INT3_Isr/isr                                  ----- -----

*** NEW ROOT ********************************

INT4_Isr/isr                                  ----- -----

*** NEW ROOT ********************************

TM0_Isr/isr                                   ----- -----

*** NEW ROOT ********************************

TM1_Isr/isr                                   ----- -----

*** NEW ROOT ********************************

TM2_Isr/isr                                   ----- -----

*** NEW ROOT ********************************

TM3_Isr/isr                                   ----- -----

*** NEW ROOT ********************************

TM4_Isr/isr                                   ----- -----
  +--> Get_Speed/motor
  +--> ADC_GetValue/ADC
  +--> Get_Ratio/isr
  +--> vl53l0x_get_distance/TOF
  +--> Elem_Circle/Element
L251 LINKER/LOCATER V4.66.93.0                                                        07/11/2024  19:40:54  PAGE 13


  +--> Elem_Barrier_Timer/Element
  +--> Limit_Out/motor
  +--> PID_Calculate/PID
  +--> PID_Incremental_Calc/PID
  +--> abs?_/ABS
  +--> Left_SetSpeed/motor
  +--> Right_SetSpeed/motor
  +--> pwm_duty/zf_pwm

Get_Speed/motor                               ----- -----
  +--> ctimer_count_read/zf_tim
  +--> ctimer_count_clean/zf_tim

ctimer_count_read/zf_tim                      ----- -----

ctimer_count_clean/zf_tim                     ----- -----

ADC_GetValue/ADC                              ----- -----
  +--> adc_once/zf_adc

adc_once/zf_adc                               ----- -----

Get_Ratio/isr                                 ----- -----

vl53l0x_get_distance/TOF                      03FAH 03FCH
  +--> vl53l0x_simiic_read_regs_1/TOF
  +--> abs?_/ABS

vl53l0x_simiic_read_regs_1/TOF                03FDH 0402H
  +--> vl53l0x_simiic_start/TOF
  +--> vl53l0x_send_ch/TOF
  +--> vl53l0x_read_ch/TOF
  +--> vl53l0x_simiic_stop/TOF

vl53l0x_simiic_start/TOF                      ----- -----
  +--> vl53l0x_simiic_delay/TOF

vl53l0x_simiic_delay/TOF                      ----- -----

vl53l0x_send_ch/TOF                           ----- -----
  +--> vl53l0x_simiic_delay/TOF
  +--> vl53l0x_sccb_waitack/TOF

vl53l0x_sccb_waitack/TOF                      ----- -----
  +--> vl53l0x_simiic_delay/TOF

vl53l0x_read_ch/TOF                           ----- -----
  +--> vl53l0x_simiic_delay/TOF
  +--> vl53l0x_simiic_sendack/TOF

vl53l0x_simiic_sendack/TOF                    ----- -----
  +--> vl53l0x_simiic_delay/TOF

vl53l0x_simiic_stop/TOF                       ----- -----
  +--> vl53l0x_simiic_delay/TOF

abs?_/ABS                                     ----- -----

Elem_Circle/Element                           ----- -----

Elem_Barrier_Timer/Element                    ----- -----

Limit_Out/motor                               0402H 0405H

PID_Calculate/PID                             03FAH 03FDH
L251 LINKER/LOCATER V4.66.93.0                                                        07/11/2024  19:40:54  PAGE 14



PID_Incremental_Calc/PID                      03FAH 0401H
  +--> Limit_Out/motor

Left_SetSpeed/motor                           ----- -----
  +--> abs?_/ABS
  +--> pwm_duty/zf_pwm

pwm_duty/zf_pwm                               ----- -----

Right_SetSpeed/motor                          ----- -----
  +--> abs?_/ABS
  +--> pwm_duty/zf_pwm

*** NEW ROOT ********************************

?C_C51STARTUP                                 ----- -----

*** NEW ROOT ********************************

?C_C51STARTUP?3                               ----- -----
  +--> main/main

main/main                                     ----- -----
  +--> Init_all/main
  +--> EnableGlobalIRQ/board
  +--> PRINTF/PRINTF
  +--> ui_show/UI
  +--> GetKey_Value/Key
  +--> oled_all_static_state/UI
  +--> MPU6050_Refresh_DMP/MPU6050
  +--> MPU_Get_Gyroscope/MPU6050
  +--> Filter_Window/main
  +--> Speed_Gain/main
  +--> Elem_Up_Down/Element

Init_all/main                                 ----- -----
  +--> DisableGlobalIRQ/board
  +--> board_init/board
  +--> gpio_mode/zf_gpio
  +--> Key_Init/Key
  +--> vl53l0x_init/TOF
  +--> ui_init/UI
  +--> MPU6050_DMP_Init/MPU6050
  +--> pit_timer_ms/zf_tim
  +--> ctimer_count_init/zf_tim
  +--> Motor_Init/motor
  +--> Buzzer_Init/Buzzer
  +--> ADC_InitAll/ADC
  +--> PID_Init/PID
  +--> PID_Incremental_Init/PID

DisableGlobalIRQ/board                        ----- -----

board_init/board                              ----- -----
  +--> delay_init/zf_delay
  +--> uart_init/zf_uart

delay_init/zf_delay                           ----- -----
  +--> ?C?SLDIV/?C?SLDIV

?C?SLDIV/?C?SLDIV                             ----- -----
  +--> ?C?ULIDIV/?C?ULDIV

?C?ULIDIV/?C?ULDIV                            ----- -----
L251 LINKER/LOCATER V4.66.93.0                                                        07/11/2024  19:40:54  PAGE 15



uart_init/zf_uart                             0406H 040BH
  +--> ?C?ULIDIV/?C?ULDIV

gpio_mode/zf_gpio                             ----- -----

Key_Init/Key                                  ----- -----
  +--> gpio_mode/zf_gpio

vl53l0x_init/TOF                              0406H 0417H
  +--> memset?_/memset
  +--> vl53l0x_simiic_read_reg/TOF
  +--> vl53l0x_simiic_write_reg/TOF
  +--> vl53l0x_simiic_read_regs/TOF
  +--> vl53l0x_set_signal_rate_limit/TOF
  +--> vl53l0x_get_spad_info/TOF
  +--> PRINTF/PRINTF
  +--> vl53l0x_simiic_write_dats/TOF
  +--> vl53l0x_get_measurement_timing_budget/TOF
  +--> vl53l0x_set_measurement_timing_budget/TOF
  +--> vl53l0x_perform_single_ref_calibration/TOF
  +--> delay_ms/zf_delay

memset?_/memset                               ----- -----

vl53l0x_simiic_read_reg/TOF                   ----- -----
  +--> vl53l0x_simiic_start/TOF
  +--> vl53l0x_send_ch/TOF
  +--> vl53l0x_read_ch/TOF
  +--> vl53l0x_simiic_stop/TOF

vl53l0x_simiic_write_reg/TOF                  ----- -----
  +--> vl53l0x_simiic_start/TOF
  +--> vl53l0x_send_ch/TOF
  +--> vl53l0x_simiic_stop/TOF

vl53l0x_simiic_read_regs/TOF                  0442H 0447H
  +--> vl53l0x_simiic_start/TOF
  +--> vl53l0x_send_ch/TOF
  +--> vl53l0x_read_ch/TOF
  +--> vl53l0x_simiic_stop/TOF

vl53l0x_set_signal_rate_limit/TOF             0418H 041AH
  +--> vl53l0x_simiic_write_dats/TOF

vl53l0x_simiic_write_dats/TOF                 043BH 043FH
  +--> vl53l0x_simiic_start/TOF
  +--> vl53l0x_send_ch/TOF
  +--> vl53l0x_simiic_stop/TOF

vl53l0x_get_spad_info/TOF                     0418H 041FH
  +--> vl53l0x_simiic_write_reg/TOF
  +--> vl53l0x_simiic_read_regs/TOF

PRINTF/PRINTF                                 0418H 043FH
  +--> OUT/PRINTF

OUT/PRINTF                                    ----- -----
  +--> PUTCH/PRINTF

PUTCH/PRINTF                                  ----- -----
  +--> putchar/board
  +--> OUT/PRINTF

putchar/board                                 ----- -----
L251 LINKER/LOCATER V4.66.93.0                                                        07/11/2024  19:40:54  PAGE 16


  +--> uart_putchar/zf_uart

uart_putchar/zf_uart                          ----- -----

vl53l0x_get_measurement_timing_budget/TO+     0418H 0432H
... F
  +--> vl53l0x_get_sequence_step_enables/TOF
  +--> vl53l0x_get_sequence_step_timeouts/TOF

vl53l0x_get_sequence_step_enables/TOF         043BH 043BH
  +--> vl53l0x_simiic_read_regs/TOF

vl53l0x_get_sequence_step_timeouts/TOF        043BH 0440H
  +--> vl53l0x_get_vcsel_pulse_period/TOF
  +--> vl53l0x_simiic_read_regs/TOF
  +--> vl53l0x_timeout_mclks_to_microseconds/TOF
  +--> vl53l0x_decode_timeout/TOF

vl53l0x_get_vcsel_pulse_period/TOF            0441H 0441H
  +--> vl53l0x_simiic_read_regs/TOF

vl53l0x_timeout_mclks_to_microseconds/TO+     ----- -----
... F
  +--> ?C?ULIDIV/?C?ULDIV

vl53l0x_decode_timeout/TOF                    ----- -----

vl53l0x_set_measurement_timing_budget/TO+     0418H 043AH
... F
  +--> vl53l0x_get_sequence_step_enables/TOF
  +--> vl53l0x_get_sequence_step_timeouts/TOF
  +--> vl53l0x_timeout_microseconds_to_mclks/TOF
  +--> vl53l0x_encode_timeout/TOF
  +--> vl53l0x_simiic_write_dats/TOF

vl53l0x_timeout_microseconds_to_mclks/TO+     ----- -----
... F
  +--> ?C?ULIDIV/?C?ULDIV

vl53l0x_encode_timeout/TOF                    ----- -----

vl53l0x_perform_single_ref_calibration/T+     0418H 041AH
... OF
  +--> vl53l0x_simiic_write_reg/TOF
  +--> vl53l0x_simiic_read_regs/TOF

delay_ms/zf_delay                             ----- -----

ui_init/UI                                    ----- -----
  +--> oled_init/SEEKFREE_OLED
  +--> value_name_init/UI
  +--> oled_all_static_state/UI

oled_init/SEEKFREE_OLED                       ----- -----
  +--> delay_ms/zf_delay
  +--> oled_wrcmd/SEEKFREE_OLED
  +--> oled_fill/SEEKFREE_OLED
  +--> oled_set_pos/SEEKFREE_OLED

oled_wrcmd/SEEKFREE_OLED                      ----- -----

oled_fill/SEEKFREE_OLED                       ----- -----
  +--> oled_wrcmd/SEEKFREE_OLED
  +--> oled_wrdat/SEEKFREE_OLED

L251 LINKER/LOCATER V4.66.93.0                                                        07/11/2024  19:40:54  PAGE 17


oled_wrdat/SEEKFREE_OLED                      ----- -----

oled_set_pos/SEEKFREE_OLED                    ----- -----
  +--> oled_wrcmd/SEEKFREE_OLED

value_name_init/UI                            ----- -----
  +--> STRCPY?_/STRCPY?_

STRCPY?_/STRCPY?_                             ----- -----

oled_all_static_state/UI                      ----- -----
  +--> oled_p8x16str/SEEKFREE_OLED

oled_p8x16str/SEEKFREE_OLED                   0431H 0435H
  +--> oled_set_pos/SEEKFREE_OLED
  +--> oled_wrdat/SEEKFREE_OLED

MPU6050_DMP_Init/MPU6050                      ----- -----
  +--> initMPU6050/MPU6050
  +--> getDeviceID/MPU6050
  +--> dmpInitialize/MPU6050
  +--> MPU_Write_Bit/MPU6050

initMPU6050/MPU6050                           ----- -----
  +--> MPU_Write_Bits/MPU6050
  +--> MPU_Write_Bit/MPU6050

MPU_Write_Bits/MPU6050                        ----- -----
  +--> i2c_write_bits/MPU6050

i2c_write_bits/MPU6050                        040CH 040CH
  +--> i2c_mem_read/MPU6050
  +--> i2c_mem_write/MPU6050

i2c_mem_read/MPU6050                          0414H 0417H
  +--> i2c_start/MPU6050
  +--> i2c_write_byte/MPU6050
  +--> i2c_wait_ack/MPU6050
  +--> i2c_read_byte/MPU6050
  +--> i2c_stop/MPU6050

i2c_start/MPU6050                             ----- -----
  +--> I2C_SDA_H/MPU6050
  +--> I2C_SCL_H/MPU6050
  +--> i2c_delay/MPU6050
  +--> I2C_SDA_L/MPU6050
  +--> I2C_SCL_L/MPU6050

I2C_SDA_H/MPU6050                             ----- -----

I2C_SCL_H/MPU6050                             ----- -----

i2c_delay/MPU6050                             ----- -----

I2C_SDA_L/MPU6050                             ----- -----

I2C_SCL_L/MPU6050                             ----- -----

i2c_write_byte/MPU6050                        ----- -----
  +--> I2C_SCL_L/MPU6050
  +--> I2C_SDA_H/MPU6050
  +--> I2C_SDA_L/MPU6050
  +--> i2c_delay/MPU6050
  +--> I2C_SCL_H/MPU6050

L251 LINKER/LOCATER V4.66.93.0                                                        07/11/2024  19:40:54  PAGE 18


i2c_wait_ack/MPU6050                          ----- -----
  +--> I2C_SCL_H/MPU6050
  +--> i2c_delay/MPU6050
  +--> i2c_timeout_delay/MPU6050
  +--> i2c_stop/MPU6050
  +--> I2C_SDA_Read/MPU6050
  +--> I2C_SCL_L/MPU6050

i2c_timeout_delay/MPU6050                     ----- -----

i2c_stop/MPU6050                              ----- -----
  +--> I2C_SDA_L/MPU6050
  +--> I2C_SCL_H/MPU6050
  +--> i2c_delay/MPU6050
  +--> I2C_SDA_H/MPU6050

I2C_SDA_Read/MPU6050                          ----- -----

i2c_read_byte/MPU6050                         ----- -----
  +--> I2C_SCL_L/MPU6050
  +--> i2c_delay/MPU6050
  +--> I2C_SCL_H/MPU6050
  +--> I2C_SDA_Read/MPU6050
  +--> i2c_nack/MPU6050
  +--> i2c_ack/MPU6050

i2c_nack/MPU6050                              ----- -----
  +--> I2C_SCL_L/MPU6050
  +--> I2C_SDA_H/MPU6050
  +--> i2c_delay/MPU6050
  +--> I2C_SCL_H/MPU6050

i2c_ack/MPU6050                               ----- -----
  +--> I2C_SCL_L/MPU6050
  +--> I2C_SDA_L/MPU6050
  +--> i2c_delay/MPU6050
  +--> I2C_SCL_H/MPU6050
  +--> I2C_SDA_H/MPU6050

i2c_mem_write/MPU6050                         040FH 0412H
  +--> i2c_start/MPU6050
  +--> i2c_write_byte/MPU6050
  +--> i2c_wait_ack/MPU6050
  +--> i2c_stop/MPU6050

MPU_Write_Bit/MPU6050                         ----- -----
  +--> i2c_write_bit/MPU6050

i2c_write_bit/MPU6050                         040CH 040CH
  +--> i2c_mem_read/MPU6050
  +--> i2c_mem_write/MPU6050

getDeviceID/MPU6050                           0406H 0406H
  +--> MPU_Read_Bits/MPU6050

MPU_Read_Bits/MPU6050                         ----- -----
  +--> i2c_read_bits/MPU6050

i2c_read_bits/MPU6050                         040CH 040FH
  +--> i2c_mem_read/MPU6050

dmpInitialize/MPU6050                         0406H 040BH
  +--> MPU_Write_Bit/MPU6050
  +--> MPU_Delay_Ms/MPU6050
  +--> MPU_Write_Byte/MPU6050
L251 LINKER/LOCATER V4.66.93.0                                                        07/11/2024  19:40:54  PAGE 19


  +--> MPU_Read_Len/MPU6050
  +--> MPU_Read_Bit/MPU6050
  +--> MPU_Read_Bits/MPU6050
  +--> loadfirmware/MPU6050
  +--> loadcfgupd/MPU6050
  +--> MPU_Write_Bits/MPU6050
  +--> xdmpUpdates/MPU6050
  +--> getFIFOCount/MPU6050

MPU_Delay_Ms/MPU6050                          ----- -----
  +--> Delay1ms/MPU6050

Delay1ms/MPU6050                              ----- -----

MPU_Write_Byte/MPU6050                        040EH 040EH
  +--> i2c_mem_write/MPU6050

MPU_Read_Len/MPU6050                          ----- -----
  +--> i2c_mem_read/MPU6050

MPU_Read_Bit/MPU6050                          ----- -----
  +--> i2c_read_bit/MPU6050

i2c_read_bit/MPU6050                          040CH 040DH
  +--> i2c_mem_read/MPU6050

loadfirmware/MPU6050                          040CH 040DH
  +--> MPU_Write_Byte/MPU6050
  +--> MPU_Write_Len/MPU6050

MPU_Write_Len/MPU6050                         ----- -----
  +--> i2c_mem_write/MPU6050

loadcfgupd/MPU6050                            040CH 040DH
  +--> MPU_Write_Byte/MPU6050
  +--> MPU_Write_Len/MPU6050

xdmpUpdates/MPU6050                           040CH 040CH
  +--> MPU_Write_Byte/MPU6050
  +--> MPU_Write_Len/MPU6050

getFIFOCount/MPU6050                          040CH 040DH
  +--> MPU_Read_Len/MPU6050

pit_timer_ms/zf_tim                           ----- -----
  +--> ?C?SLDIV/?C?SLDIV

ctimer_count_init/zf_tim                      ----- -----

Motor_Init/motor                              ----- -----
  +--> pwm_init/zf_pwm

pwm_init/zf_pwm                               0406H 040DH
  +--> pwm_set_gpio/zf_pwm
  +--> ?C?ULIDIV/?C?ULDIV

pwm_set_gpio/zf_pwm                           ----- -----
  +--> gpio_mode/zf_gpio

Buzzer_Init/Buzzer                            ----- -----
  +--> pwm_init/zf_pwm

ADC_InitAll/ADC                               ----- -----
  +--> adc_init/zf_adc

L251 LINKER/LOCATER V4.66.93.0                                                        07/11/2024  19:40:54  PAGE 20


adc_init/zf_adc                               ----- -----

PID_Init/PID                                  0406H 0419H

PID_Incremental_Init/PID                      0406H 0416H

EnableGlobalIRQ/board                         ----- -----

ui_show/UI                                    ----- -----
  +--> refresh_value/UI
  +--> oled_show/UI

refresh_value/UI                              ----- -----

oled_show/UI                                  ----- -----
  +--> refresh_value/UI
  +--> oled_printf_float/SEEKFREE_OLED

oled_printf_float/SEEKFREE_OLED               0406H 0430H
  +--> zf_sprintf/SEEKFREE_PRINTF
  +--> oled_p8x16str/SEEKFREE_OLED

zf_sprintf/SEEKFREE_PRINTF                    0431H 048FH
  +--> number_conversion_ascii/SEEKFREE_PRINTF
  +--> printf_reverse_order/SEEKFREE_PRINTF
  +--> memcpy?_/memcpy

number_conversion_ascii/SEEKFREE_PRINTF       0490H 0490H
  +--> ?C?SLDIV/?C?SLDIV
  +--> ?C?ULIDIV/?C?ULDIV

printf_reverse_order/SEEKFREE_PRINTF          ----- -----

GetKey_Value/Key                              ----- -----

MPU6050_Refresh_DMP/MPU6050                   ----- -----
  +--> getFIFOCount/MPU6050
  +--> MPU_Read_Len/MPU6050
  +--> MPU_Write_Bit/MPU6050
  +--> readdmp/MPU6050
  +--> atan2?_/atan2

readdmp/MPU6050                               ----- -----
  +--> MPU_Read_Len/MPU6050

atan2?_/atan2                                 ----- -----

MPU_Get_Gyroscope/MPU6050                     0406H 0413H
  +--> MPU_Read_Len/MPU6050

Filter_Window/main                            ----- -----

Speed_Gain/main                               ----- -----

Elem_Up_Down/Element                          ----- -----

*** NEW ROOT ********************************

?C_C51STARTUP?2                               ----- -----



PUBLIC SYMBOLS OF MODULE:  .\Out_File\SEEKFREE (board)


L251 LINKER/LOCATER V4.66.93.0                                                        07/11/2024  19:40:54  PAGE 21


      VALUE       CLASS    TYPE      PUBLIC SYMBOL NAME
      =================================================
      00FF111EH   CODE     NEAR LAB  ?C?CASTF
      000000FFH   NUMBER   ---       ?C?CODESEG
      00FF10EBH   CODE     NEAR LAB  ?C?FCASTC
      00FF10E6H   CODE     NEAR LAB  ?C?FCASTI
      00FF10E1H   CODE     NEAR LAB  ?C?FCASTL
      00FF18BFH   CODE     ---       ?C?FP2SERIES
      00FF0EB4H   CODE     ---       ?C?FPADD
      00FF108FH   CODE     ---       ?C?FPCMP
      00FF108DH   CODE     ---       ?C?FPCMP3
      00FF17C4H   CODE     ---       ?C?FPCONVERT
      00FF100CH   CODE     ---       ?C?FPDIV
      00FF1237H   CODE     ---       ?C?FPGETOPN2
      00FF0F6CH   CODE     ---       ?C?FPMUL
      00FF1274H   CODE     ---       ?C?FPNANRESULT
      00FF10D3H   CODE     ---       ?C?FPNEG
      00FF127CH   CODE     ---       ?C?FPOVERFLOW
      00FF1250H   CODE     ---       ?C?FPRESULT
      00FF1266H   CODE     ---       ?C?FPRESULT2
      00FF187CH   CODE     ---       ?C?FPROUND
      00FF18C8H   CODE     ---       ?C?FPSERIES
      00FF0EB1H   CODE     ---       ?C?FPSUB
      00FF1279H   CODE     ---       ?C?FPUNDERFLOW
      00FF191CH   CODE     ---       ?C?FTNPWR
      00FF6413H   CODE     ---       ?C?INITEDATA
      00FF6D9CH   HCONST   WORD      ?C?INITEDATA_END
      00FF1996H   CODE     ---       ?C?LIMUL
      00FF1985H   CODE     ---       ?C?LMUL
      00FF12B5H   CODE     ---       ?C?PRNFMT
      00FF1953H   CODE     ---       ?C?SIDIV
      00FF19F2H   CODE     NEAR LAB  ?C?SLDIV
      00FF0000H   CODE     ---       ?C?STARTUP
      00FF19A1H   CODE     NEAR LAB  ?C?ULDIV
      00FF199FH   CODE     NEAR LAB  ?C?ULIDIV
      00000001H   NUMBER   ---       ?C?XDATASEG
      00FF0000H   CODE     ---       ?C_STARTUP
*DEL*:1FFFFFF8H   EDATA    BYTE      ?data_conversion?BYTE
*DEL*:1FFFFFF8H   EDATA    BYTE      ?fifo_init?BYTE
*DEL*:1FFFFFFCH   EDATA    BYTE      ?fifo_read_buffer?BYTE
      000003EAH   EDATA    BYTE      ?fifo_write_buffer?BYTE
*DEL*:1FFFFFFAH   EDATA    BYTE      ?iic_init?BYTE
*DEL*:1FFFFFFCH   EDATA    BYTE      ?ips114_showfloat?BYTE
*DEL*:1FFFFFFCH   EDATA    BYTE      ?ips114_showfloat_simspi?BYTE
*DEL*:1FFFFFFCH   EDATA    BYTE      ?lcd_showfloat?BYTE
*DEL*:1FFFFFFCH   EDATA    BYTE      ?lcd_showfloat_simspi?BYTE
      000003FAH   EDATA    BYTE      ?Limit_Out?BYTE
*DEL*:1FFFFFFCH   EDATA    BYTE      ?MPU_Get_Accelerometer?BYTE
      00000402H   EDATA    BYTE      ?MPU_Get_Gyroscope?BYTE
      00000487H   EDATA    BYTE      ?number_conversion_ascii?BYTE
      00000402H   EDATA    BYTE      ?oled_printf_float?BYTE
*DEL*:1FFFFFFCH   EDATA    BYTE      ?oled_printf_float_spi?BYTE
      000003F2H   EDATA    BYTE      ?PID_Calculate?BYTE
      000003F2H   EDATA    BYTE      ?PID_Incremental_Calc?BYTE
      000003FEH   EDATA    BYTE      ?PID_Incremental_Init?BYTE
      000003FEH   EDATA    BYTE      ?PID_Init?BYTE
      00000440H   EDATA    ---       ?printf?BYTE
*DEL*:1FFFFFFAH   EDATA    BYTE      ?pwm_freq?BYTE
      00000404H   EDATA    BYTE      ?pwm_init?BYTE
*DEL*:1FFFFFF7H   EDATA    BYTE      ?spi_init?BYTE
      00000400H   EDATA    BYTE      ?uart_init?BYTE
      00000459H   EDATA    BYTE      ?zf_sprintf?BYTE
      00FF6B0DH   CODE     ---       abs?_
      00000549H   EDATA    FLOAT     Act_PwmL
      000004FCH   EDATA    FLOAT     Act_PwmR
L251 LINKER/LOCATER V4.66.93.0                                                        07/11/2024  19:40:54  PAGE 22


      0000065DH   EDATA    ---       ADC_Array_Original
*SFR* 000000BCH   DATA     BYTE      ADC_CONTR
      00FF47AEH   CODE     ---       ADC_GetValue
      00FF5ED4H   CODE     ---       adc_init
      00FF67C6H   CODE     ---       ADC_InitAll
      00FF6714H   CODE     ---       adc_once
      00000699H   EDATA    ---       ADC_proc
*SFR* 000000BDH   DATA     BYTE      ADC_RES
*SFR* 000000BEH   DATA     BYTE      ADC_RESL
*SFR* 000000DEH   DATA     BYTE      ADCCFG
      000006B2H   EDATA    FLOAT     Adjust_Val
      0000052BH   EDATA    FLOAT     Angle_Edge
      00FF1217H   CODE     ---       asin?_
*DEL*:00000000H   CODE     ---       at24c02_read_byte
*DEL*:00000000H   CODE     ---       at24c02_read_bytes
*DEL*:00000000H   CODE     ---       at24c02_write_byte
*DEL*:00000000H   CODE     ---       at24c02_write_bytes
      00FF626FH   CODE     ---       atan2?_
      00FF16E4H   CODE     ---       ATAN?_
*SFR* 000000EFH   DATA     BYTE      AUXINTIF
*SFR* 0000008EH   DATA     BYTE      AUXR
      000006F5H   EDATA    CHAR      Barrier_Executed
      000006E9H   EDATA    CHAR      Barrier_Flag1
*DEL*:00000000H   CODE     ---       bluetooth_ch9141_init
*DEL*:00000000H   CODE     ---       bluetooth_ch9141_read_buff
*DEL*:00000000H   CODE     ---       bluetooth_ch9141_send_buff
      00FF6A04H   CODE     ---       bluetooth_ch9141_uart_callback
      00FF5902H   CODE     ---       board_init
      000003E9H   EDATA    ---       busy
      00FF6AECH   CODE     ---       Buzzer_Init
*DEL*:00000000H   CODE     ---       ccd_collect
      0000013EH   EDATA    ---       ccd_data
*DEL*:00000000H   CODE     ---       ccd_init
*DEL*:00000000H   CODE     ---       ccd_send_data
      000006F7H   EDATA    INT       circle_Delay1
      000006EAH   EDATA    INT       Circle_Delay2
      000006ECH   EDATA    FLOAT     Circle_Flag1
      000006F0H   EDATA    FLOAT     Circle_Flag2
      000006F4H   EDATA    CHAR      Circle_Flag3
      0000075EH   EDATA    CHAR      clear_Num
      0000051EH   EDATA    CHAR      count
*DEL*:00000000H   CODE     ---       CRC_CHECK
      00FF613AH   CODE     ---       ctimer_count_clean
      00FF6225H   CODE     ---       ctimer_count_init
      00FF618BH   CODE     ---       ctimer_count_read
*DEL*:00000000H   CODE     ---       data_conversion
      00FF6BABH   CODE     ---       Delay1ms
      00FF656FH   CODE     ---       delay_init
      00FF6A4FH   CODE     ---       delay_ms
*DEL*:00000000H   CODE     ---       delay_us
      00000545H   EDATA    FLOAT     Diff
      00000541H   EDATA    FLOAT     Diff_Mid
      000006AEH   EDATA    FLOAT     Dis_Process
      00FF0016H   CODE     ---       DisableGlobalIRQ
      0000052FH   EDATA    CHAR      Distance_Num
      00FF1A55H   CODE     ---       dmpcfgupddata
      000004C1H   EDATA    ---       dmpdatas
      00FF3D0EH   CODE     ---       dmpInitialize
      00FF1B15H   CODE     ---       dmpmemorydata
      00FF1A26H   CODE     ---       dmpUpdates
      000006F6H   EDATA    CHAR      Down_Flag
*SFR* 000000A8H.7 DATA     BIT       EA
      00000539H   EDATA    CHAR      Edge_Delay
*DEL*:00000000H   CODE     ---       eeprom_trig
      00FF562DH   CODE     ---       Elem_Barrier_Timer
L251 LINKER/LOCATER V4.66.93.0                                                        07/11/2024  19:40:54  PAGE 23


      00FF3F3AH   CODE     ---       Elem_Circle
      00FF63BFH   CODE     ---       Elem_Up_Down
      00FF000EH   CODE     ---       EnableGlobalIRQ
*DEL*:00000000H   CODE     ---       encoder_angle_simspi
*DEL*:00000000H   CODE     ---       encoder_angle_spi
*DEL*:00000000H   CODE     ---       encoder_delay_us
*DEL*:00000000H   CODE     ---       encoder_init_simspi
*DEL*:00000000H   CODE     ---       encoder_init_spi
*DEL*:00000000H   CODE     ---       encoder_self4_check
*DEL*:00000000H   CODE     ---       encoder_self5_check
*DEL*:00000000H   CODE     ---       encoder_simspi_r_reg_byte
*DEL*:00000000H   CODE     ---       encoder_simspi_w_reg_byte
*DEL*:00000000H   CODE     ---       encoder_spi_r_reg_byte
*DEL*:00000000H   CODE     ---       encoder_spi_w_reg_byte
*SFR* 000000A8H.4 DATA     BIT       ES
*SFR* 000000A8H.1 DATA     BIT       ET0
*SFR* 000000A8H.3 DATA     BIT       ET1
*SFR* 000000A8H.0 DATA     BIT       EX0
*SFR* 000000A8H.2 DATA     BIT       EX1
*DEL*:00000000H   CODE     ---       exit_init
      00000508H   EDATA    FLOAT     Exp_Speed
      0000050EH   EDATA    FLOAT     Exp_Speed_gain
      0000051FH   EDATA    FLOAT     Exp_Speed_L
      00000523H   EDATA    FLOAT     Exp_Speed_R
*DEL*:00000000H   CODE     ---       extern_iap_write_bytes
*SFR* 000000D0H.5 DATA     BIT       F0
*DEL*:00000000H   CODE     ---       fifo_clear
*DEL*:00000000H   CODE     ---       fifo_end_offset
      00FF633BH   CODE     ---       fifo_head_offset
*DEL*:00000000H   CODE     ---       fifo_init
*DEL*:00000000H   CODE     ---       fifo_read_buffer
*DEL*:00000000H   CODE     ---       fifo_used
      00FF4EE0H   CODE     ---       fifo_write_buffer
      00FF6770H   CODE     ---       Filter_Window
      00000530H   EDATA    FLOAT     Flag_Out_L
      00000535H   EDATA    FLOAT     Flag_Out_R
      0000050DH   EDATA    CHAR      Flag_Stop
*DEL*:00000000H   CODE     ---       get_icm20602_accdata_simiic
*DEL*:00000000H   CODE     ---       get_icm20602_accdata_simspi
*DEL*:00000000H   CODE     ---       get_icm20602_gyro_simiic
*DEL*:00000000H   CODE     ---       get_icm20602_gyro_simspi
      00FF48F9H   CODE     ---       Get_Ratio
      00FF5229H   CODE     ---       Get_Speed
      00FF696EH   CODE     ---       getDeviceID
      00FF0026H   CODE     ---       getFIFOCount
      00FF5BEBH   CODE     ---       GetKey_Value
      00FF2D9AH   CODE     ---       gpio_mode
*DEL*:00000000H   CODE     ---       gpio_pull_set
      0000053BH   EDATA    INT       gx
      0000053DH   EDATA    INT       gy
      0000053FH   EDATA    INT       gz
*DEL*:00000000H   CODE     ---       HC_SR04_Init
      00FF6A66H   CODE     ---       i2c_ack
      00FF6BA0H   CODE     ---       i2c_delay
      00FF5A81H   CODE     ---       i2c_mem_read
      00FF5E75H   CODE     ---       i2c_mem_write
      00FF6AB7H   CODE     ---       i2c_nack
      00FF667BH   CODE     ---       i2c_read_bit
      00FF5D41H   CODE     ---       i2c_read_bits
      00FF65A8H   CODE     ---       i2c_read_byte
      00FF005EH   CODE     ---       I2C_SCL_H
      00FF0086H   CODE     ---       I2C_SCL_L
      00FF001EH   CODE     ---       I2C_SDA_H
      00FF0056H   CODE     ---       I2C_SDA_L
      00FF0006H   CODE     ---       I2C_SDA_Read
L251 LINKER/LOCATER V4.66.93.0                                                        07/11/2024  19:40:54  PAGE 24


      00FF6AC9H   CODE     ---       i2c_start
      00FF6B1DH   CODE     ---       i2c_stop
      00FF6B8AH   CODE     ---       i2c_timeout_delay
      00FF67F1H   CODE     ---       i2c_wait_ack
      00FF5F32H   CODE     ---       i2c_write_bit
      00FF5A04H   CODE     ---       i2c_write_bits
      00FF66AEH   CODE     ---       i2c_write_byte
*SFR* 000000F6H   DATA     BYTE      IAP_ADDRE
*SFR* 000000C3H   DATA     BYTE      IAP_ADDRH
*SFR* 000000C4H   DATA     BYTE      IAP_ADDRL
*SFR* 000000C5H   DATA     BYTE      IAP_CMD
*SFR* 000000C7H   DATA     BYTE      IAP_CONTR
*SFR* 000000C2H   DATA     BYTE      IAP_DATA
*DEL*:00000000H   CODE     ---       iap_erase_page
*DEL*:00000000H   CODE     ---       iap_get_cmd_state
*DEL*:00000000H   CODE     ---       iap_idle
*DEL*:00000000H   CODE     ---       iap_init
*DEL*:00000000H   CODE     ---       iap_read_bytes
*DEL*:00000000H   CODE     ---       iap_set_tps
*SFR* 000000F5H   DATA     BYTE      IAP_TPS
*SFR* 000000C6H   DATA     BYTE      IAP_TRIG
*DEL*:00000000H   CODE     ---       iap_write_bytes
*DEL*:00000000H   CODE     ---       icm20602_init_simiic
*DEL*:00000000H   CODE     ---       icm20602_init_simspi
*DEL*:00000000H   CODE     ---       icm20602_self1_check
*DEL*:00000000H   CODE     ---       icm20602_self4_check
      00000735H   EDATA    INT       icm_acc_x
      00000737H   EDATA    INT       icm_acc_y
      00000739H   EDATA    INT       icm_acc_z
      0000073BH   EDATA    INT       icm_gyro_x
      0000073DH   EDATA    INT       icm_gyro_y
      0000073FH   EDATA    INT       icm_gyro_z
*DEL*:00000000H   CODE     ---       icm_simspi_r_reg_byte
*DEL*:00000000H   CODE     ---       icm_simspi_r_reg_bytes
*DEL*:00000000H   CODE     ---       icm_simspi_w_reg_byte
*DEL*:00000000H   CODE     ---       icm_simspi_wr_byte
*SFR* 000000A8H   DATA     BYTE      IE
*SFR* 000000AFH   DATA     BYTE      IE2
      0000074BH   EDATA    BYTE      IIC_ad_main
      0000074DH   EDATA    BYTE      IIC_ad_sub
      0000074EH   EDATA    ---       IIC_buf
*DEL*:00000000H   CODE     ---       iic_change_pin
*DEL*:00000000H   CODE     ---       iic_delay_us
*DEL*:00000000H   CODE     ---       iic_init
      0000074CH   EDATA    BYTE      IIC_num
*DEL*:00000000H   CODE     ---       iic_read_reg
*DEL*:00000000H   CODE     ---       iic_read_reg_bytes
*DEL*:00000000H   CODE     ---       iic_write_reg
      00FF4A30H   CODE     ---       Init_all
      00FF66E1H   CODE     ---       initMPU6050
      00FF6BEFH   CODE     ---       INT0_Isr
      00FF0011H   CODE     ---       INT1_Isr
      00FF6BC7H   CODE     ---       INT2_Isr
      00FF6BCFH   CODE     ---       INT3_Isr
      00FF6BD7H   CODE     ---       INT4_Isr
*SFR* 0000008FH   DATA     BYTE      INTCLKO
*SFR* 000000B8H   DATA     BYTE      IP
*SFR* 000000B5H   DATA     BYTE      IP2
*SFR* 000000B6H   DATA     BYTE      IP2H
*SFR* 000000B7H   DATA     BYTE      IPH
*DEL*:00000000H   CODE     ---       ips114_clear
*DEL*:00000000H   CODE     ---       ips114_clear_simspi
*DEL*:00000000H   CODE     ---       ips114_drawpoint
*DEL*:00000000H   CODE     ---       ips114_drawpoint_simspi
*DEL*:00000000H   CODE     ---       ips114_init
L251 LINKER/LOCATER V4.66.93.0                                                        07/11/2024  19:40:54  PAGE 25


*DEL*:00000000H   CODE     ---       ips114_init_simspi
*DEL*:00000000H   CODE     ---       ips114_set_region
*DEL*:00000000H   CODE     ---       ips114_set_region_simspi
*DEL*:00000000H   CODE     ---       ips114_showchar
*DEL*:00000000H   CODE     ---       ips114_showchar_simspi
*DEL*:00000000H   CODE     ---       ips114_showfloat
*DEL*:00000000H   CODE     ---       ips114_showfloat_simspi
*DEL*:00000000H   CODE     ---       ips114_showint16
*DEL*:00000000H   CODE     ---       ips114_showint16_simspi
*DEL*:00000000H   CODE     ---       ips114_showint32
*DEL*:00000000H   CODE     ---       ips114_showint32_simspi
*DEL*:00000000H   CODE     ---       ips114_showint8
*DEL*:00000000H   CODE     ---       ips114_showint8_simspi
*DEL*:00000000H   CODE     ---       ips114_showstr
*DEL*:00000000H   CODE     ---       ips114_showstr_simspi
*DEL*:00000000H   CODE     ---       ips114_showuint16
*DEL*:00000000H   CODE     ---       ips114_showuint16_simspi
*DEL*:00000000H   CODE     ---       ips114_showuint8
*DEL*:00000000H   CODE     ---       ips114_showuint8_simspi
*DEL*:00000000H   CODE     ---       ips114_writeData
*DEL*:00000000H   CODE     ---       ips114_writedata_16bit
*DEL*:00000000H   CODE     ---       ips114_writeData_simspi
*DEL*:00000000H   CODE     ---       ips114_writeDatai_16bit_simspi
*DEL*:00000000H   CODE     ---       ips114_writeIndex
*DEL*:00000000H   CODE     ---       ips114_writeIndex_simspi
      0000053AH   EDATA    CHAR      Isr_Flag_10
*SFR* 00000088H.0 DATA     BIT       IT0
*SFR* 00000088H.2 DATA     BIT       IT1
      00FF68E2H   CODE     ---       Key_Init
      000006ADH   EDATA    CHAR      KeyValue
*DEL*:00000000H   CODE     ---       lcd_clear
*DEL*:00000000H   CODE     ---       lcd_clear_simspi
*DEL*:00000000H   CODE     ---       lcd_drawpoint
*DEL*:00000000H   CODE     ---       lcd_drawpoint_simspi
*DEL*:00000000H   CODE     ---       lcd_init
*DEL*:00000000H   CODE     ---       lcd_init_simspi
*DEL*:00000000H   CODE     ---       lcd_set_region
*DEL*:00000000H   CODE     ---       lcd_set_region_simspi
*DEL*:00000000H   CODE     ---       lcd_showchar
*DEL*:00000000H   CODE     ---       lcd_showchar_simspi
*DEL*:00000000H   CODE     ---       lcd_showfloat
*DEL*:00000000H   CODE     ---       lcd_showfloat_simspi
*DEL*:00000000H   CODE     ---       lcd_showint16
*DEL*:00000000H   CODE     ---       lcd_showint16_simspi
*DEL*:00000000H   CODE     ---       lcd_showint32
*DEL*:00000000H   CODE     ---       lcd_showint32_simspi
*DEL*:00000000H   CODE     ---       lcd_showint8
*DEL*:00000000H   CODE     ---       lcd_showint8_simspi
*DEL*:00000000H   CODE     ---       lcd_showstr
*DEL*:00000000H   CODE     ---       lcd_showstr_simspi
*DEL*:00000000H   CODE     ---       lcd_showuint16
*DEL*:00000000H   CODE     ---       lcd_showuint16_simspi
*DEL*:00000000H   CODE     ---       lcd_showuint8
*DEL*:00000000H   CODE     ---       lcd_showuint8_simspi
*DEL*:00000000H   CODE     ---       lcd_writeData
*DEL*:00000000H   CODE     ---       lcd_writedata_16bit
*DEL*:00000000H   CODE     ---       lcd_writeData_16bit_simspi
*DEL*:00000000H   CODE     ---       lcd_writeData_simspi
*DEL*:00000000H   CODE     ---       lcd_writeIndex
*DEL*:00000000H   CODE     ---       lcd_writeIndex_simspi
      00FF5162H   CODE     ---       Left_SetSpeed
      000002B8H   EDATA    ---       Left_Wheel
      00FF679BH   CODE     ---       Limit_Out
      00FF5449H   CODE     ---       loadcfgupd
      00FF5983H   CODE     ---       loadfirmware
L251 LINKER/LOCATER V4.66.93.0                                                        07/11/2024  19:40:54  PAGE 26


      00FF42F7H   CODE     ---       main
      00FF68BDH   CODE     ---       memcpy?_
      00FF69EAH   CODE     ---       memset?_
      0000075DH   EDATA    CHAR      Mode
      00FF62B4H   CODE     ---       Motor_Init
*DEL*:00000000H   CODE     ---       Motor_Test
      00FF6929H   CODE     ---       MPU6050_DMP_Init
*DEL*:00000000H   CODE     ---       mpu6050_get_accdata
*DEL*:00000000H   CODE     ---       mpu6050_get_gyro
*DEL*:00000000H   CODE     ---       mpu6050_init
      00FF3A74H   CODE     ---       MPU6050_Refresh_DMP
*DEL*:00000000H   CODE     ---       mpu6050_self1_check
      00000729H   EDATA    INT       mpu_acc_x
      0000072BH   EDATA    INT       mpu_acc_y
      0000072DH   EDATA    INT       mpu_acc_z
      00FF6A90H   CODE     ---       MPU_Delay_Ms
*DEL*:00000000H   CODE     ---       MPU_Get_Accelerometer
      00FF5F8EH   CODE     ---       MPU_Get_Gyroscope
*DEL*:00000000H   CODE     ---       MPU_Get_Temperature
      0000072FH   EDATA    INT       mpu_gyro_x
      00000731H   EDATA    INT       mpu_gyro_y
      00000733H   EDATA    INT       mpu_gyro_z
*DEL*:00000000H   CODE     ---       MPU_Init
      00FF6BB5H   CODE     ---       MPU_Read_Bit
      00FF0046H   CODE     ---       MPU_Read_Bits
*DEL*:00000000H   CODE     ---       MPU_Read_Byte
      00FF6B7FH   CODE     ---       MPU_Read_Len
*DEL*:00000000H   CODE     ---       MPU_Set_Accel_Fsr
*DEL*:00000000H   CODE     ---       MPU_Set_Gyro_Fsr
*DEL*:00000000H   CODE     ---       MPU_Set_LPF
*DEL*:00000000H   CODE     ---       MPU_Set_Rate
      000004EBH   EDATA    CHAR      mpu_state
      00FF6B65H   CODE     ---       MPU_Write_Bit
      00FF6B58H   CODE     ---       MPU_Write_Bits
      00FF6A7BH   CODE     ---       MPU_Write_Byte
      00FF6B95H   CODE     ---       MPU_Write_Len
*DEL*:00000000H   CODE     ---       Num2Abs
      00FF5758H   CODE     ---       number_conversion_ascii
*DEL*:00000000H   CODE     ---       NVIC_SetPriority
      00FF0C86H   CODE     ---       oled_6x8
      00FF00A6H   CODE     ---       oled_8x16
      00FF637DH   CODE     ---       oled_all_static_state
*DEL*:00000000H   CODE     ---       oled_change_value
*DEL*:00000000H   CODE     ---       oled_clrpixel
*DEL*:00000000H   CODE     ---       oled_clrpixel_spi
*DEL*:00000000H   CODE     ---       oled_dis_bmp
*DEL*:00000000H   CODE     ---       oled_dis_bmp_spi
      00FF6648H   CODE     ---       oled_fill
*DEL*:00000000H   CODE     ---       oled_fill_spi
*DEL*:00000000H   CODE     ---       oled_hexascii
*DEL*:00000000H   CODE     ---       oled_hexascii_spi
      00FF54EFH   CODE     ---       oled_init
*DEL*:00000000H   CODE     ---       oled_init_spi
*DEL*:00000000H   CODE     ---       oled_int16
*DEL*:00000000H   CODE     ---       oled_int16_spi
*DEL*:00000000H   CODE     ---       oled_p6x8str
*DEL*:00000000H   CODE     ---       oled_p6x8str_spi
      00FF4D14H   CODE     ---       oled_p8x16str
*DEL*:00000000H   CODE     ---       oled_p8x16str_spi
*DEL*:00000000H   CODE     ---       oled_print_chinese
*DEL*:00000000H   CODE     ---       oled_print_chinese_spi
      00FF4B2CH   CODE     ---       oled_printf_float
*DEL*:00000000H   CODE     ---       oled_printf_float_spi
*DEL*:00000000H   CODE     ---       oled_printf_int32
*DEL*:00000000H   CODE     ---       oled_printf_int32_spi
L251 LINKER/LOCATER V4.66.93.0                                                        07/11/2024  19:40:54  PAGE 27


*DEL*:00000000H   CODE     ---       oled_putpixel
*DEL*:00000000H   CODE     ---       oled_putpixel_spi
      00FF6906H   CODE     ---       oled_set_pos
*DEL*:00000000H   CODE     ---       oled_set_pos_spi
      00FF62F8H   CODE     ---       oled_show
*DEL*:00000000H   CODE     ---       oled_uint16
*DEL*:00000000H   CODE     ---       oled_uint16_spi
      00FF681BH   CODE     ---       oled_wrcmd
*DEL*:00000000H   CODE     ---       oled_wrcmd_spi
      00FF6844H   CODE     ---       oled_wrdat
*DEL*:00000000H   CODE     ---       oled_wrdat_spi
*SFR* 00000080H   DATA     BYTE      P0
*SFR* 00000080H.7 DATA     BIT       P07
*SFR* 00000094H   DATA     BYTE      P0M0
*SFR* 00000093H   DATA     BYTE      P0M1
*SFR* 00000090H   DATA     BYTE      P1
*SFR* 00000092H   DATA     BYTE      P1M0
*SFR* 00000091H   DATA     BYTE      P1M1
*SFR* 000000A0H   DATA     BYTE      P2
*SFR* 000000A0H.0 DATA     BIT       P20
*SFR* 000000A0H.1 DATA     BIT       P21
*SFR* 000000A0H.2 DATA     BIT       P22
*SFR* 000000A0H.3 DATA     BIT       P23
*SFR* 000000A0H.4 DATA     BIT       P24
*SFR* 000000A0H.5 DATA     BIT       P25
*SFR* 000000A0H.6 DATA     BIT       P26
*SFR* 000000A0H.7 DATA     BIT       P27
*SFR* 00000096H   DATA     BYTE      P2M0
*SFR* 00000095H   DATA     BYTE      P2M1
*SFR* 000000B0H   DATA     BYTE      P3
*SFR* 000000B0H.2 DATA     BIT       P32
*SFR* 000000B0H.3 DATA     BIT       P33
*SFR* 000000B0H.5 DATA     BIT       P35
*SFR* 000000B2H   DATA     BYTE      P3M0
*SFR* 000000B1H   DATA     BYTE      P3M1
*SFR* 000000C0H   DATA     BYTE      P4
*SFR* 000000C0H.0 DATA     BIT       P40
*SFR* 000000C0H.1 DATA     BIT       P41
*SFR* 000000C0H.2 DATA     BIT       P42
*SFR* 000000C0H.3 DATA     BIT       P43
*SFR* 000000B4H   DATA     BYTE      P4M0
*SFR* 000000B3H   DATA     BYTE      P4M1
*SFR* 000000C8H   DATA     BYTE      P5
*SFR* 000000C8H.0 DATA     BIT       P50
*SFR* 000000C8H.1 DATA     BIT       P51
*SFR* 000000C8H.2 DATA     BIT       P52
*SFR* 000000C8H.3 DATA     BIT       P53
*SFR* 000000CAH   DATA     BYTE      P5M0
*SFR* 000000C9H   DATA     BYTE      P5M1
*SFR* 000000E8H   DATA     BYTE      P6
*SFR* 000000CCH   DATA     BYTE      P6M0
*SFR* 000000CBH   DATA     BYTE      P6M1
*SFR* 000000F8H   DATA     BYTE      P7
*SFR* 000000F8H.0 DATA     BIT       P70
*SFR* 000000F8H.1 DATA     BIT       P71
*SFR* 000000F8H.2 DATA     BIT       P72
*SFR* 000000F8H.3 DATA     BIT       P73
*SFR* 000000E2H   DATA     BYTE      P7M0
*SFR* 000000E1H   DATA     BYTE      P7M1
*SFR* 000000A2H   DATA     BYTE      P_SW1
*SFR* 000000BAH   DATA     BYTE      P_SW2
      00000008H   EDATA    CHAR      page
      00FF539FH   CODE     ---       PID_Calculate
      00FF449CH   CODE     ---       PID_Incremental_Calc
      00FF57EAH   CODE     ---       PID_Incremental_Init
L251 LINKER/LOCATER V4.66.93.0                                                        07/11/2024  19:40:54  PAGE 28


      00FF5E15H   CODE     ---       PID_Init
      00FF56C4H   CODE     ---       pit_timer_ms
*DEL*:00000000H   CODE     ---       pit_timer_us
      000004ECH   EDATA    FLOAT     Pitch
      0000051AH   EDATA    FLOAT     Plus
      00000516H   EDATA    FLOAT     Plus_Mid
      00FF115BH   CODE     NEAR LAB  printf
      00FF643FH   CODE     ---       printf_reverse_order
*SFR* 000000D0H   DATA     BYTE      PSW
      00FF6B4AH   CODE     ---       putchar
      00FF6E30H   HCONST   ---       PWM_ARR_ADDR
      00FF6E38H   HCONST   ---       PWM_CCER_ADDR
      00FF6E48H   HCONST   ---       PWM_CCMR_ADDR
      00FF6E10H   HCONST   ---       PWM_CCR_ADDR
      00FF52E7H   CODE     ---       pwm_duty
*DEL*:00000000H   CODE     ---       pwm_freq
      00FF34EFH   CODE     ---       pwm_init
      00FF37D3H   CODE     ---       pwm_set_gpio
      000004B1H   EDATA    ---       Q
      00000500H   EDATA    FLOAT     Ratio
      0000054DH   EDATA    FLOAT     Ratio_Mid
*DEL*:00000000H   CODE     ---       read_ch
      0000050CH   EDATA    CHAR      Read_Nums
      00FF6B2CH   CODE     ---       readdmp
*DEL*:00000000H   CODE     ---       recv_ack
*DEL*:00000000H   CODE     ---       recv_data
      00FF5592H   CODE     ---       refresh_value
      00FF509BH   CODE     ---       Right_SetSpeed
      0000027BH   EDATA    ---       Right_Wheel
      00000499H   EDATA    FLOAT     Roll
*SFR* 000000FFH   DATA     BYTE      RSTCFG
*SFR* 0000009BH   DATA     BYTE      S2BUF
*SFR* 0000009AH   DATA     BYTE      S2CON
*SFR* 000000ADH   DATA     BYTE      S3BUF
*SFR* 000000ACH   DATA     BYTE      S3CON
*SFR* 000000FEH   DATA     BYTE      S4BUF
*SFR* 000000FDH   DATA     BYTE      S4CON
*SFR* 00000099H   DATA     BYTE      SBUF
*SFR* 00000098H   DATA     BYTE      SCON
*DEL*:00000000H   CODE     ---       send_ack
*DEL*:00000000H   CODE     ---       send_ch
*DEL*:00000000H   CODE     ---       send_data
*DEL*:00000000H   CODE     ---       send_nak
*DEL*:00000000H   CODE     ---       set_zero_position_simspi
*DEL*:00000000H   CODE     ---       set_zero_position_spi
*DEL*:00000000H   CODE     ---       showimage
*DEL*:00000000H   CODE     ---       simiic_delay
*DEL*:00000000H   CODE     ---       simiic_init
*DEL*:00000000H   CODE     ---       simiic_read_reg
*DEL*:00000000H   CODE     ---       simiic_read_regs
*DEL*:00000000H   CODE     ---       simiic_sendack
*DEL*:00000000H   CODE     ---       simiic_start
*DEL*:00000000H   CODE     ---       simiic_stop
*DEL*:00000000H   CODE     ---       simiic_write_reg
*DEL*:00000000H   CODE     ---       simspi_r_reg_byte
*DEL*:00000000H   CODE     ---       simspi_w_reg_byte
*DEL*:00000000H   CODE     ---       simspi_wr_byte
*DEL*:00000000H   CODE     ---       sonar
*SFR* 000000CEH   DATA     BYTE      SPCTL
*SFR* 000000CFH   DATA     BYTE      SPDAT
      000006E8H   EDATA    CHAR      Special_Elem
      00000534H   EDATA    CHAR      Speed_Delay
      00FF5AFBH   CODE     ---       Speed_Gain
      00000707H   EDATA    FLOAT     Speed_L
      0000070BH   EDATA    FLOAT     Speed_R
L251 LINKER/LOCATER V4.66.93.0                                                        07/11/2024  19:40:54  PAGE 29


*DEL*:00000000H   CODE     ---       spi_change_mode
*DEL*:00000000H   CODE     ---       spi_change_pin
*DEL*:00000000H   CODE     ---       spi_init
*DEL*:00000000H   CODE     ---       spi_mosi
*DEL*:00000000H   CODE     ---       spi_r_reg_byte
*DEL*:00000000H   CODE     ---       spi_w_reg_byte
*DEL*:00000000H   CODE     ---       spi_wr_byte
*SFR* 000000CDH   DATA     BYTE      SPSTAT
      00FF1187H   CODE     ---       sqrt?_
*DEL*:00000000H   CODE     ---       start
*DEL*:00000000H   CODE     ---       stop
      00FF6AA4H   CODE     NEAR LAB  strcpy?_
      00000527H   EDATA    FLOAT     Sum_Dis
      00000504H   EDATA    FLOAT     sum_L
      00000512H   EDATA    FLOAT     sum_R
      00000752H   EDATA    LONG      sys_clk
*SFR* 000000D6H   DATA     BYTE      T2H
*SFR* 000000D7H   DATA     BYTE      T2L
*SFR* 000000D4H   DATA     BYTE      T3H
*SFR* 000000D5H   DATA     BYTE      T3L
*SFR* 000000D2H   DATA     BYTE      T4H
*SFR* 000000D3H   DATA     BYTE      T4L
*SFR* 000000DDH   DATA     BYTE      T4T3M
*SFR* 00000088H   DATA     BYTE      TCON
      00FF0696H   CODE     ---       tft_ascii
*SFR* 0000008CH   DATA     BYTE      TH0
*SFR* 0000008DH   DATA     BYTE      TH1
      0000071BH   EDATA    INT       time
*SFR* 0000008AH   DATA     BYTE      TL0
*SFR* 0000008BH   DATA     BYTE      TL1
      00FF0012H   CODE     ---       TM0_Isr
      00FF0019H   CODE     ---       TM1_Isr
      00FF6BDFH   CODE     ---       TM2_Isr
      00FF6BE7H   CODE     ---       TM3_Isr
      00FF3191H   CODE     ---       TM4_Isr
*SFR* 00000089H   DATA     BYTE      TMOD
*SFR* 00000088H.4 DATA     BIT       TR0
*SFR* 00000088H.6 DATA     BIT       TR1
      0000013DH   EDATA    BYTE      tsl1401_finish_flag
      0000023EH   EDATA    ---       Turn
      000002F5H   EDATA    ---       Turn_PID
      00FF64BBH   CODE     ---       UART1_Isr
      00000321H   EDATA    ---       uart1_rx_buff
      00000385H   EDATA    ---       uart1_tx_buff
      00FF69AEH   CODE     ---       UART2_Isr
      00FF69CCH   CODE     ---       UART3_Isr
      00FF5DACH   CODE     ---       UART4_Isr
      00FF4138H   CODE     ---       uart_init
*DEL*:00000000H   CODE     ---       uart_putbuff
      00FF603EH   CODE     ---       uart_putchar
*DEL*:00000000H   CODE     ---       uart_putstr
      00FF6BBEH   CODE     ---       ui_init
      00FF6BF6H   CODE     ---       ui_show
      00000009H   EDATA    ---       value
      00000079H   EDATA    ---       value_name
      00FF4C24H   CODE     ---       value_name_init
      00000741H   EDATA    ---       virtual_scope_data
      0000075AH   EDATA    WORD      vl53l0x_distance_mm
      0000075CH   EDATA    BYTE      vl53l0x_finsh_flag
      00FF5CD4H   CODE     ---       vl53l0x_get_distance
      00FF229EH   CODE     ---       vl53l0x_init
*DEL*:00000000H   CODE     ---       wait
      00FF6A36H   CODE     ---       wireless_ch573_callback
*DEL*:00000000H   CODE     ---       wireless_ch573_init
*DEL*:00000000H   CODE     ---       wireless_ch573_read_buff
L251 LINKER/LOCATER V4.66.93.0                                                        07/11/2024  19:40:54  PAGE 30


*DEL*:00000000H   CODE     ---       wireless_ch573_send_buff
      00000760H   EDATA    INT       wireless_type
      00FF6A1DH   CODE     ---       wireless_uart_callback
*DEL*:00000000H   CODE     ---       wireless_uart_init
*DEL*:00000000H   CODE     ---       wireless_uart_read_buff
*DEL*:00000000H   CODE     ---       wireless_uart_send_buff
*SFR* 000000E9H   DATA     BYTE      WTST
      0000049DH   EDATA    FLOAT     x1
      00000762H   EDATA    WORD      x10_ms
      00FF5877H   CODE     ---       xdmpUpdates
      000004A1H   EDATA    FLOAT     y1
      000004ADH   EDATA    FLOAT     Yaw
      000004A5H   EDATA    FLOAT     z1
      00000491H   EDATA    FLOAT     z_add
      00000495H   EDATA    FLOAT     z_last
      000004A9H   EDATA    FLOAT     z_now
*DEL*:00000000H   CODE     ---       zero_all
      00000756H   EDATA    WORD      zf_delay_ms
      00000758H   EDATA    WORD      zf_delay_us
      00FF28A0H   CODE     ---       zf_sprintf



SYMBOL TABLE OF MODULE:  .\Out_File\SEEKFREE (board)

      VALUE       REP       CLASS    TYPE      SYMBOL NAME
      ====================================================
      ---         MODULE    ---      ---       board
      00FF000EH   PUBLIC    CODE     ---       EnableGlobalIRQ
      00FF5902H   PUBLIC    CODE     ---       board_init
      00FF0016H   PUBLIC    CODE     ---       DisableGlobalIRQ
      00FF6B4AH   PUBLIC    CODE     ---       putchar
      00000752H   PUBLIC    EDATA    LONG      sys_clk
      00000094H   SFRSYM    DATA     BYTE      P0M0
      000000D0H   SFRSYM    DATA     BYTE      PSW
      000000FDH   SFRSYM    DATA     BYTE      S4CON
      000000ACH   SFRSYM    DATA     BYTE      S3CON
      0000009AH   SFRSYM    DATA     BYTE      S2CON
      000000B7H   SFRSYM    DATA     BYTE      IPH
      000000E9H   SFRSYM    DATA     BYTE      WTST
      000000FFH   SFRSYM    DATA     BYTE      RSTCFG
      0000008EH   SFRSYM    DATA     BYTE      AUXR
      000000AFH   SFRSYM    DATA     BYTE      IE2
      00000088H   SFRSYM    DATA     BYTE      TCON
      00000089H   SFRSYM    DATA     BYTE      TMOD
      00000098H   SFRSYM    DATA     BYTE      SCON
      000000BCH   SFRSYM    DATA     BYTE      ADC_CONTR
      000000DEH   SFRSYM    DATA     BYTE      ADCCFG
      000000B8H   SFRSYM    DATA     BYTE      IP
      000000A8H   SFRSYM    DATA     BYTE      IE
      000000BAH   SFRSYM    DATA     BYTE      P_SW2
      000000A2H   SFRSYM    DATA     BYTE      P_SW1
      000000F8H   SFRSYM    DATA     BYTE      P7
      000000A8H.7 SFRSYM    DATA     BIT       EA
      000000E1H   SFRSYM    DATA     BYTE      P7M1
      000000E8H   SFRSYM    DATA     BYTE      P6
      000000C8H   SFRSYM    DATA     BYTE      P5
      000000CBH   SFRSYM    DATA     BYTE      P6M1
      000000E2H   SFRSYM    DATA     BYTE      P7M0
      000000C0H   SFRSYM    DATA     BYTE      P4
      000000C9H   SFRSYM    DATA     BYTE      P5M1
      000000CCH   SFRSYM    DATA     BYTE      P6M0
      000000B0H   SFRSYM    DATA     BYTE      P3
      000000B3H   SFRSYM    DATA     BYTE      P4M1
      000000CAH   SFRSYM    DATA     BYTE      P5M0
L251 LINKER/LOCATER V4.66.93.0                                                        07/11/2024  19:40:54  PAGE 31


      000000A0H   SFRSYM    DATA     BYTE      P2
      000000B1H   SFRSYM    DATA     BYTE      P3M1
      000000B4H   SFRSYM    DATA     BYTE      P4M0
      00000090H   SFRSYM    DATA     BYTE      P1
      00000095H   SFRSYM    DATA     BYTE      P2M1
      000000B2H   SFRSYM    DATA     BYTE      P3M0
      00000080H   SFRSYM    DATA     BYTE      P0
      00000091H   SFRSYM    DATA     BYTE      P1M1
      00000096H   SFRSYM    DATA     BYTE      P2M0
      00000092H   SFRSYM    DATA     BYTE      P1M0
      00000093H   SFRSYM    DATA     BYTE      P0M1

      00FF5902H   BLOCK     CODE     ---       LVL=0
      00FF5902H   LINE      CODE     ---       #177
      00FF5902H   LINE      CODE     ---       #179
      00FF5905H   LINE      CODE     ---       #197
      00FF5908H   LINE      CODE     ---       #199
      00FF590BH   LINE      CODE     ---       #200
      00FF590EH   LINE      CODE     ---       #201
      00FF591AH   LINE      CODE     ---       #203
      00FF591DH   LINE      CODE     ---       #204
      00FF5920H   LINE      CODE     ---       #205
      00FF5923H   LINE      CODE     ---       #206
      00FF5926H   LINE      CODE     ---       #207
      00FF5929H   LINE      CODE     ---       #208
      00FF592CH   LINE      CODE     ---       #209
      00FF592FH   LINE      CODE     ---       #210
      00FF5932H   LINE      CODE     ---       #211
      00FF5935H   LINE      CODE     ---       #212
      00FF5938H   LINE      CODE     ---       #213
      00FF593BH   LINE      CODE     ---       #214
      00FF593EH   LINE      CODE     ---       #215
      00FF5941H   LINE      CODE     ---       #216
      00FF5944H   LINE      CODE     ---       #217
      00FF5947H   LINE      CODE     ---       #218
      00FF594AH   LINE      CODE     ---       #220
      00FF594DH   LINE      CODE     ---       #221
      00FF5950H   LINE      CODE     ---       #222
      00FF5953H   LINE      CODE     ---       #223
      00FF5956H   LINE      CODE     ---       #224
      00FF5959H   LINE      CODE     ---       #225
      00FF595CH   LINE      CODE     ---       #226
      00FF595FH   LINE      CODE     ---       #227
      00FF5962H   LINE      CODE     ---       #228
      00FF5965H   LINE      CODE     ---       #229
      00FF5968H   LINE      CODE     ---       #231
      ---         BLOCKEND  ---      ---       LVL=0

      00FF6B4AH   BLOCK     CODE     ---       LVL=0
      R15         REGSYM    ---      CHAR      c
      00FF6B4AH   LINE      CODE     ---       #237
      00FF6B4EH   LINE      CODE     ---       #239
      00FF6B53H   LINE      CODE     ---       #241
      00FF6B55H   LINE      CODE     ---       #242
      ---         BLOCKEND  ---      ---       LVL=0

      00FF0016H   BLOCK     CODE     ---       LVL=0
      00FF0016H   LINE      CODE     ---       #245
      00FF0016H   LINE      CODE     ---       #247
      00FF0018H   LINE      CODE     ---       #248
      ---         BLOCKEND  ---      ---       LVL=0

      00FF000EH   BLOCK     CODE     ---       LVL=0
      00FF000EH   LINE      CODE     ---       #251
      00FF000EH   LINE      CODE     ---       #253
L251 LINKER/LOCATER V4.66.93.0                                                        07/11/2024  19:40:54  PAGE 32


      00FF0010H   LINE      CODE     ---       #254
      ---         BLOCKEND  ---      ---       LVL=0

      ---         MODULE    ---      ---       common
      00000760H   PUBLIC    EDATA    INT       wireless_type
      000000D0H   SFRSYM    DATA     BYTE      PSW
      000000B7H   SFRSYM    DATA     BYTE      IPH
      00000088H   SFRSYM    DATA     BYTE      TCON
      00000098H   SFRSYM    DATA     BYTE      SCON
      000000BCH   SFRSYM    DATA     BYTE      ADC_CONTR
      000000DEH   SFRSYM    DATA     BYTE      ADCCFG
      000000B8H   SFRSYM    DATA     BYTE      IP
      000000A8H   SFRSYM    DATA     BYTE      IE
      000000F8H   SFRSYM    DATA     BYTE      P7
      000000E8H   SFRSYM    DATA     BYTE      P6
      000000C8H   SFRSYM    DATA     BYTE      P5
      000000C0H   SFRSYM    DATA     BYTE      P4
      000000B0H   SFRSYM    DATA     BYTE      P3
      000000A0H   SFRSYM    DATA     BYTE      P2
      00000090H   SFRSYM    DATA     BYTE      P1
      00000080H   SFRSYM    DATA     BYTE      P0

      ---         MODULE    ---      ---       SEEKFREE_PRINTF
      00FF5758H   PUBLIC    CODE     ---       number_conversion_ascii
      00FF28A0H   PUBLIC    CODE     ---       zf_sprintf
      00FF643FH   PUBLIC    CODE     ---       printf_reverse_order
      00000487H   PUBLIC    EDATA    BYTE      ?number_conversion_ascii?BYTE
      00000459H   PUBLIC    EDATA    BYTE      ?zf_sprintf?BYTE
      000000D0H   SFRSYM    DATA     BYTE      PSW
      000000B7H   SFRSYM    DATA     BYTE      IPH
      00000088H   SFRSYM    DATA     BYTE      TCON
      00000098H   SFRSYM    DATA     BYTE      SCON
      000000BCH   SFRSYM    DATA     BYTE      ADC_CONTR
      000000DEH   SFRSYM    DATA     BYTE      ADCCFG
      000000B8H   SFRSYM    DATA     BYTE      IP
      000000A8H   SFRSYM    DATA     BYTE      IE
      000000F8H   SFRSYM    DATA     BYTE      P7
      000000E8H   SFRSYM    DATA     BYTE      P6
      000000C8H   SFRSYM    DATA     BYTE      P5
      000000C0H   SFRSYM    DATA     BYTE      P4
      000000B0H   SFRSYM    DATA     BYTE      P3
      000000A0H   SFRSYM    DATA     BYTE      P2
      00000090H   SFRSYM    DATA     BYTE      P1
      00000080H   SFRSYM    DATA     BYTE      P0

      00FF5758H   BLOCK     CODE     ---       LVL=0
      DR24        REGSYM    ---      DWORD     dat
      REG=7       REGSYM    ---      ---       p
      R10         REGSYM    ---      BYTE      neg_type
      00000490H   SYMBOL    EDATA    BYTE      radix
      00FF5760H   BLOCK     CODE     NEAR LAB  LVL=1
      DR20        REGSYM    ---      LONG      neg_dat
      DR24        REGSYM    ---      DWORD     pos_dat
      R14         REGSYM    ---      BYTE      temp_data
      R15         REGSYM    ---      BYTE      valid_num
      ---         BLOCKEND  ---      ---       LVL=1
      00FF5758H   LINE      CODE     ---       #25
      00FF5760H   LINE      CODE     ---       #26
      00FF5760H   LINE      CODE     ---       #29
      00FF5760H   LINE      CODE     ---       #30
      00FF5762H   LINE      CODE     ---       #32
      00FF5766H   LINE      CODE     ---       #34
      00FF5768H   LINE      CODE     ---       #35
      00FF5778H   LINE      CODE     ---       #36
      00FF5778H   LINE      CODE     ---       #38
L251 LINKER/LOCATER V4.66.93.0                                                        07/11/2024  19:40:54  PAGE 33


      00FF578EH   LINE      CODE     ---       #39
      00FF579DH   LINE      CODE     ---       #40
      00FF579FH   LINE      CODE     ---       #42
      00FF57A5H   LINE      CODE     ---       #43
      00FF57A7H   LINE      CODE     ---       #44
      00FF57A9H   LINE      CODE     ---       #45
      00FF57ABH   LINE      CODE     ---       #48
      00FF57ABH   LINE      CODE     ---       #49
      00FF57ABH   LINE      CODE     ---       #51
      00FF57BAH   LINE      CODE     ---       #52
      00FF57C4H   LINE      CODE     ---       #53
      00FF57C7H   LINE      CODE     ---       #55
      00FF57CAH   LINE      CODE     ---       #57
      00FF57D9H   LINE      CODE     ---       #58
      00FF57DBH   LINE      CODE     ---       #60
      00FF57E1H   LINE      CODE     ---       #61
      00FF57E3H   LINE      CODE     ---       #62
      00FF57E5H   LINE      CODE     ---       #63
      00FF57E5H   LINE      CODE     ---       #64
      00FF57E7H   LINE      CODE     ---       #65
      ---         BLOCKEND  ---      ---       LVL=0

      00FF643FH   BLOCK     CODE     ---       LVL=0
      REG=7       REGSYM    ---      ---       d_buff
      DR24        REGSYM    ---      DWORD     len
      00FF6443H   BLOCK     CODE     NEAR LAB  LVL=1
      DR4         REGSYM    ---      DWORD     i
      R3          REGSYM    ---      CHAR      temp_data
      ---         BLOCKEND  ---      ---       LVL=1
      00FF643FH   LINE      CODE     ---       #67
      00FF6443H   LINE      CODE     ---       #68
      00FF6443H   LINE      CODE     ---       #71
      00FF6447H   LINE      CODE     ---       #73
      00FF6456H   LINE      CODE     ---       #74
      00FF6464H   LINE      CODE     ---       #75
      00FF646BH   LINE      CODE     ---       #76
      00FF647CH   LINE      CODE     ---       #77
      ---         BLOCKEND  ---      ---       LVL=0

      00FF28A0H   BLOCK     CODE     ---       LVL=0
      REG=3       REGSYM    ---      ---       buff
      0000045DH   SYMBOL    EDATA    ---       format
      00FF28A8H   BLOCK     CODE     NEAR LAB  LVL=1
      00000461H   SYMBOL    EDATA    DWORD     buff_len
      00000465H   SYMBOL    EDATA    ---       arg
      00FF28BDH   BLOCK     CODE     NEAR LAB  LVL=2
      00000469H   SYMBOL    EDATA    CHAR      ret
      00FF29E7H   BLOCK     CODE     NEAR LAB  LVL=3
      0000046AH   SYMBOL    EDATA    CHAR      ch
      ---         BLOCKEND  ---      ---       LVL=3
      00FF2A00H   BLOCK     CODE     NEAR LAB  LVL=3
      0000046AH   SYMBOL    EDATA    ---       vstr
      0000048BH   SYMBOL    EDATA    LONG      ival
      0000048FH   SYMBOL    EDATA    BYTE      vlen
      ---         BLOCKEND  ---      ---       LVL=3
      00FF2A79H   BLOCK     CODE     NEAR LAB  LVL=3
      0000046AH   SYMBOL    EDATA    ---       vstr
      0000048BH   SYMBOL    EDATA    FLOAT     ival
      0000048FH   SYMBOL    EDATA    BYTE      vlen
      ---         BLOCKEND  ---      ---       LVL=3
      00FF2BB4H   BLOCK     CODE     NEAR LAB  LVL=3
      0000046AH   SYMBOL    EDATA    ---       vstr
      0000048BH   SYMBOL    EDATA    DWORD     ival
      0000048FH   SYMBOL    EDATA    BYTE      vlen
      ---         BLOCKEND  ---      ---       LVL=3
L251 LINKER/LOCATER V4.66.93.0                                                        07/11/2024  19:40:54  PAGE 34


      00FF2C0CH   BLOCK     CODE     NEAR LAB  LVL=3
      0000046AH   SYMBOL    EDATA    ---       vstr
      0000048BH   SYMBOL    EDATA    DWORD     ival
      0000048FH   SYMBOL    EDATA    BYTE      vlen
      ---         BLOCKEND  ---      ---       LVL=3
      00FF2C63H   BLOCK     CODE     NEAR LAB  LVL=3
      0000046AH   SYMBOL    EDATA    ---       vstr
      0000048BH   SYMBOL    EDATA    DWORD     ival
      0000048FH   SYMBOL    EDATA    BYTE      vlen
      ---         BLOCKEND  ---      ---       LVL=3
      00FF2CC5H   BLOCK     CODE     NEAR LAB  LVL=3
      0000046AH   SYMBOL    EDATA    ---       pc
      ---         BLOCKEND  ---      ---       LVL=3
      00FF2D07H   BLOCK     CODE     NEAR LAB  LVL=3
      0000046AH   SYMBOL    EDATA    ---       vstr
      0000048BH   SYMBOL    EDATA    DWORD     ival
      ---         BLOCKEND  ---      ---       LVL=3
      ---         BLOCKEND  ---      ---       LVL=2
      ---         BLOCKEND  ---      ---       LVL=1
      00FF28A0H   LINE      CODE     ---       #212
      00FF28A8H   LINE      CODE     ---       #213
      00FF28A8H   LINE      CODE     ---       #214
      00FF28AEH   LINE      CODE     ---       #216
      00FF28BAH   LINE      CODE     ---       #218
      00FF28BDH   LINE      CODE     ---       #219
      00FF28BDH   LINE      CODE     ---       #220
      00FF28C8H   LINE      CODE     ---       #221
      00FF28D0H   LINE      CODE     ---       #223
      00FF29E7H   LINE      CODE     ---       #225
      00FF29E7H   LINE      CODE     ---       #229
      00FF29E7H   LINE      CODE     ---       #232
      00FF29E7H   LINE      CODE     ---       #233
      00FF29E7H   LINE      CODE     ---       #234
      00FF29FDH   LINE      CODE     ---       #235
      00FF29FDH   LINE      CODE     ---       #236
      00FF29FDH   LINE      CODE     ---       #237
      00FF29FDH   LINE      CODE     ---       #239
      00FF2A00H   LINE      CODE     ---       #242
      00FF2A00H   LINE      CODE     ---       #243
      00FF2A00H   LINE      CODE     ---       #244
      00FF2A00H   LINE      CODE     ---       #246
      00FF2A19H   LINE      CODE     ---       #247
      00FF2A2CH   LINE      CODE     ---       #249
      00FF2A36H   LINE      CODE     ---       #251
      00FF2A43H   LINE      CODE     ---       #252
      00FF2A48H   LINE      CODE     ---       #253
      00FF2A48H   LINE      CODE     ---       #254
      00FF2A57H   LINE      CODE     ---       #255
      00FF2A6AH   LINE      CODE     ---       #256
      00FF2A72H   LINE      CODE     ---       #257
      00FF2A76H   LINE      CODE     ---       #260
      00FF2A79H   LINE      CODE     ---       #262
      00FF2A79H   LINE      CODE     ---       #263
      00FF2A79H   LINE      CODE     ---       #264
      00FF2A79H   LINE      CODE     ---       #266
      00FF2A92H   LINE      CODE     ---       #267
      00FF2AA8H   LINE      CODE     ---       #269
      00FF2AB3H   LINE      CODE     ---       #271
      00FF2AC0H   LINE      CODE     ---       #272
      00FF2AC5H   LINE      CODE     ---       #273
      00FF2AC5H   LINE      CODE     ---       #274
      00FF2AD4H   LINE      CODE     ---       #275
      00FF2AE7H   LINE      CODE     ---       #276
      00FF2AEFH   LINE      CODE     ---       #277
      00FF2B01H   LINE      CODE     ---       #279
L251 LINKER/LOCATER V4.66.93.0                                                        07/11/2024  19:40:54  PAGE 35


      00FF2B25H   LINE      CODE     ---       #280
      00FF2B2BH   LINE      CODE     ---       #282
      00FF2B3DH   LINE      CODE     ---       #283
      00FF2B3FH   LINE      CODE     ---       #286
      00FF2B59H   LINE      CODE     ---       #287
      00FF2B5FH   LINE      CODE     ---       #288
      00FF2B5FH   LINE      CODE     ---       #290
      00FF2B64H   LINE      CODE     ---       #292
      00FF2B6EH   LINE      CODE     ---       #293
      00FF2B73H   LINE      CODE     ---       #294
      00FF2B7CH   LINE      CODE     ---       #296
      00FF2B84H   LINE      CODE     ---       #297
      00FF2B8BH   LINE      CODE     ---       #299
      00FF2B9AH   LINE      CODE     ---       #300
      00FF2BADH   LINE      CODE     ---       #301
      00FF2BB1H   LINE      CODE     ---       #303
      00FF2BB4H   LINE      CODE     ---       #306
      00FF2BB4H   LINE      CODE     ---       #307
      00FF2BB4H   LINE      CODE     ---       #309
      00FF2BCDH   LINE      CODE     ---       #310
      00FF2BDFH   LINE      CODE     ---       #312
      00FF2BEAH   LINE      CODE     ---       #313
      00FF2BFDH   LINE      CODE     ---       #314
      00FF2C05H   LINE      CODE     ---       #315
      00FF2C09H   LINE      CODE     ---       #316
      00FF2C0CH   LINE      CODE     ---       #318
      00FF2C0CH   LINE      CODE     ---       #319
      00FF2C0CH   LINE      CODE     ---       #321
      00FF2C25H   LINE      CODE     ---       #322
      00FF2C37H   LINE      CODE     ---       #324
      00FF2C42H   LINE      CODE     ---       #325
      00FF2C55H   LINE      CODE     ---       #326
      00FF2C5DH   LINE      CODE     ---       #327
      00FF2C61H   LINE      CODE     ---       #329
      00FF2C63H   LINE      CODE     ---       #331
      00FF2C63H   LINE      CODE     ---       #332
      00FF2C63H   LINE      CODE     ---       #333
      00FF2C63H   LINE      CODE     ---       #335
      00FF2C7CH   LINE      CODE     ---       #336
      00FF2C8EH   LINE      CODE     ---       #338
      00FF2C99H   LINE      CODE     ---       #339
      00FF2CACH   LINE      CODE     ---       #340
      00FF2CB4H   LINE      CODE     ---       #341
      00FF2CC2H   LINE      CODE     ---       #342
      00FF2CC5H   LINE      CODE     ---       #345
      00FF2CC5H   LINE      CODE     ---       #346
      00FF2CC5H   LINE      CODE     ---       #347
      00FF2CDAH   LINE      CODE     ---       #348
      00FF2CDCH   LINE      CODE     ---       #350
      00FF2CE6H   LINE      CODE     ---       #351
      00FF2CE8H   LINE      CODE     ---       #352
      00FF2CF2H   LINE      CODE     ---       #353
      00FF2CFCH   LINE      CODE     ---       #354
      00FF2D05H   LINE      CODE     ---       #355
      00FF2D07H   LINE      CODE     ---       #357
      00FF2D07H   LINE      CODE     ---       #358
      00FF2D07H   LINE      CODE     ---       #360
      00FF2D20H   LINE      CODE     ---       #362
      00FF2D2EH   LINE      CODE     ---       #364
      00FF2D39H   LINE      CODE     ---       #365
      00FF2D4AH   LINE      CODE     ---       #366
      00FF2D4EH   LINE      CODE     ---       #367
      00FF2D56H   LINE      CODE     ---       #369
      00FF2D58H   LINE      CODE     ---       #372
      00FF2D58H   LINE      CODE     ---       #374
L251 LINKER/LOCATER V4.66.93.0                                                        07/11/2024  19:40:54  PAGE 36


      00FF2D5DH   LINE      CODE     ---       #375
      00FF2D5FH   LINE      CODE     ---       #376
      00FF2D65H   LINE      CODE     ---       #377
      00FF2D67H   LINE      CODE     ---       #379
      00FF2D67H   LINE      CODE     ---       #380
      00FF2D67H   LINE      CODE     ---       #381
      00FF2D67H   LINE      CODE     ---       #384
      00FF2D71H   LINE      CODE     ---       #385
      00FF2D73H   LINE      CODE     ---       #386
      00FF2D7DH   LINE      CODE     ---       #387
      00FF2D7DH   LINE      CODE     ---       #388
      00FF2D87H   LINE      CODE     ---       #389
      00FF2D93H   LINE      CODE     ---       #392
      00FF2D97H   LINE      CODE     ---       #393
      ---         BLOCKEND  ---      ---       LVL=0

      ---         MODULE    ---      ---       zf_adc
      00FF6714H   PUBLIC    CODE     ---       adc_once
      00FF5ED4H   PUBLIC    CODE     ---       adc_init
      00000094H   SFRSYM    DATA     BYTE      P0M0
      000000D0H   SFRSYM    DATA     BYTE      PSW
      000000B7H   SFRSYM    DATA     BYTE      IPH
      000000BEH   SFRSYM    DATA     BYTE      ADC_RESL
      00000088H   SFRSYM    DATA     BYTE      TCON
      00000098H   SFRSYM    DATA     BYTE      SCON
      000000BCH   SFRSYM    DATA     BYTE      ADC_CONTR
      000000DEH   SFRSYM    DATA     BYTE      ADCCFG
      000000B8H   SFRSYM    DATA     BYTE      IP
      000000BDH   SFRSYM    DATA     BYTE      ADC_RES
      000000A8H   SFRSYM    DATA     BYTE      IE
      000000F8H   SFRSYM    DATA     BYTE      P7
      000000E8H   SFRSYM    DATA     BYTE      P6
      000000C8H   SFRSYM    DATA     BYTE      P5
      000000C0H   SFRSYM    DATA     BYTE      P4
      000000B0H   SFRSYM    DATA     BYTE      P3
      000000A0H   SFRSYM    DATA     BYTE      P2
      00000090H   SFRSYM    DATA     BYTE      P1
      00000080H   SFRSYM    DATA     BYTE      P0
      00000091H   SFRSYM    DATA     BYTE      P1M1
      00000092H   SFRSYM    DATA     BYTE      P1M0
      00000093H   SFRSYM    DATA     BYTE      P0M1

      00FF5ED4H   BLOCK     CODE     ---       LVL=0
      WR4         REGSYM    ---      INT       adcn
      WR2         REGSYM    ---      INT       speed
      00FF5ED4H   LINE      CODE     ---       #32
      00FF5ED8H   LINE      CODE     ---       #34
      00FF5EDBH   LINE      CODE     ---       #36
      00FF5EDEH   LINE      CODE     ---       #37
      00FF5EE4H   LINE      CODE     ---       #39
      00FF5EF0H   LINE      CODE     ---       #42
      00FF5F05H   LINE      CODE     ---       #43
      00FF5F09H   LINE      CODE     ---       #44
      00FF5F0BH   LINE      CODE     ---       #45
      00FF5F0FH   LINE      CODE     ---       #48
      00FF5F24H   LINE      CODE     ---       #49
      00FF5F28H   LINE      CODE     ---       #50
      00FF5F28H   LINE      CODE     ---       #52
      00FF5F2EH   LINE      CODE     ---       #54
      00FF5F31H   LINE      CODE     ---       #55
      ---         BLOCKEND  ---      ---       LVL=0

      00FF6714H   BLOCK     CODE     ---       LVL=0
      WR6         REGSYM    ---      INT       adcn
      WR4         REGSYM    ---      INT       resolution
L251 LINKER/LOCATER V4.66.93.0                                                        07/11/2024  19:40:54  PAGE 37


      WR6         REGSYM    ---      WORD      adc_value
      00FF6714H   LINE      CODE     ---       #66
      00FF6714H   LINE      CODE     ---       #67
      00FF6714H   LINE      CODE     ---       #70
      00FF6717H   LINE      CODE     ---       #71
      00FF671BH   LINE      CODE     ---       #73
      00FF671EH   LINE      CODE     ---       #74
      00FF6723H   LINE      CODE     ---       #75
      00FF6726H   LINE      CODE     ---       #77
      00FF6728H   LINE      CODE     ---       #78
      00FF672CH   LINE      CODE     ---       #79
      00FF6732H   LINE      CODE     ---       #81
      00FF6735H   LINE      CODE     ---       #82
      00FF6738H   LINE      CODE     ---       #84
      00FF6741H   LINE      CODE     ---       #87
      00FF6741H   LINE      CODE     ---       #88
      ---         BLOCKEND  ---      ---       LVL=0

      ---         MODULE    ---      ---       zf_delay
      00FF656FH   PUBLIC    CODE     ---       delay_init
      00FF6A4FH   PUBLIC    CODE     ---       delay_ms
      00000756H   PUBLIC    EDATA    WORD      zf_delay_ms
      00000758H   PUBLIC    EDATA    WORD      zf_delay_us
      000000D0H   SFRSYM    DATA     BYTE      PSW
      000000B7H   SFRSYM    DATA     BYTE      IPH
      00000088H   SFRSYM    DATA     BYTE      TCON
      00000098H   SFRSYM    DATA     BYTE      SCON
      000000BCH   SFRSYM    DATA     BYTE      ADC_CONTR
      000000DEH   SFRSYM    DATA     BYTE      ADCCFG
      000000B8H   SFRSYM    DATA     BYTE      IP
      000000A8H   SFRSYM    DATA     BYTE      IE
      000000F8H   SFRSYM    DATA     BYTE      P7
      000000E8H   SFRSYM    DATA     BYTE      P6
      000000C8H   SFRSYM    DATA     BYTE      P5
      000000C0H   SFRSYM    DATA     BYTE      P4
      000000B0H   SFRSYM    DATA     BYTE      P3
      000000A0H   SFRSYM    DATA     BYTE      P2
      00000090H   SFRSYM    DATA     BYTE      P1
      00000080H   SFRSYM    DATA     BYTE      P0

      00FF656FH   BLOCK     CODE     ---       LVL=0
      00FF656FH   LINE      CODE     ---       #34
      00FF656FH   LINE      CODE     ---       #36
      00FF6580H   LINE      CODE     ---       #37
      00FF6591H   LINE      CODE     ---       #38
      00FF65A7H   LINE      CODE     ---       #40
      ---         BLOCKEND  ---      ---       LVL=0

      00FF6A4FH   BLOCK     CODE     ---       LVL=0
      WR4         REGSYM    ---      WORD      ms
      00FF6A51H   BLOCK     CODE     NEAR LAB  LVL=1
      WR6         REGSYM    ---      WORD      i
      ---         BLOCKEND  ---      ---       LVL=1
      00FF6A4FH   LINE      CODE     ---       #48
      00FF6A51H   LINE      CODE     ---       #49
      00FF6A51H   LINE      CODE     ---       #51
      00FF6A51H   LINE      CODE     ---       #52
      00FF6A55H   LINE      CODE     ---       #54
      00FF6A5DH   LINE      CODE     ---       #55
      00FF6A65H   LINE      CODE     ---       #56
      ---         BLOCKEND  ---      ---       LVL=0
      DR0         REGSYM    ---      DWORD     us
      WR6         REGSYM    ---      WORD      i

      ---         MODULE    ---      ---       zf_eeprom
L251 LINKER/LOCATER V4.66.93.0                                                        07/11/2024  19:40:54  PAGE 38


      000000D0H   SFRSYM    DATA     BYTE      PSW
      000000D0H.5 SFRSYM    DATA     BIT       F0
      000000C6H   SFRSYM    DATA     BYTE      IAP_TRIG
      000000B7H   SFRSYM    DATA     BYTE      IPH
      000000C2H   SFRSYM    DATA     BYTE      IAP_DATA
      000000C7H   SFRSYM    DATA     BYTE      IAP_CONTR
      00000088H   SFRSYM    DATA     BYTE      TCON
      00000098H   SFRSYM    DATA     BYTE      SCON
      000000F5H   SFRSYM    DATA     BYTE      IAP_TPS
      000000BCH   SFRSYM    DATA     BYTE      ADC_CONTR
      000000C4H   SFRSYM    DATA     BYTE      IAP_ADDRL
      000000C3H   SFRSYM    DATA     BYTE      IAP_ADDRH
      000000F6H   SFRSYM    DATA     BYTE      IAP_ADDRE
      000000DEH   SFRSYM    DATA     BYTE      ADCCFG
      000000B8H   SFRSYM    DATA     BYTE      IP
      000000C5H   SFRSYM    DATA     BYTE      IAP_CMD
      000000A8H   SFRSYM    DATA     BYTE      IE
      000000F8H   SFRSYM    DATA     BYTE      P7
      000000A8H.7 SFRSYM    DATA     BIT       EA
      000000E8H   SFRSYM    DATA     BYTE      P6
      000000C8H   SFRSYM    DATA     BYTE      P5
      000000C0H   SFRSYM    DATA     BYTE      P4
      000000B0H   SFRSYM    DATA     BYTE      P3
      000000A0H   SFRSYM    DATA     BYTE      P2
      00000090H   SFRSYM    DATA     BYTE      P1
      00000080H   SFRSYM    DATA     BYTE      P0
      R11         REGSYM    ---      BYTE      write_time
      REG=3       REGSYM    ---      ---       buf
      REG=3       REGSYM    ---      ---       buf
      WR6         REGSYM    ---      WORD      addr
      REG=3       REGSYM    ---      ---       buf
      WR6         REGSYM    ---      WORD      i

      ---         MODULE    ---      ---       zf_exti
      000000D0H   SFRSYM    DATA     BYTE      PSW
      000000B7H   SFRSYM    DATA     BYTE      IPH
      00000088H.2 SFRSYM    DATA     BIT       IT1
      000000A8H.2 SFRSYM    DATA     BIT       EX1
      00000088H.0 SFRSYM    DATA     BIT       IT0
      000000A8H.0 SFRSYM    DATA     BIT       EX0
      00000088H   SFRSYM    DATA     BYTE      TCON
      00000098H   SFRSYM    DATA     BYTE      SCON
      000000BCH   SFRSYM    DATA     BYTE      ADC_CONTR
      000000DEH   SFRSYM    DATA     BYTE      ADCCFG
      000000B8H   SFRSYM    DATA     BYTE      IP
      0000008FH   SFRSYM    DATA     BYTE      INTCLKO
      000000A8H   SFRSYM    DATA     BYTE      IE
      000000F8H   SFRSYM    DATA     BYTE      P7
      000000E8H   SFRSYM    DATA     BYTE      P6
      000000C8H   SFRSYM    DATA     BYTE      P5
      000000C0H   SFRSYM    DATA     BYTE      P4
      000000B0H   SFRSYM    DATA     BYTE      P3
      000000A0H   SFRSYM    DATA     BYTE      P2
      00000090H   SFRSYM    DATA     BYTE      P1
      00000080H   SFRSYM    DATA     BYTE      P0
      WR4         REGSYM    ---      INT       int_n
      WR2         REGSYM    ---      INT       mode

      ---         MODULE    ---      ---       zf_gpio
      00FF2D9AH   PUBLIC    CODE     ---       gpio_mode
      00000094H   SFRSYM    DATA     BYTE      P0M0
      000000D0H   SFRSYM    DATA     BYTE      PSW
      000000B7H   SFRSYM    DATA     BYTE      IPH
      00000088H   SFRSYM    DATA     BYTE      TCON
      00000098H   SFRSYM    DATA     BYTE      SCON
L251 LINKER/LOCATER V4.66.93.0                                                        07/11/2024  19:40:54  PAGE 39


      000000BCH   SFRSYM    DATA     BYTE      ADC_CONTR
      000000DEH   SFRSYM    DATA     BYTE      ADCCFG
      000000B8H   SFRSYM    DATA     BYTE      IP
      000000A8H   SFRSYM    DATA     BYTE      IE
      000000F8H   SFRSYM    DATA     BYTE      P7
      000000E1H   SFRSYM    DATA     BYTE      P7M1
      000000E8H   SFRSYM    DATA     BYTE      P6
      000000C8H   SFRSYM    DATA     BYTE      P5
      000000CBH   SFRSYM    DATA     BYTE      P6M1
      000000E2H   SFRSYM    DATA     BYTE      P7M0
      000000C0H   SFRSYM    DATA     BYTE      P4
      000000C9H   SFRSYM    DATA     BYTE      P5M1
      000000CCH   SFRSYM    DATA     BYTE      P6M0
      000000B0H   SFRSYM    DATA     BYTE      P3
      000000B3H   SFRSYM    DATA     BYTE      P4M1
      000000CAH   SFRSYM    DATA     BYTE      P5M0
      000000A0H   SFRSYM    DATA     BYTE      P2
      000000B1H   SFRSYM    DATA     BYTE      P3M1
      000000B4H   SFRSYM    DATA     BYTE      P4M0
      00000090H   SFRSYM    DATA     BYTE      P1
      00000095H   SFRSYM    DATA     BYTE      P2M1
      000000B2H   SFRSYM    DATA     BYTE      P3M0
      00000080H   SFRSYM    DATA     BYTE      P0
      00000091H   SFRSYM    DATA     BYTE      P1M1
      00000096H   SFRSYM    DATA     BYTE      P2M0
      00000092H   SFRSYM    DATA     BYTE      P1M0
      00000093H   SFRSYM    DATA     BYTE      P0M1
      WR4         REGSYM    ---      INT       pin
      WR2         REGSYM    ---      INT       pull

      00FF2D9AH   BLOCK     CODE     ---       LVL=0
      WR4         REGSYM    ---      INT       pin
      WR2         REGSYM    ---      INT       mode
      00FF2D9AH   LINE      CODE     ---       #54
      00FF2D9EH   LINE      CODE     ---       #56
      00FF2DA5H   LINE      CODE     ---       #58
      00FF2DADH   LINE      CODE     ---       #60
      00FF2DC5H   LINE      CODE     ---       #61
      00FF2DC7H   LINE      CODE     ---       #62
      00FF2DC7H   LINE      CODE     ---       #63
      00FF2DCDH   LINE      CODE     ---       #65
      00FF2DE5H   LINE      CODE     ---       #66
      00FF2DE7H   LINE      CODE     ---       #67
      00FF2DE7H   LINE      CODE     ---       #68
      00FF2DEDH   LINE      CODE     ---       #70
      00FF2E05H   LINE      CODE     ---       #71
      00FF2E07H   LINE      CODE     ---       #72
      00FF2E07H   LINE      CODE     ---       #74
      00FF2E0DH   LINE      CODE     ---       #76
      00FF2E25H   LINE      CODE     ---       #77
      00FF2E27H   LINE      CODE     ---       #78
      00FF2E27H   LINE      CODE     ---       #79
      00FF2E2DH   LINE      CODE     ---       #81
      00FF2E45H   LINE      CODE     ---       #82
      00FF2E47H   LINE      CODE     ---       #83
      00FF2E47H   LINE      CODE     ---       #84
      00FF2E4DH   LINE      CODE     ---       #86
      00FF2E65H   LINE      CODE     ---       #87
      00FF2E67H   LINE      CODE     ---       #88
      00FF2E67H   LINE      CODE     ---       #89
      00FF2E6DH   LINE      CODE     ---       #91
      00FF2E85H   LINE      CODE     ---       #92
      00FF2E87H   LINE      CODE     ---       #93
      00FF2E87H   LINE      CODE     ---       #94
      00FF2E90H   LINE      CODE     ---       #96
L251 LINKER/LOCATER V4.66.93.0                                                        07/11/2024  19:40:54  PAGE 40


      00FF2EA8H   LINE      CODE     ---       #97
      00FF2EAAH   LINE      CODE     ---       #98
      00FF2EABH   LINE      CODE     ---       #100
      00FF2EB4H   LINE      CODE     ---       #102
      00FF2EBCH   LINE      CODE     ---       #104
      00FF2ED1H   LINE      CODE     ---       #105
      00FF2ED5H   LINE      CODE     ---       #106
      00FF2ED5H   LINE      CODE     ---       #107
      00FF2EDBH   LINE      CODE     ---       #109
      00FF2EF0H   LINE      CODE     ---       #110
      00FF2EF4H   LINE      CODE     ---       #111
      00FF2EF4H   LINE      CODE     ---       #112
      00FF2EFAH   LINE      CODE     ---       #114
      00FF2F0FH   LINE      CODE     ---       #115
      00FF2F13H   LINE      CODE     ---       #116
      00FF2F13H   LINE      CODE     ---       #118
      00FF2F19H   LINE      CODE     ---       #120
      00FF2F2EH   LINE      CODE     ---       #121
      00FF2F32H   LINE      CODE     ---       #122
      00FF2F32H   LINE      CODE     ---       #123
      00FF2F38H   LINE      CODE     ---       #125
      00FF2F4DH   LINE      CODE     ---       #126
      00FF2F51H   LINE      CODE     ---       #127
      00FF2F51H   LINE      CODE     ---       #128
      00FF2F57H   LINE      CODE     ---       #130
      00FF2F6CH   LINE      CODE     ---       #131
      00FF2F70H   LINE      CODE     ---       #132
      00FF2F70H   LINE      CODE     ---       #133
      00FF2F76H   LINE      CODE     ---       #135
      00FF2F8BH   LINE      CODE     ---       #136
      00FF2F8FH   LINE      CODE     ---       #137
      00FF2F8FH   LINE      CODE     ---       #138
      00FF2F98H   LINE      CODE     ---       #140
      00FF2FAFH   LINE      CODE     ---       #141
      00FF2FAFH   LINE      CODE     ---       #142
      00FF2FB2H   LINE      CODE     ---       #145
      00FF2FBBH   LINE      CODE     ---       #147
      00FF2FC3H   LINE      CODE     ---       #149
      00FF2FD6H   LINE      CODE     ---       #150
      00FF2FDAH   LINE      CODE     ---       #151
      00FF2FDAH   LINE      CODE     ---       #152
      00FF2FE0H   LINE      CODE     ---       #154
      00FF2FF3H   LINE      CODE     ---       #155
      00FF2FF7H   LINE      CODE     ---       #156
      00FF2FF7H   LINE      CODE     ---       #157
      00FF2FFDH   LINE      CODE     ---       #159
      00FF3010H   LINE      CODE     ---       #160
      00FF3014H   LINE      CODE     ---       #161
      00FF3014H   LINE      CODE     ---       #163
      00FF301AH   LINE      CODE     ---       #165
      00FF302DH   LINE      CODE     ---       #166
      00FF3031H   LINE      CODE     ---       #167
      00FF3031H   LINE      CODE     ---       #168
      00FF3037H   LINE      CODE     ---       #170
      00FF304AH   LINE      CODE     ---       #171
      00FF304EH   LINE      CODE     ---       #172
      00FF304EH   LINE      CODE     ---       #173
      00FF3054H   LINE      CODE     ---       #175
      00FF3067H   LINE      CODE     ---       #176
      00FF306BH   LINE      CODE     ---       #177
      00FF306BH   LINE      CODE     ---       #178
      00FF3071H   LINE      CODE     ---       #180
      00FF3084H   LINE      CODE     ---       #181
      00FF3088H   LINE      CODE     ---       #182
      00FF3088H   LINE      CODE     ---       #183
L251 LINKER/LOCATER V4.66.93.0                                                        07/11/2024  19:40:54  PAGE 41


      00FF3091H   LINE      CODE     ---       #185
      00FF30A4H   LINE      CODE     ---       #186
      00FF30A8H   LINE      CODE     ---       #187
      00FF30A9H   LINE      CODE     ---       #189
      00FF30B2H   LINE      CODE     ---       #191
      00FF30BAH   LINE      CODE     ---       #193
      00FF30CDH   LINE      CODE     ---       #194
      00FF30CFH   LINE      CODE     ---       #195
      00FF30CFH   LINE      CODE     ---       #196
      00FF30D5H   LINE      CODE     ---       #198
      00FF30E8H   LINE      CODE     ---       #199
      00FF30EAH   LINE      CODE     ---       #200
      00FF30EAH   LINE      CODE     ---       #201
      00FF30F0H   LINE      CODE     ---       #203
      00FF3103H   LINE      CODE     ---       #204
      00FF3105H   LINE      CODE     ---       #205
      00FF3105H   LINE      CODE     ---       #207
      00FF310BH   LINE      CODE     ---       #209
      00FF311EH   LINE      CODE     ---       #210
      00FF3120H   LINE      CODE     ---       #211
      00FF3120H   LINE      CODE     ---       #212
      00FF3126H   LINE      CODE     ---       #214
      00FF3139H   LINE      CODE     ---       #215
      00FF313BH   LINE      CODE     ---       #216
      00FF313BH   LINE      CODE     ---       #217
      00FF3141H   LINE      CODE     ---       #219
      00FF3154H   LINE      CODE     ---       #220
      00FF3156H   LINE      CODE     ---       #221
      00FF3156H   LINE      CODE     ---       #222
      00FF315CH   LINE      CODE     ---       #224
      00FF316FH   LINE      CODE     ---       #225
      00FF3171H   LINE      CODE     ---       #226
      00FF3171H   LINE      CODE     ---       #227
      00FF3177H   LINE      CODE     ---       #229
      00FF318CH   LINE      CODE     ---       #230
      00FF3190H   LINE      CODE     ---       #231
      00FF3190H   LINE      CODE     ---       #233
      ---         BLOCKEND  ---      ---       LVL=0

      ---         MODULE    ---      ---       zf_iic
      000000D0H   SFRSYM    DATA     BYTE      PSW
      000000B7H   SFRSYM    DATA     BYTE      IPH
      00000088H   SFRSYM    DATA     BYTE      TCON
      00000098H   SFRSYM    DATA     BYTE      SCON
      000000BCH   SFRSYM    DATA     BYTE      ADC_CONTR
      000000DEH   SFRSYM    DATA     BYTE      ADCCFG
      000000B8H   SFRSYM    DATA     BYTE      IP
      000000A8H   SFRSYM    DATA     BYTE      IE
      000000BAH   SFRSYM    DATA     BYTE      P_SW2
      000000F8H   SFRSYM    DATA     BYTE      P7
      000000E8H   SFRSYM    DATA     BYTE      P6
      000000C8H   SFRSYM    DATA     BYTE      P5
      000000C0H   SFRSYM    DATA     BYTE      P4
      000000B0H   SFRSYM    DATA     BYTE      P3
      000000A0H   SFRSYM    DATA     BYTE      P2
      00000090H   SFRSYM    DATA     BYTE      P1
      00000080H   SFRSYM    DATA     BYTE      P0
      WR6         REGSYM    ---      WORD      x
      R10         REGSYM    ---      BYTE      i
      WR12        REGSYM    ---      WORD      count
      R15         REGSYM    ---      BYTE      ret
      R11         REGSYM    ---      BYTE      ret
      R11         REGSYM    ---      CHAR      dat
      R11         REGSYM    ---      BYTE      ret
      R11         REGSYM    ---      BYTE      ret
L251 LINKER/LOCATER V4.66.93.0                                                        07/11/2024  19:40:54  PAGE 42


      R11         REGSYM    ---      BYTE      ret
      R11         REGSYM    ---      BYTE      ret
      WR6         REGSYM    ---      INT       iic_n
      R13         REGSYM    ---      BYTE      dev_add
      R14         REGSYM    ---      BYTE      reg
      R15         REGSYM    ---      BYTE      dat
      R15         REGSYM    ---      BYTE      dev_add
      R14         REGSYM    ---      BYTE      reg
      REG=3       REGSYM    ---      ---       dat
      WR6         REGSYM    ---      INT       iic_n

      ---         MODULE    ---      ---       zf_nvic
      000000D0H   SFRSYM    DATA     BYTE      PSW
      000000B7H   SFRSYM    DATA     BYTE      IPH
      000000B5H   SFRSYM    DATA     BYTE      IP2
      00000088H   SFRSYM    DATA     BYTE      TCON
      00000098H   SFRSYM    DATA     BYTE      SCON
      000000BCH   SFRSYM    DATA     BYTE      ADC_CONTR
      000000DEH   SFRSYM    DATA     BYTE      ADCCFG
      000000B8H   SFRSYM    DATA     BYTE      IP
      000000B6H   SFRSYM    DATA     BYTE      IP2H
      000000A8H   SFRSYM    DATA     BYTE      IE
      000000F8H   SFRSYM    DATA     BYTE      P7
      000000E8H   SFRSYM    DATA     BYTE      P6
      000000C8H   SFRSYM    DATA     BYTE      P5
      000000C0H   SFRSYM    DATA     BYTE      P4
      000000B0H   SFRSYM    DATA     BYTE      P3
      000000A0H   SFRSYM    DATA     BYTE      P2
      00000090H   SFRSYM    DATA     BYTE      P1
      00000080H   SFRSYM    DATA     BYTE      P0
      WR4         REGSYM    ---      INT       irqn
      R3          REGSYM    ---      BYTE      priority

      ---         MODULE    ---      ---       zf_pwm
      00FF52E7H   PUBLIC    CODE     ---       pwm_duty
      00FF37D3H   PUBLIC    CODE     ---       pwm_set_gpio
      00FF34EFH   PUBLIC    CODE     ---       pwm_init
      00FF6E10H   PUBLIC    HCONST   ---       PWM_CCR_ADDR
      00FF6E30H   PUBLIC    HCONST   ---       PWM_ARR_ADDR
      00FF6E38H   PUBLIC    HCONST   ---       PWM_CCER_ADDR
      00FF6E48H   PUBLIC    HCONST   ---       PWM_CCMR_ADDR
      00000404H   PUBLIC    EDATA    BYTE      ?pwm_init?BYTE
      000000D0H   SFRSYM    DATA     BYTE      PSW
      000000B7H   SFRSYM    DATA     BYTE      IPH
      00000088H   SFRSYM    DATA     BYTE      TCON
      00000098H   SFRSYM    DATA     BYTE      SCON
      000000BCH   SFRSYM    DATA     BYTE      ADC_CONTR
      000000DEH   SFRSYM    DATA     BYTE      ADCCFG
      000000B8H   SFRSYM    DATA     BYTE      IP
      000000A8H   SFRSYM    DATA     BYTE      IE
      000000BAH   SFRSYM    DATA     BYTE      P_SW2
      000000F8H   SFRSYM    DATA     BYTE      P7
      000000E8H   SFRSYM    DATA     BYTE      P6
      000000C8H   SFRSYM    DATA     BYTE      P5
      000000C0H   SFRSYM    DATA     BYTE      P4
      000000B0H   SFRSYM    DATA     BYTE      P3
      000000A0H   SFRSYM    DATA     BYTE      P2
      00000090H   SFRSYM    DATA     BYTE      P1
      00000080H   SFRSYM    DATA     BYTE      P0

      00FF37D3H   BLOCK     CODE     ---       LVL=0
      WR6         REGSYM    ---      INT       pwmch
      00FF37D3H   LINE      CODE     ---       #49
      00FF37D3H   LINE      CODE     ---       #51
      00FF3946H   LINE      CODE     ---       #53
L251 LINKER/LOCATER V4.66.93.0                                                        07/11/2024  19:40:54  PAGE 43


      00FF3946H   LINE      CODE     ---       #55
      00FF394AH   LINE      CODE     ---       #56
      00FF394DH   LINE      CODE     ---       #58
      00FF394DH   LINE      CODE     ---       #60
      00FF3951H   LINE      CODE     ---       #61
      00FF3954H   LINE      CODE     ---       #63
      00FF3954H   LINE      CODE     ---       #65
      00FF3958H   LINE      CODE     ---       #66
      00FF395BH   LINE      CODE     ---       #68
      00FF395BH   LINE      CODE     ---       #70
      00FF395FH   LINE      CODE     ---       #71
      00FF3962H   LINE      CODE     ---       #73
      00FF3962H   LINE      CODE     ---       #75
      00FF3966H   LINE      CODE     ---       #76
      00FF3969H   LINE      CODE     ---       #78
      00FF3969H   LINE      CODE     ---       #80
      00FF396DH   LINE      CODE     ---       #81
      00FF3970H   LINE      CODE     ---       #84
      00FF3970H   LINE      CODE     ---       #86
      00FF3974H   LINE      CODE     ---       #87
      00FF3977H   LINE      CODE     ---       #89
      00FF3977H   LINE      CODE     ---       #91
      00FF397BH   LINE      CODE     ---       #92
      00FF397EH   LINE      CODE     ---       #94
      00FF397EH   LINE      CODE     ---       #96
      00FF3982H   LINE      CODE     ---       #97
      00FF3985H   LINE      CODE     ---       #99
      00FF3985H   LINE      CODE     ---       #101
      00FF3989H   LINE      CODE     ---       #102
      00FF398CH   LINE      CODE     ---       #104
      00FF398CH   LINE      CODE     ---       #106
      00FF3990H   LINE      CODE     ---       #107
      00FF3993H   LINE      CODE     ---       #109
      00FF3993H   LINE      CODE     ---       #111
      00FF3997H   LINE      CODE     ---       #112
      00FF399AH   LINE      CODE     ---       #115
      00FF399AH   LINE      CODE     ---       #117
      00FF399EH   LINE      CODE     ---       #118
      00FF39A0H   LINE      CODE     ---       #120
      00FF39A0H   LINE      CODE     ---       #122
      00FF39A4H   LINE      CODE     ---       #123
      00FF39A6H   LINE      CODE     ---       #125
      00FF39A6H   LINE      CODE     ---       #127
      00FF39AAH   LINE      CODE     ---       #128
      00FF39ACH   LINE      CODE     ---       #130
      00FF39ACH   LINE      CODE     ---       #132
      00FF39B0H   LINE      CODE     ---       #133
      00FF39B2H   LINE      CODE     ---       #135
      00FF39B2H   LINE      CODE     ---       #137
      00FF39B6H   LINE      CODE     ---       #138
      00FF39B8H   LINE      CODE     ---       #140
      00FF39B8H   LINE      CODE     ---       #142
      00FF39BCH   LINE      CODE     ---       #143
      00FF39BEH   LINE      CODE     ---       #147
      00FF39BEH   LINE      CODE     ---       #149
      00FF39C2H   LINE      CODE     ---       #150
      00FF39C4H   LINE      CODE     ---       #152
      00FF39C4H   LINE      CODE     ---       #154
      00FF39C8H   LINE      CODE     ---       #155
      00FF39CAH   LINE      CODE     ---       #157
      00FF39CAH   LINE      CODE     ---       #159
      00FF39CEH   LINE      CODE     ---       #160
      00FF39D0H   LINE      CODE     ---       #162
      00FF39D0H   LINE      CODE     ---       #164
      00FF39D4H   LINE      CODE     ---       #165
L251 LINKER/LOCATER V4.66.93.0                                                        07/11/2024  19:40:54  PAGE 44


      00FF39D6H   LINE      CODE     ---       #167
      00FF39D6H   LINE      CODE     ---       #169
      00FF39DAH   LINE      CODE     ---       #170
      00FF39DCH   LINE      CODE     ---       #172
      00FF39DCH   LINE      CODE     ---       #174
      00FF39E0H   LINE      CODE     ---       #175
      00FF39E2H   LINE      CODE     ---       #177
      00FF39E2H   LINE      CODE     ---       #179
      00FF39E6H   LINE      CODE     ---       #180
      00FF39E8H   LINE      CODE     ---       #182
      00FF39E8H   LINE      CODE     ---       #184
      00FF39ECH   LINE      CODE     ---       #185
      00FF39EEH   LINE      CODE     ---       #189
      00FF39EEH   LINE      CODE     ---       #191
      00FF39F2H   LINE      CODE     ---       #192
      00FF39F4H   LINE      CODE     ---       #194
      00FF39F4H   LINE      CODE     ---       #196
      00FF39F8H   LINE      CODE     ---       #197
      00FF39FAH   LINE      CODE     ---       #199
      00FF39FAH   LINE      CODE     ---       #201
      00FF39FCH   LINE      CODE     ---       #202
      00FF39FEH   LINE      CODE     ---       #204
      00FF39FEH   LINE      CODE     ---       #206
      00FF3A02H   LINE      CODE     ---       #207
      00FF3A04H   LINE      CODE     ---       #210
      00FF3A04H   LINE      CODE     ---       #212
      00FF3A08H   LINE      CODE     ---       #213
      00FF3A0AH   LINE      CODE     ---       #215
      00FF3A0AH   LINE      CODE     ---       #217
      00FF3A0EH   LINE      CODE     ---       #218
      00FF3A10H   LINE      CODE     ---       #220
      00FF3A10H   LINE      CODE     ---       #222
      00FF3A16H   LINE      CODE     ---       #223
      00FF3A18H   LINE      CODE     ---       #225
      00FF3A18H   LINE      CODE     ---       #227
      00FF3A20H   LINE      CODE     ---       #228
      00FF3A22H   LINE      CODE     ---       #232
      00FF3A22H   LINE      CODE     ---       #234
      00FF3A2AH   LINE      CODE     ---       #235
      00FF3A2CH   LINE      CODE     ---       #237
      00FF3A2CH   LINE      CODE     ---       #239
      00FF3A34H   LINE      CODE     ---       #240
      00FF3A36H   LINE      CODE     ---       #242
      00FF3A36H   LINE      CODE     ---       #244
      00FF3A3EH   LINE      CODE     ---       #245
      00FF3A40H   LINE      CODE     ---       #247
      00FF3A40H   LINE      CODE     ---       #249
      00FF3A48H   LINE      CODE     ---       #250
      00FF3A4AH   LINE      CODE     ---       #254
      00FF3A4AH   LINE      CODE     ---       #256
      00FF3A52H   LINE      CODE     ---       #257
      00FF3A54H   LINE      CODE     ---       #259
      00FF3A54H   LINE      CODE     ---       #261
      00FF3A5CH   LINE      CODE     ---       #262
      00FF3A5EH   LINE      CODE     ---       #264
      00FF3A5EH   LINE      CODE     ---       #266
      00FF3A66H   LINE      CODE     ---       #267
      00FF3A68H   LINE      CODE     ---       #269
      00FF3A68H   LINE      CODE     ---       #271
      00FF3A73H   LINE      CODE     ---       #272
      00FF3A73H   LINE      CODE     ---       #275
      00FF3A73H   LINE      CODE     ---       #277
      ---         BLOCKEND  ---      ---       LVL=0

      00FF34EFH   BLOCK     CODE     ---       LVL=0
L251 LINKER/LOCATER V4.66.93.0                                                        07/11/2024  19:40:54  PAGE 45


      WR14        REGSYM    ---      INT       pwmch
      00000406H   SYMBOL    EDATA    DWORD     freq
      0000040AH   SYMBOL    EDATA    DWORD     duty
      00FF34F7H   BLOCK     CODE     NEAR LAB  LVL=1
      DR4         REGSYM    ---      DWORD     match_temp
      DR28        REGSYM    ---      DWORD     period_temp
      WR26        REGSYM    ---      WORD      freq_div
      ---         BLOCKEND  ---      ---       LVL=1
      00FF34EFH   LINE      CODE     ---       #290
      00FF34F7H   LINE      CODE     ---       #291
      00FF34F7H   LINE      CODE     ---       #295
      00FF34F7H   LINE      CODE     ---       #298
      00FF34FAH   LINE      CODE     ---       #301
      00FF34FDH   LINE      CODE     ---       #305
      00FF350EH   LINE      CODE     ---       #306
      00FF350EH   LINE      CODE     ---       #307
      00FF3517H   LINE      CODE     ---       #309
      00FF3538H   LINE      CODE     ---       #312
      00FF3541H   LINE      CODE     ---       #315
      00FF356CH   LINE      CODE     ---       #316
      00FF358DH   LINE      CODE     ---       #319
      00FF35D9H   LINE      CODE     ---       #322
      00FF35E8H   LINE      CODE     ---       #323
      00FF35F3H   LINE      CODE     ---       #325
      00FF35FCH   LINE      CODE     ---       #326
      00FF3602H   LINE      CODE     ---       #327
      00FF3605H   LINE      CODE     ---       #330
      00FF363DH   LINE      CODE     ---       #331
      00FF3660H   LINE      CODE     ---       #334
      00FF36B2H   LINE      CODE     ---       #338
      00FF36C1H   LINE      CODE     ---       #339
      00FF36CCH   LINE      CODE     ---       #341
      00FF36D5H   LINE      CODE     ---       #342
      00FF36E2H   LINE      CODE     ---       #343
      00FF36E2H   LINE      CODE     ---       #346
      00FF370EH   LINE      CODE     ---       #347
      00FF373CH   LINE      CODE     ---       #350
      00FF3762H   LINE      CODE     ---       #351
      00FF378EH   LINE      CODE     ---       #354
      00FF37A5H   LINE      CODE     ---       #355
      00FF37D0H   LINE      CODE     ---       #360
      ---         BLOCKEND  ---      ---       LVL=0

      00FF52E7H   BLOCK     CODE     ---       LVL=0
      WR30        REGSYM    ---      INT       pwmch
      DR24        REGSYM    ---      DWORD     duty
      00FF52EBH   BLOCK     CODE     NEAR LAB  LVL=1
      DR0         REGSYM    ---      DWORD     match_temp
      DR20        REGSYM    ---      DWORD     arr
      ---         BLOCKEND  ---      ---       LVL=1
      00FF52E7H   LINE      CODE     ---       #370
      00FF52EBH   LINE      CODE     ---       #371
      00FF52EBH   LINE      CODE     ---       #373
      00FF532FH   LINE      CODE     ---       #377
      00FF5350H   LINE      CODE     ---       #381
      00FF5376H   LINE      CODE     ---       #382
      00FF539EH   LINE      CODE     ---       #386
      ---         BLOCKEND  ---      ---       LVL=0
      WR30        REGSYM    ---      INT       pwmch
      DR24        REGSYM    ---      DWORD     freq
      DR0         REGSYM    ---      DWORD     match_temp
      DR24        REGSYM    ---      DWORD     period_temp
      WR28        REGSYM    ---      WORD      freq_div

      ---         MODULE    ---      ---       zf_spi
L251 LINKER/LOCATER V4.66.93.0                                                        07/11/2024  19:40:54  PAGE 46


      000000CFH   SFRSYM    DATA     BYTE      SPDAT
      000000D0H   SFRSYM    DATA     BYTE      PSW
      000000B7H   SFRSYM    DATA     BYTE      IPH
      000000CDH   SFRSYM    DATA     BYTE      SPSTAT
      00000088H   SFRSYM    DATA     BYTE      TCON
      00000098H   SFRSYM    DATA     BYTE      SCON
      000000BCH   SFRSYM    DATA     BYTE      ADC_CONTR
      000000DEH   SFRSYM    DATA     BYTE      ADCCFG
      000000B8H   SFRSYM    DATA     BYTE      IP
      000000A8H   SFRSYM    DATA     BYTE      IE
      000000A2H   SFRSYM    DATA     BYTE      P_SW1
      000000CEH   SFRSYM    DATA     BYTE      SPCTL
      000000F8H   SFRSYM    DATA     BYTE      P7
      000000E8H   SFRSYM    DATA     BYTE      P6
      000000C8H   SFRSYM    DATA     BYTE      P5
      000000C0H   SFRSYM    DATA     BYTE      P4
      000000B0H   SFRSYM    DATA     BYTE      P3
      000000A0H   SFRSYM    DATA     BYTE      P2
      00000090H   SFRSYM    DATA     BYTE      P1
      00000080H   SFRSYM    DATA     BYTE      P0
      WR14        REGSYM    ---      INT       spi_n
      R13         REGSYM    ---      BYTE      mode
      R11         REGSYM    ---      BYTE      dat
      WR14        REGSYM    ---      INT       spi_n
      R7          REGSYM    ---      BYTE      mode

      ---         MODULE    ---      ---       zf_tim
      00FF618BH   PUBLIC    CODE     ---       ctimer_count_read
      00FF56C4H   PUBLIC    CODE     ---       pit_timer_ms
      00FF6225H   PUBLIC    CODE     ---       ctimer_count_init
      00FF613AH   PUBLIC    CODE     ---       ctimer_count_clean
      000000D0H   SFRSYM    DATA     BYTE      PSW
      000000B7H   SFRSYM    DATA     BYTE      IPH
      000000DDH   SFRSYM    DATA     BYTE      T4T3M
      00000088H.6 SFRSYM    DATA     BIT       TR1
      00000088H.4 SFRSYM    DATA     BIT       TR0
      000000D3H   SFRSYM    DATA     BYTE      T4L
      000000D5H   SFRSYM    DATA     BYTE      T3L
      000000D7H   SFRSYM    DATA     BYTE      T2L
      0000008BH   SFRSYM    DATA     BYTE      TL1
      0000008AH   SFRSYM    DATA     BYTE      TL0
      000000D2H   SFRSYM    DATA     BYTE      T4H
      000000D4H   SFRSYM    DATA     BYTE      T3H
      000000D6H   SFRSYM    DATA     BYTE      T2H
      0000008DH   SFRSYM    DATA     BYTE      TH1
      0000008CH   SFRSYM    DATA     BYTE      TH0
      000000A8H.3 SFRSYM    DATA     BIT       ET1
      000000A8H.1 SFRSYM    DATA     BIT       ET0
      0000008EH   SFRSYM    DATA     BYTE      AUXR
      000000AFH   SFRSYM    DATA     BYTE      IE2
      00000088H   SFRSYM    DATA     BYTE      TCON
      00000089H   SFRSYM    DATA     BYTE      TMOD
      00000098H   SFRSYM    DATA     BYTE      SCON
      000000BCH   SFRSYM    DATA     BYTE      ADC_CONTR
      000000DEH   SFRSYM    DATA     BYTE      ADCCFG
      000000B8H   SFRSYM    DATA     BYTE      IP
      000000A8H   SFRSYM    DATA     BYTE      IE
      000000F8H   SFRSYM    DATA     BYTE      P7
      000000E8H   SFRSYM    DATA     BYTE      P6
      000000C8H   SFRSYM    DATA     BYTE      P5
      000000C0H   SFRSYM    DATA     BYTE      P4
      000000B0H   SFRSYM    DATA     BYTE      P3
      000000A0H   SFRSYM    DATA     BYTE      P2
      00000090H   SFRSYM    DATA     BYTE      P1
      00000080H   SFRSYM    DATA     BYTE      P0
L251 LINKER/LOCATER V4.66.93.0                                                        07/11/2024  19:40:54  PAGE 47



      00FF6225H   BLOCK     CODE     ---       LVL=0
      WR6         REGSYM    ---      INT       tim_n
      00FF6225H   LINE      CODE     ---       #39
      00FF6225H   LINE      CODE     ---       #42
      00FF6239H   LINE      CODE     ---       #44
      00FF6239H   LINE      CODE     ---       #46
      00FF623CH   LINE      CODE     ---       #47
      00FF623FH   LINE      CODE     ---       #48
      00FF6242H   LINE      CODE     ---       #49
      00FF6244H   LINE      CODE     ---       #50
      00FF6245H   LINE      CODE     ---       #53
      00FF6245H   LINE      CODE     ---       #55
      00FF6248H   LINE      CODE     ---       #56
      00FF624BH   LINE      CODE     ---       #57
      00FF624EH   LINE      CODE     ---       #58
      00FF6250H   LINE      CODE     ---       #59
      00FF6251H   LINE      CODE     ---       #62
      00FF6251H   LINE      CODE     ---       #64
      00FF6254H   LINE      CODE     ---       #65
      00FF6257H   LINE      CODE     ---       #66
      00FF625AH   LINE      CODE     ---       #67
      00FF625BH   LINE      CODE     ---       #70
      00FF625BH   LINE      CODE     ---       #72
      00FF625EH   LINE      CODE     ---       #73
      00FF6261H   LINE      CODE     ---       #74
      00FF6264H   LINE      CODE     ---       #75
      00FF6265H   LINE      CODE     ---       #78
      00FF6265H   LINE      CODE     ---       #80
      00FF6268H   LINE      CODE     ---       #81
      00FF626BH   LINE      CODE     ---       #82
      00FF626EH   LINE      CODE     ---       #83
      00FF626EH   LINE      CODE     ---       #86
      00FF626EH   LINE      CODE     ---       #87
      ---         BLOCKEND  ---      ---       LVL=0

      00FF618BH   BLOCK     CODE     ---       LVL=0
      WR4         REGSYM    ---      INT       tim_n
      00FF618DH   BLOCK     CODE     NEAR LAB  LVL=1
      WR6         REGSYM    ---      WORD      dat
      ---         BLOCKEND  ---      ---       LVL=1
      00FF618BH   LINE      CODE     ---       #95
      00FF618DH   LINE      CODE     ---       #96
      00FF618DH   LINE      CODE     ---       #97
      00FF618FH   LINE      CODE     ---       #99
      00FF61A3H   LINE      CODE     ---       #101
      00FF61A3H   LINE      CODE     ---       #103
      00FF61A9H   LINE      CODE     ---       #104
      00FF61ABH   LINE      CODE     ---       #105
      00FF61ADH   LINE      CODE     ---       #107
      00FF61ADH   LINE      CODE     ---       #109
      00FF61B3H   LINE      CODE     ---       #110
      00FF61B5H   LINE      CODE     ---       #111
      00FF61B7H   LINE      CODE     ---       #113
      00FF61B7H   LINE      CODE     ---       #115
      00FF61BDH   LINE      CODE     ---       #116
      00FF61BFH   LINE      CODE     ---       #117
      00FF61C1H   LINE      CODE     ---       #119
      00FF61C1H   LINE      CODE     ---       #121
      00FF61C7H   LINE      CODE     ---       #122
      00FF61C9H   LINE      CODE     ---       #123
      00FF61CBH   LINE      CODE     ---       #125
      00FF61CBH   LINE      CODE     ---       #127
      00FF61D1H   LINE      CODE     ---       #128
      00FF61D7H   LINE      CODE     ---       #129
L251 LINKER/LOCATER V4.66.93.0                                                        07/11/2024  19:40:54  PAGE 48


      00FF61D7H   LINE      CODE     ---       #132
      00FF61D7H   LINE      CODE     ---       #133
      00FF61D7H   LINE      CODE     ---       #134
      ---         BLOCKEND  ---      ---       LVL=0

      00FF613AH   BLOCK     CODE     ---       LVL=0
      WR6         REGSYM    ---      INT       tim_n
      00FF613AH   LINE      CODE     ---       #143
      00FF613AH   LINE      CODE     ---       #145
      00FF614EH   LINE      CODE     ---       #147
      00FF614EH   LINE      CODE     ---       #149
      00FF6150H   LINE      CODE     ---       #150
      00FF6153H   LINE      CODE     ---       #151
      00FF6156H   LINE      CODE     ---       #152
      00FF6158H   LINE      CODE     ---       #153
      00FF6159H   LINE      CODE     ---       #155
      00FF6159H   LINE      CODE     ---       #157
      00FF615BH   LINE      CODE     ---       #158
      00FF615EH   LINE      CODE     ---       #159
      00FF6161H   LINE      CODE     ---       #160
      00FF6163H   LINE      CODE     ---       #161
      00FF6164H   LINE      CODE     ---       #163
      00FF6164H   LINE      CODE     ---       #165
      00FF6167H   LINE      CODE     ---       #166
      00FF616AH   LINE      CODE     ---       #167
      00FF616DH   LINE      CODE     ---       #168
      00FF6170H   LINE      CODE     ---       #169
      00FF6171H   LINE      CODE     ---       #171
      00FF6171H   LINE      CODE     ---       #173
      00FF6174H   LINE      CODE     ---       #174
      00FF6177H   LINE      CODE     ---       #175
      00FF617AH   LINE      CODE     ---       #176
      00FF617DH   LINE      CODE     ---       #177
      00FF617EH   LINE      CODE     ---       #179
      00FF617EH   LINE      CODE     ---       #181
      00FF6181H   LINE      CODE     ---       #182
      00FF6184H   LINE      CODE     ---       #183
      00FF6187H   LINE      CODE     ---       #184
      00FF618AH   LINE      CODE     ---       #185
      00FF618AH   LINE      CODE     ---       #187
      00FF618AH   LINE      CODE     ---       #188
      ---         BLOCKEND  ---      ---       LVL=0

      00FF56C4H   BLOCK     CODE     ---       LVL=0
      WR30        REGSYM    ---      INT       tim_n
      WR28        REGSYM    ---      WORD      time_ms
      00FF56C6H   BLOCK     CODE     NEAR LAB  LVL=1
      WR28        REGSYM    ---      WORD      temp
      ---         BLOCKEND  ---      ---       LVL=1
      00FF56C4H   LINE      CODE     ---       #198
      00FF56C6H   LINE      CODE     ---       #199
      00FF56C6H   LINE      CODE     ---       #201
      00FF56E3H   LINE      CODE     ---       #203
      00FF56E7H   LINE      CODE     ---       #205
      00FF56EBH   LINE      CODE     ---       #206
      00FF56F1H   LINE      CODE     ---       #207
      00FF56F5H   LINE      CODE     ---       #208
      00FF56F7H   LINE      CODE     ---       #209
      00FF56F9H   LINE      CODE     ---       #210
      00FF56FAH   LINE      CODE     ---       #211
      00FF5700H   LINE      CODE     ---       #213
      00FF5704H   LINE      CODE     ---       #214
      00FF570AH   LINE      CODE     ---       #215
      00FF570EH   LINE      CODE     ---       #216
      00FF5710H   LINE      CODE     ---       #217
L251 LINKER/LOCATER V4.66.93.0                                                        07/11/2024  19:40:54  PAGE 49


      00FF5712H   LINE      CODE     ---       #218
      00FF5713H   LINE      CODE     ---       #219
      00FF5719H   LINE      CODE     ---       #221
      00FF571FH   LINE      CODE     ---       #222
      00FF5723H   LINE      CODE     ---       #223
      00FF5726H   LINE      CODE     ---       #224
      00FF5729H   LINE      CODE     ---       #225
      00FF572AH   LINE      CODE     ---       #226
      00FF5730H   LINE      CODE     ---       #228
      00FF5736H   LINE      CODE     ---       #229
      00FF573AH   LINE      CODE     ---       #230
      00FF573DH   LINE      CODE     ---       #231
      00FF5740H   LINE      CODE     ---       #232
      00FF5741H   LINE      CODE     ---       #233
      00FF5747H   LINE      CODE     ---       #235
      00FF574DH   LINE      CODE     ---       #236
      00FF5751H   LINE      CODE     ---       #237
      00FF5754H   LINE      CODE     ---       #238
      00FF5757H   LINE      CODE     ---       #239
      ---         BLOCKEND  ---      ---       LVL=0
      WR30        REGSYM    ---      INT       tim_n
      WR28        REGSYM    ---      WORD      time_us
      WR28        REGSYM    ---      WORD      temp

      ---         MODULE    ---      ---       zf_uart
      00FF603EH   PUBLIC    CODE     ---       uart_putchar
      00FF4138H   PUBLIC    CODE     ---       uart_init
      00000321H   PUBLIC    EDATA    ---       uart1_rx_buff
      00000385H   PUBLIC    EDATA    ---       uart1_tx_buff
      000003E9H   PUBLIC    EDATA    ---       busy
      00000400H   PUBLIC    EDATA    BYTE      ?uart_init?BYTE
      000000D0H   SFRSYM    DATA     BYTE      PSW
      000000FDH   SFRSYM    DATA     BYTE      S4CON
      000000ACH   SFRSYM    DATA     BYTE      S3CON
      0000009AH   SFRSYM    DATA     BYTE      S2CON
      000000FEH   SFRSYM    DATA     BYTE      S4BUF
      000000ADH   SFRSYM    DATA     BYTE      S3BUF
      0000009BH   SFRSYM    DATA     BYTE      S2BUF
      000000B7H   SFRSYM    DATA     BYTE      IPH
      000000DDH   SFRSYM    DATA     BYTE      T4T3M
      00000088H.6 SFRSYM    DATA     BIT       TR1
      000000D3H   SFRSYM    DATA     BYTE      T4L
      000000D5H   SFRSYM    DATA     BYTE      T3L
      000000D7H   SFRSYM    DATA     BYTE      T2L
      0000008BH   SFRSYM    DATA     BYTE      TL1
      000000D2H   SFRSYM    DATA     BYTE      T4H
      000000D4H   SFRSYM    DATA     BYTE      T3H
      000000D6H   SFRSYM    DATA     BYTE      T2H
      0000008DH   SFRSYM    DATA     BYTE      TH1
      0000008EH   SFRSYM    DATA     BYTE      AUXR
      000000AFH   SFRSYM    DATA     BYTE      IE2
      00000088H   SFRSYM    DATA     BYTE      TCON
      00000089H   SFRSYM    DATA     BYTE      TMOD
      00000098H   SFRSYM    DATA     BYTE      SCON
      00000099H   SFRSYM    DATA     BYTE      SBUF
      000000BCH   SFRSYM    DATA     BYTE      ADC_CONTR
      000000DEH   SFRSYM    DATA     BYTE      ADCCFG
      000000B8H   SFRSYM    DATA     BYTE      IP
      000000A8H.4 SFRSYM    DATA     BIT       ES
      000000A8H   SFRSYM    DATA     BYTE      IE
      000000BAH   SFRSYM    DATA     BYTE      P_SW2
      000000A2H   SFRSYM    DATA     BYTE      P_SW1
      000000F8H   SFRSYM    DATA     BYTE      P7
      000000E8H   SFRSYM    DATA     BYTE      P6
      000000C8H   SFRSYM    DATA     BYTE      P5
L251 LINKER/LOCATER V4.66.93.0                                                        07/11/2024  19:40:54  PAGE 50


      000000C0H   SFRSYM    DATA     BYTE      P4
      000000C9H   SFRSYM    DATA     BYTE      P5M1
      000000B0H   SFRSYM    DATA     BYTE      P3
      000000CAH   SFRSYM    DATA     BYTE      P5M0
      000000A0H   SFRSYM    DATA     BYTE      P2
      00000090H   SFRSYM    DATA     BYTE      P1
      00000080H   SFRSYM    DATA     BYTE      P0

      00FF4138H   BLOCK     CODE     ---       LVL=0
      WR24        REGSYM    ---      INT       uart_n
      WR28        REGSYM    ---      INT       uart_rx_pin
      WR30        REGSYM    ---      INT       uart_tx_pin
      00000406H   SYMBOL    EDATA    DWORD     baud
      WR26        REGSYM    ---      INT       tim_n
      00FF4140H   BLOCK     CODE     NEAR LAB  LVL=1
      WR6         REGSYM    ---      WORD      brt
      ---         BLOCKEND  ---      ---       LVL=1
      00FF4138H   LINE      CODE     ---       #48
      00FF4140H   LINE      CODE     ---       #49
      00FF4140H   LINE      CODE     ---       #52
      00FF4163H   LINE      CODE     ---       #55
      00FF4181H   LINE      CODE     ---       #57
      00FF4181H   LINE      CODE     ---       #59
      00FF4187H   LINE      CODE     ---       #61
      00FF418AH   LINE      CODE     ---       #62
      00FF418EH   LINE      CODE     ---       #63
      00FF4192H   LINE      CODE     ---       #64
      00FF4196H   LINE      CODE     ---       #65
      00FF4199H   LINE      CODE     ---       #66
      00FF419BH   LINE      CODE     ---       #67
      00FF41A0H   LINE      CODE     ---       #68
      00FF41A2H   LINE      CODE     ---       #69
      00FF41A8H   LINE      CODE     ---       #71
      00FF41ABH   LINE      CODE     ---       #72
      00FF41AFH   LINE      CODE     ---       #73
      00FF41B3H   LINE      CODE     ---       #74
      00FF41B6H   LINE      CODE     ---       #75
      00FF41B6H   LINE      CODE     ---       #76
      00FF41B9H   LINE      CODE     ---       #77
      00FF41C3H   LINE      CODE     ---       #79
      00FF41C7H   LINE      CODE     ---       #80
      00FF41C9H   LINE      CODE     ---       #81
      00FF41D5H   LINE      CODE     ---       #83
      00FF41D8H   LINE      CODE     ---       #84
      00FF41DAH   LINE      CODE     ---       #85
      00FF41E6H   LINE      CODE     ---       #87
      00FF41E9H   LINE      CODE     ---       #88
      00FF41EBH   LINE      CODE     ---       #89
      00FF41F7H   LINE      CODE     ---       #91
      00FF41FAH   LINE      CODE     ---       #92
      00FF41FAH   LINE      CODE     ---       #93
      00FF41FFH   LINE      CODE     ---       #94
      00FF4201H   LINE      CODE     ---       #95
      00FF4202H   LINE      CODE     ---       #98
      00FF4202H   LINE      CODE     ---       #100
      00FF4208H   LINE      CODE     ---       #102
      00FF420BH   LINE      CODE     ---       #103
      00FF420FH   LINE      CODE     ---       #104
      00FF4213H   LINE      CODE     ---       #105
      00FF4216H   LINE      CODE     ---       #106
      00FF4216H   LINE      CODE     ---       #108
      00FF4219H   LINE      CODE     ---       #109
      00FF4225H   LINE      CODE     ---       #111
      00FF4229H   LINE      CODE     ---       #112
      00FF422BH   LINE      CODE     ---       #113
L251 LINKER/LOCATER V4.66.93.0                                                        07/11/2024  19:40:54  PAGE 51


      00FF4237H   LINE      CODE     ---       #115
      00FF423AH   LINE      CODE     ---       #116
      00FF423AH   LINE      CODE     ---       #118
      00FF423DH   LINE      CODE     ---       #119
      00FF4242H   LINE      CODE     ---       #120
      00FF4243H   LINE      CODE     ---       #123
      00FF4243H   LINE      CODE     ---       #125
      00FF4249H   LINE      CODE     ---       #127
      00FF424CH   LINE      CODE     ---       #128
      00FF4250H   LINE      CODE     ---       #129
      00FF4254H   LINE      CODE     ---       #130
      00FF4257H   LINE      CODE     ---       #131
      00FF4259H   LINE      CODE     ---       #132
      00FF425FH   LINE      CODE     ---       #134
      00FF4262H   LINE      CODE     ---       #135
      00FF4266H   LINE      CODE     ---       #136
      00FF426AH   LINE      CODE     ---       #137
      00FF426DH   LINE      CODE     ---       #138
      00FF426DH   LINE      CODE     ---       #140
      00FF4270H   LINE      CODE     ---       #141
      00FF427CH   LINE      CODE     ---       #143
      00FF4280H   LINE      CODE     ---       #144
      00FF4282H   LINE      CODE     ---       #145
      00FF428EH   LINE      CODE     ---       #147
      00FF4291H   LINE      CODE     ---       #148
      00FF4291H   LINE      CODE     ---       #150
      00FF4294H   LINE      CODE     ---       #151
      00FF4299H   LINE      CODE     ---       #152
      00FF429AH   LINE      CODE     ---       #155
      00FF429AH   LINE      CODE     ---       #157
      00FF42A0H   LINE      CODE     ---       #159
      00FF42A3H   LINE      CODE     ---       #160
      00FF42A7H   LINE      CODE     ---       #161
      00FF42ABH   LINE      CODE     ---       #162
      00FF42AEH   LINE      CODE     ---       #163
      00FF42B0H   LINE      CODE     ---       #164
      00FF42B6H   LINE      CODE     ---       #166
      00FF42B9H   LINE      CODE     ---       #167
      00FF42BDH   LINE      CODE     ---       #168
      00FF42C1H   LINE      CODE     ---       #169
      00FF42C4H   LINE      CODE     ---       #170
      00FF42C4H   LINE      CODE     ---       #172
      00FF42C7H   LINE      CODE     ---       #173
      00FF42D3H   LINE      CODE     ---       #175
      00FF42D7H   LINE      CODE     ---       #176
      00FF42D9H   LINE      CODE     ---       #177
      00FF42E5H   LINE      CODE     ---       #179
      00FF42E8H   LINE      CODE     ---       #180
      00FF42EBH   LINE      CODE     ---       #181
      00FF42EEH   LINE      CODE     ---       #182
      00FF42EEH   LINE      CODE     ---       #183
      00FF42F1H   LINE      CODE     ---       #184
      00FF42F6H   LINE      CODE     ---       #185
      00FF42F6H   LINE      CODE     ---       #188
      00FF42F6H   LINE      CODE     ---       #190
      ---         BLOCKEND  ---      ---       LVL=0

      00FF603EH   BLOCK     CODE     ---       LVL=0
      WR6         REGSYM    ---      INT       uart_n
      R10         REGSYM    ---      BYTE      dat
      00FF603EH   LINE      CODE     ---       #199
      00FF6040H   LINE      CODE     ---       #201
      00FF6052H   LINE      CODE     ---       #203
      00FF6052H   LINE      CODE     ---       #204
      00FF6058H   LINE      CODE     ---       #205
L251 LINKER/LOCATER V4.66.93.0                                                        07/11/2024  19:40:54  PAGE 52


      00FF605EH   LINE      CODE     ---       #206
      00FF6061H   LINE      CODE     ---       #207
      00FF6062H   LINE      CODE     ---       #208
      00FF6062H   LINE      CODE     ---       #209
      00FF6068H   LINE      CODE     ---       #210
      00FF606EH   LINE      CODE     ---       #211
      00FF6071H   LINE      CODE     ---       #212
      00FF6072H   LINE      CODE     ---       #213
      00FF6072H   LINE      CODE     ---       #214
      00FF6078H   LINE      CODE     ---       #215
      00FF607EH   LINE      CODE     ---       #216
      00FF6081H   LINE      CODE     ---       #217
      00FF6082H   LINE      CODE     ---       #218
      00FF6082H   LINE      CODE     ---       #219
      00FF6088H   LINE      CODE     ---       #220
      00FF608EH   LINE      CODE     ---       #221
      00FF6091H   LINE      CODE     ---       #222
      00FF6091H   LINE      CODE     ---       #223
      00FF6091H   LINE      CODE     ---       #224
      ---         BLOCKEND  ---      ---       LVL=0
      REG=3       REGSYM    ---      ---       p
      REG=3       REGSYM    ---      ---       str

      ---         MODULE    ---      ---       zf_fifo
      00FF633BH   PUBLIC    CODE     ---       fifo_head_offset
      00FF4EE0H   PUBLIC    CODE     ---       fifo_write_buffer
      000003EAH   PUBLIC    EDATA    BYTE      ?fifo_write_buffer?BYTE
      000000D0H   SFRSYM    DATA     BYTE      PSW
      000000B7H   SFRSYM    DATA     BYTE      IPH
      00000088H   SFRSYM    DATA     BYTE      TCON
      00000098H   SFRSYM    DATA     BYTE      SCON
      000000BCH   SFRSYM    DATA     BYTE      ADC_CONTR
      000000DEH   SFRSYM    DATA     BYTE      ADCCFG
      000000B8H   SFRSYM    DATA     BYTE      IP
      000000A8H   SFRSYM    DATA     BYTE      IE
      000000F8H   SFRSYM    DATA     BYTE      P7
      000000E8H   SFRSYM    DATA     BYTE      P6
      000000C8H   SFRSYM    DATA     BYTE      P5
      000000C0H   SFRSYM    DATA     BYTE      P4
      000000B0H   SFRSYM    DATA     BYTE      P3
      000000A0H   SFRSYM    DATA     BYTE      P2
      00000090H   SFRSYM    DATA     BYTE      P1
      00000080H   SFRSYM    DATA     BYTE      P0
      REG=2       REGSYM    ---      ---       fifo
      REG=7       REGSYM    ---      ---       buffer_addr

      00FF633BH   BLOCK     CODE     ---       LVL=0
      REG=7       REGSYM    ---      ---       fifo
      DR24        REGSYM    ---      DWORD     offset
      00FF633BH   LINE      CODE     ---       #61
      00FF633FH   LINE      CODE     ---       #63
      00FF634AH   LINE      CODE     ---       #65
      00FF634CH   LINE      CODE     ---       #67
      00FF6368H   LINE      CODE     ---       #68
      00FF637CH   LINE      CODE     ---       #69
      ---         BLOCKEND  ---      ---       LVL=0
      REG=7       REGSYM    ---      ---       fifo
      DR24        REGSYM    ---      DWORD     offset
      REG=2       REGSYM    ---      ---       fifo
      REG=7       REGSYM    ---      ---       fifo

      00FF4EE0H   BLOCK     CODE     ---       LVL=0
      REG=3       REGSYM    ---      ---       fifo
      000003EEH   SYMBOL    EDATA    ---       dat
      000003F2H   SYMBOL    EDATA    DWORD     length
L251 LINKER/LOCATER V4.66.93.0                                                        07/11/2024  19:40:54  PAGE 53


      00FF4EE8H   BLOCK     CODE     NEAR LAB  LVL=1
      000003F6H   SYMBOL    EDATA    DWORD     temp_length
      ---         BLOCKEND  ---      ---       LVL=1
      00FF4EE0H   LINE      CODE     ---       #120
      00FF4EE8H   LINE      CODE     ---       #121
      00FF4EE8H   LINE      CODE     ---       #124
      00FF4EFBH   LINE      CODE     ---       #126
      00FF4F11H   LINE      CODE     ---       #128
      00FF4F15H   LINE      CODE     ---       #130
      00FF4F2DH   LINE      CODE     ---       #131
      00FF4F36H   LINE      CODE     ---       #132
      00FF4F46H   LINE      CODE     ---       #133
      00FF4F66H   LINE      CODE     ---       #134
      00FF4F72H   LINE      CODE     ---       #135
      00FF4F74H   LINE      CODE     ---       #138
      00FF4F90H   LINE      CODE     ---       #139
      00FF4F99H   LINE      CODE     ---       #140
      00FF4F99H   LINE      CODE     ---       #142
      00FF4FB3H   LINE      CODE     ---       #143
      00FF4FB5H   LINE      CODE     ---       #146
      00FF4FBBH   LINE      CODE     ---       #147
      00FF4FBBH   LINE      CODE     ---       #149
      00FF4FBDH   LINE      CODE     ---       #150
      ---         BLOCKEND  ---      ---       LVL=0
      REG=3       REGSYM    ---      ---       fifo

      ---         MODULE    ---      ---       SEEKFREE_18TFT
      000000D0H   SFRSYM    DATA     BYTE      PSW
      000000B7H   SFRSYM    DATA     BYTE      IPH
      000000A0H.5 SFRSYM    DATA     BIT       P25
      00000088H   SFRSYM    DATA     BYTE      TCON
      000000A0H.3 SFRSYM    DATA     BIT       P23
      00000098H   SFRSYM    DATA     BYTE      SCON
      000000A0H.2 SFRSYM    DATA     BIT       P22
      000000A0H.1 SFRSYM    DATA     BIT       P21
      000000A0H.0 SFRSYM    DATA     BIT       P20
      000000BCH   SFRSYM    DATA     BYTE      ADC_CONTR
      000000DEH   SFRSYM    DATA     BYTE      ADCCFG
      000000B8H   SFRSYM    DATA     BYTE      IP
      000000A8H   SFRSYM    DATA     BYTE      IE
      000000F8H   SFRSYM    DATA     BYTE      P7
      000000E8H   SFRSYM    DATA     BYTE      P6
      000000C8H   SFRSYM    DATA     BYTE      P5
      000000C0H   SFRSYM    DATA     BYTE      P4
      000000B0H   SFRSYM    DATA     BYTE      P3
      000000A0H   SFRSYM    DATA     BYTE      P2
      00000090H   SFRSYM    DATA     BYTE      P1
      00000080H   SFRSYM    DATA     BYTE      P0
      R7          REGSYM    ---      BYTE      dat
      R6          REGSYM    ---      BYTE      i
      R7          REGSYM    ---      BYTE      dat
      R6          REGSYM    ---      BYTE      i
      WR4         REGSYM    ---      WORD      dat
      R10         REGSYM    ---      BYTE      i
      WR12        REGSYM    ---      WORD      x_end
      WR14        REGSYM    ---      WORD      y_end
      WR14        REGSYM    ---      INT       color
      R13         REGSYM    ---      BYTE      i
      R12         REGSYM    ---      BYTE      j
      WR2         REGSYM    ---      WORD      x
      WR0         REGSYM    ---      WORD      y
      WR14        REGSYM    ---      WORD      color
      WR12        REGSYM    ---      WORD      x
      WR14        REGSYM    ---      WORD      y
      REG=3       REGSYM    ---      ---       dat
L251 LINKER/LOCATER V4.66.93.0                                                        07/11/2024  19:40:54  PAGE 54


      WR12        REGSYM    ---      WORD      x
      WR14        REGSYM    ---      WORD      y
      WR12        REGSYM    ---      WORD      x
      WR14        REGSYM    ---      WORD      y
      R10         REGSYM    ---      BYTE      dat
      WR12        REGSYM    ---      WORD      x
      WR14        REGSYM    ---      WORD      y
      WR12        REGSYM    ---      WORD      x
      WR14        REGSYM    ---      WORD      y
      WR2         REGSYM    ---      WORD      dat
      WR12        REGSYM    ---      WORD      y
      R15         REGSYM    ---      BYTE      num
      R14         REGSYM    ---      BYTE      length
      DR12        REGSYM    ---      FLOAT     dat
      R7          REGSYM    ---      CHAR      point
      R7          REGSYM    ---      BYTE      dat
      R7          REGSYM    ---      BYTE      dat
      WR4         REGSYM    ---      WORD      dat
      WR12        REGSYM    ---      WORD      x_end
      WR14        REGSYM    ---      WORD      y_end
      WR14        REGSYM    ---      INT       color
      R13         REGSYM    ---      BYTE      i
      R12         REGSYM    ---      BYTE      j
      WR2         REGSYM    ---      WORD      x
      WR0         REGSYM    ---      WORD      y
      WR14        REGSYM    ---      WORD      color
      WR12        REGSYM    ---      WORD      x
      WR14        REGSYM    ---      WORD      y
      REG=3       REGSYM    ---      ---       dat
      WR12        REGSYM    ---      WORD      x
      WR14        REGSYM    ---      WORD      y
      WR12        REGSYM    ---      WORD      x
      WR14        REGSYM    ---      WORD      y
      R10         REGSYM    ---      BYTE      dat
      WR12        REGSYM    ---      WORD      x
      WR14        REGSYM    ---      WORD      y
      WR12        REGSYM    ---      WORD      x
      WR14        REGSYM    ---      WORD      y
      WR2         REGSYM    ---      WORD      dat
      WR12        REGSYM    ---      WORD      y
      R15         REGSYM    ---      BYTE      num
      R14         REGSYM    ---      BYTE      length
      DR12        REGSYM    ---      FLOAT     dat
      R7          REGSYM    ---      CHAR      point
      REG=3       REGSYM    ---      ---       p

      ---         MODULE    ---      ---       SEEKFREE_ABSOLUTE_ENCODER
      000000D0H   SFRSYM    DATA     BYTE      PSW
      000000B7H   SFRSYM    DATA     BYTE      IPH
      000000A0H.7 SFRSYM    DATA     BIT       P27
      000000A0H.6 SFRSYM    DATA     BIT       P26
      000000A0H.5 SFRSYM    DATA     BIT       P25
      000000A0H.4 SFRSYM    DATA     BIT       P24
      00000088H   SFRSYM    DATA     BYTE      TCON
      00000098H   SFRSYM    DATA     BYTE      SCON
      000000A0H.2 SFRSYM    DATA     BIT       P22
      000000BCH   SFRSYM    DATA     BYTE      ADC_CONTR
      000000DEH   SFRSYM    DATA     BYTE      ADCCFG
      000000B8H   SFRSYM    DATA     BYTE      IP
      000000A8H   SFRSYM    DATA     BYTE      IE
      000000F8H   SFRSYM    DATA     BYTE      P7
      000000E8H   SFRSYM    DATA     BYTE      P6
      000000C8H   SFRSYM    DATA     BYTE      P5
      000000C0H   SFRSYM    DATA     BYTE      P4
      000000B0H   SFRSYM    DATA     BYTE      P3
L251 LINKER/LOCATER V4.66.93.0                                                        07/11/2024  19:40:54  PAGE 55


      000000A0H   SFRSYM    DATA     BYTE      P2
      00000090H   SFRSYM    DATA     BYTE      P1
      00000080H   SFRSYM    DATA     BYTE      P0
      WR6         REGSYM    ---      WORD      x
      R6          REGSYM    ---      BYTE      byte
      R7          REGSYM    ---      BYTE      i
      R7          REGSYM    ---      BYTE      cmd
      R15         REGSYM    ---      BYTE      val
      R7          REGSYM    ---      BYTE      cmd
      REG=3       REGSYM    ---      ---       val
      R7          REGSYM    ---      BYTE      cmd
      R15         REGSYM    ---      BYTE      val
      R14         REGSYM    ---      BYTE      dat
      R7          REGSYM    ---      BYTE      cmd
      REG=3       REGSYM    ---      ---       val
      WR14        REGSYM    ---      WORD      zero_position
      WR14        REGSYM    ---      WORD      angle
      R10         REGSYM    ---      BYTE      byte
      R7          REGSYM    ---      BYTE      cmd
      R15         REGSYM    ---      BYTE      val
      R7          REGSYM    ---      BYTE      cmd
      REG=3       REGSYM    ---      ---       val
      R7          REGSYM    ---      BYTE      cmd
      R15         REGSYM    ---      BYTE      val
      R14         REGSYM    ---      BYTE      dat
      R7          REGSYM    ---      BYTE      cmd
      REG=3       REGSYM    ---      ---       val
      WR14        REGSYM    ---      WORD      zero_position
      WR14        REGSYM    ---      WORD      angle

      ---         MODULE    ---      ---       SEEKFREE_FONT
      00FF00A6H   PUBLIC    CODE     ---       oled_8x16
      00FF0696H   PUBLIC    CODE     ---       tft_ascii
      00FF0C86H   PUBLIC    CODE     ---       oled_6x8
      000000D0H   SFRSYM    DATA     BYTE      PSW
      000000B7H   SFRSYM    DATA     BYTE      IPH
      00000088H   SFRSYM    DATA     BYTE      TCON
      00000098H   SFRSYM    DATA     BYTE      SCON
      000000BCH   SFRSYM    DATA     BYTE      ADC_CONTR
      000000DEH   SFRSYM    DATA     BYTE      ADCCFG
      000000B8H   SFRSYM    DATA     BYTE      IP
      000000A8H   SFRSYM    DATA     BYTE      IE
      000000F8H   SFRSYM    DATA     BYTE      P7
      000000E8H   SFRSYM    DATA     BYTE      P6
      000000C8H   SFRSYM    DATA     BYTE      P5
      000000C0H   SFRSYM    DATA     BYTE      P4
      000000B0H   SFRSYM    DATA     BYTE      P3
      000000A0H   SFRSYM    DATA     BYTE      P2
      00000090H   SFRSYM    DATA     BYTE      P1
      00000080H   SFRSYM    DATA     BYTE      P0

      ---         MODULE    ---      ---       SEEKFREE_IIC
      0000074BH   PUBLIC    EDATA    BYTE      IIC_ad_main
      0000074CH   PUBLIC    EDATA    BYTE      IIC_num
      0000074DH   PUBLIC    EDATA    BYTE      IIC_ad_sub
      0000074EH   PUBLIC    EDATA    ---       IIC_buf
      000000D0H   SFRSYM    DATA     BYTE      PSW
      000000B7H   SFRSYM    DATA     BYTE      IPH
      00000088H   SFRSYM    DATA     BYTE      TCON
      000000C0H.1 SFRSYM    DATA     BIT       P41
      00000098H   SFRSYM    DATA     BYTE      SCON
      000000C0H.0 SFRSYM    DATA     BIT       P40
      000000BCH   SFRSYM    DATA     BYTE      ADC_CONTR
      000000DEH   SFRSYM    DATA     BYTE      ADCCFG
      000000B8H   SFRSYM    DATA     BYTE      IP
L251 LINKER/LOCATER V4.66.93.0                                                        07/11/2024  19:40:54  PAGE 56


      000000A8H   SFRSYM    DATA     BYTE      IE
      000000F8H   SFRSYM    DATA     BYTE      P7
      000000E8H   SFRSYM    DATA     BYTE      P6
      000000C8H   SFRSYM    DATA     BYTE      P5
      000000C0H   SFRSYM    DATA     BYTE      P4
      000000B0H   SFRSYM    DATA     BYTE      P3
      000000A0H   SFRSYM    DATA     BYTE      P2
      00000090H   SFRSYM    DATA     BYTE      P1
      00000080H   SFRSYM    DATA     BYTE      P0
      WR6         REGSYM    ---      WORD      j
      R15         REGSYM    ---      BYTE      ack_dat
      R15         REGSYM    ---      BYTE      c
      R14         REGSYM    ---      BYTE      i
      R15         REGSYM    ---      BYTE      ack_x
      R13         REGSYM    ---      BYTE      i
      R14         REGSYM    ---      BYTE      c
      R13         REGSYM    ---      BYTE      dev_add
      R14         REGSYM    ---      BYTE      reg
      R15         REGSYM    ---      BYTE      dat
      R15         REGSYM    ---      BYTE      dev_add
      R14         REGSYM    ---      BYTE      reg
      WR12        REGSYM    ---      INT       type
      R15         REGSYM    ---      BYTE      dat
      REG=3       REGSYM    ---      ---       dat_add

      ---         MODULE    ---      ---       SEEKFREE_MPU6050
      00000729H   PUBLIC    EDATA    INT       mpu_acc_x
      0000072BH   PUBLIC    EDATA    INT       mpu_acc_y
      0000072DH   PUBLIC    EDATA    INT       mpu_acc_z
      0000072FH   PUBLIC    EDATA    INT       mpu_gyro_x
      00000731H   PUBLIC    EDATA    INT       mpu_gyro_y
      00000733H   PUBLIC    EDATA    INT       mpu_gyro_z
      000000D0H   SFRSYM    DATA     BYTE      PSW
      000000B7H   SFRSYM    DATA     BYTE      IPH
      00000088H   SFRSYM    DATA     BYTE      TCON
      00000098H   SFRSYM    DATA     BYTE      SCON
      000000BCH   SFRSYM    DATA     BYTE      ADC_CONTR
      000000DEH   SFRSYM    DATA     BYTE      ADCCFG
      000000B8H   SFRSYM    DATA     BYTE      IP
      000000A8H   SFRSYM    DATA     BYTE      IE
      000000F8H   SFRSYM    DATA     BYTE      P7
      000000E8H   SFRSYM    DATA     BYTE      P6
      000000C8H   SFRSYM    DATA     BYTE      P5
      000000C0H   SFRSYM    DATA     BYTE      P4
      000000B0H   SFRSYM    DATA     BYTE      P3
      000000A0H   SFRSYM    DATA     BYTE      P2
      00000090H   SFRSYM    DATA     BYTE      P1
      00000080H   SFRSYM    DATA     BYTE      P0

      ---         MODULE    ---      ---       SEEKFREE_OLED
      00FF6906H   PUBLIC    CODE     ---       oled_set_pos
      00FF4B2CH   PUBLIC    CODE     ---       oled_printf_float
      00FF681BH   PUBLIC    CODE     ---       oled_wrcmd
      00FF6844H   PUBLIC    CODE     ---       oled_wrdat
      00FF6648H   PUBLIC    CODE     ---       oled_fill
      00FF54EFH   PUBLIC    CODE     ---       oled_init
      00FF4D14H   PUBLIC    CODE     ---       oled_p8x16str
      00000402H   PUBLIC    EDATA    BYTE      ?oled_printf_float?BYTE
      000000D0H   SFRSYM    DATA     BYTE      PSW
      000000B7H   SFRSYM    DATA     BYTE      IPH
      000000A0H.5 SFRSYM    DATA     BIT       P25
      00000088H   SFRSYM    DATA     BYTE      TCON
      000000A0H.3 SFRSYM    DATA     BIT       P23
      00000098H   SFRSYM    DATA     BYTE      SCON
      000000A0H.2 SFRSYM    DATA     BIT       P22
L251 LINKER/LOCATER V4.66.93.0                                                        07/11/2024  19:40:54  PAGE 57


      000000A0H.1 SFRSYM    DATA     BIT       P21
      000000A0H.0 SFRSYM    DATA     BIT       P20
      000000BCH   SFRSYM    DATA     BYTE      ADC_CONTR
      000000DEH   SFRSYM    DATA     BYTE      ADCCFG
      000000B8H   SFRSYM    DATA     BYTE      IP
      000000A8H   SFRSYM    DATA     BYTE      IE
      000000F8H   SFRSYM    DATA     BYTE      P7
      000000E8H   SFRSYM    DATA     BYTE      P6
      000000C8H   SFRSYM    DATA     BYTE      P5
      000000C0H   SFRSYM    DATA     BYTE      P4
      000000B0H   SFRSYM    DATA     BYTE      P3
      000000A0H   SFRSYM    DATA     BYTE      P2
      00000090H   SFRSYM    DATA     BYTE      P1
      00000080H   SFRSYM    DATA     BYTE      P0

      00FF6844H   BLOCK     CODE     ---       LVL=0
      R7          REGSYM    ---      BYTE      dat
      00FF6846H   BLOCK     CODE     NEAR LAB  LVL=1
      R6          REGSYM    ---      BYTE      i
      ---         BLOCKEND  ---      ---       LVL=1
      00FF6844H   LINE      CODE     ---       #47
      00FF6846H   LINE      CODE     ---       #48
      00FF6846H   LINE      CODE     ---       #49
      00FF6849H   LINE      CODE     ---       #51
      00FF684BH   LINE      CODE     ---       #52
      00FF684DH   LINE      CODE     ---       #53
      00FF684FH   LINE      CODE     ---       #54
      00FF6851H   LINE      CODE     ---       #56
      00FF685AH   LINE      CODE     ---       #57
      00FF685CH   LINE      CODE     ---       #58
      00FF685EH   LINE      CODE     ---       #60
      00FF6860H   LINE      CODE     ---       #61
      00FF6862H   LINE      CODE     ---       #62
      00FF686AH   LINE      CODE     ---       #63
      00FF686CH   LINE      CODE     ---       #64
      ---         BLOCKEND  ---      ---       LVL=0

      00FF681BH   BLOCK     CODE     ---       LVL=0
      R7          REGSYM    ---      BYTE      cmd
      00FF681DH   BLOCK     CODE     NEAR LAB  LVL=1
      R6          REGSYM    ---      BYTE      i
      ---         BLOCKEND  ---      ---       LVL=1
      00FF681BH   LINE      CODE     ---       #98
      00FF681DH   LINE      CODE     ---       #99
      00FF681DH   LINE      CODE     ---       #100
      00FF6820H   LINE      CODE     ---       #102
      00FF6822H   LINE      CODE     ---       #103
      00FF6824H   LINE      CODE     ---       #104
      00FF6826H   LINE      CODE     ---       #106
      00FF6828H   LINE      CODE     ---       #108
      00FF6831H   LINE      CODE     ---       #109
      00FF6833H   LINE      CODE     ---       #110
      00FF6835H   LINE      CODE     ---       #112
      00FF6837H   LINE      CODE     ---       #113
      00FF6839H   LINE      CODE     ---       #114
      00FF6841H   LINE      CODE     ---       #115
      00FF6843H   LINE      CODE     ---       #116
      ---         BLOCKEND  ---      ---       LVL=0
      WR8         REGSYM    ---      WORD      hex
      REG=7       REGSYM    ---      ---       Print
      R5          REGSYM    ---      BYTE      hexcheck
      R10         REGSYM    ---      BYTE      TEMP

      00FF54EFH   BLOCK     CODE     ---       LVL=0
      00FF54EFH   LINE      CODE     ---       #148
L251 LINKER/LOCATER V4.66.93.0                                                        07/11/2024  19:40:54  PAGE 58


      00FF54EFH   LINE      CODE     ---       #151
      00FF54F1H   LINE      CODE     ---       #152
      00FF54F3H   LINE      CODE     ---       #154
      00FF54F5H   LINE      CODE     ---       #155
      00FF54FCH   LINE      CODE     ---       #156
      00FF54FEH   LINE      CODE     ---       #158
      00FF5503H   LINE      CODE     ---       #159
      00FF5507H   LINE      CODE     ---       #160
      00FF550CH   LINE      CODE     ---       #161
      00FF5511H   LINE      CODE     ---       #162
      00FF5516H   LINE      CODE     ---       #163
      00FF551BH   LINE      CODE     ---       #166
      00FF5520H   LINE      CODE     ---       #167
      00FF5525H   LINE      CODE     ---       #173
      00FF552AH   LINE      CODE     ---       #174
      00FF552FH   LINE      CODE     ---       #175
      00FF5534H   LINE      CODE     ---       #176
      00FF5539H   LINE      CODE     ---       #177
      00FF553DH   LINE      CODE     ---       #178
      00FF5542H   LINE      CODE     ---       #179
      00FF5547H   LINE      CODE     ---       #180
      00FF554CH   LINE      CODE     ---       #181
      00FF5551H   LINE      CODE     ---       #182
      00FF5556H   LINE      CODE     ---       #183
      00FF555BH   LINE      CODE     ---       #184
      00FF5560H   LINE      CODE     ---       #185
      00FF5565H   LINE      CODE     ---       #186
      00FF556AH   LINE      CODE     ---       #187
      00FF556FH   LINE      CODE     ---       #188
      00FF5574H   LINE      CODE     ---       #189
      00FF5579H   LINE      CODE     ---       #190
      00FF557EH   LINE      CODE     ---       #191
      00FF5583H   LINE      CODE     ---       #192
      00FF5588H   LINE      CODE     ---       #193
      00FF558CH   LINE      CODE     ---       #194
      ---         BLOCKEND  ---      ---       LVL=0

      00FF6906H   BLOCK     CODE     ---       LVL=0
      R15         REGSYM    ---      BYTE      x
      R10         REGSYM    ---      BYTE      y
      00FF6906H   LINE      CODE     ---       #205
      00FF690AH   LINE      CODE     ---       #207
      00FF6911H   LINE      CODE     ---       #208
      00FF691FH   LINE      CODE     ---       #209
      00FF6926H   LINE      CODE     ---       #210
      ---         BLOCKEND  ---      ---       LVL=0

      00FF6648H   BLOCK     CODE     ---       LVL=0
      R15         REGSYM    ---      BYTE      bmp_data
      00FF664EH   BLOCK     CODE     NEAR LAB  LVL=1
      R14         REGSYM    ---      BYTE      y
      R13         REGSYM    ---      BYTE      x
      ---         BLOCKEND  ---      ---       LVL=1
      00FF6648H   LINE      CODE     ---       #219
      00FF664EH   LINE      CODE     ---       #220
      00FF664EH   LINE      CODE     ---       #223
      00FF6650H   LINE      CODE     ---       #225
      00FF6657H   LINE      CODE     ---       #226
      00FF665CH   LINE      CODE     ---       #227
      00FF6661H   LINE      CODE     ---       #228
      00FF666FH   LINE      CODE     ---       #229
      00FF6676H   LINE      CODE     ---       #230
      ---         BLOCKEND  ---      ---       LVL=0
      R15         REGSYM    ---      BYTE      x
      R14         REGSYM    ---      BYTE      y
L251 LINKER/LOCATER V4.66.93.0                                                        07/11/2024  19:40:54  PAGE 59


      R13         REGSYM    ---      BYTE      data1
      R15         REGSYM    ---      BYTE      x
      R14         REGSYM    ---      BYTE      y
      REG=3       REGSYM    ---      ---       ch

      00FF4D14H   BLOCK     CODE     ---       LVL=0
      00000431H   SYMBOL    EDATA    BYTE      x
      00000432H   SYMBOL    EDATA    BYTE      y
      REG=3       REGSYM    ---      ---       ch
      00FF4D20H   BLOCK     CODE     NEAR LAB  LVL=1
      00000433H   SYMBOL    EDATA    BYTE      c
      00000434H   SYMBOL    EDATA    BYTE      i
      00000435H   SYMBOL    EDATA    BYTE      j
      ---         BLOCKEND  ---      ---       LVL=1
      00FF4D14H   LINE      CODE     ---       #302
      00FF4D20H   LINE      CODE     ---       #303
      00FF4D20H   LINE      CODE     ---       #304
      00FF4D29H   LINE      CODE     ---       #306
      00FF4D2CH   LINE      CODE     ---       #308
      00FF4D43H   LINE      CODE     ---       #309
      00FF4D5AH   LINE      CODE     ---       #311
      00FF4D65H   LINE      CODE     ---       #312
      00FF4D96H   LINE      CODE     ---       #314
      00FF4DA3H   LINE      CODE     ---       #315
      00FF4DD4H   LINE      CODE     ---       #317
      00FF4DDEH   LINE      CODE     ---       #318
      00FF4DE7H   LINE      CODE     ---       #319
      00FF4DF9H   LINE      CODE     ---       #320
      ---         BLOCKEND  ---      ---       LVL=0
      R14         REGSYM    ---      BYTE      x
      R15         REGSYM    ---      BYTE      y
      WR4         REGSYM    ---      WORD      num
      R15         REGSYM    ---      BYTE      x
      R14         REGSYM    ---      BYTE      y
      WR12        REGSYM    ---      INT       num
      WR12        REGSYM    ---      WORD      y
      R15         REGSYM    ---      BYTE      num
      R14         REGSYM    ---      BYTE      length

      00FF4B2CH   BLOCK     CODE     ---       LVL=0
      00000406H   SYMBOL    EDATA    WORD      x
      00000408H   SYMBOL    EDATA    WORD      y
      DR12        REGSYM    ---      FLOAT     dat
      0000040AH   SYMBOL    EDATA    BYTE      num
      0000040BH   SYMBOL    EDATA    BYTE      pointnum
      00FF4B3CH   BLOCK     CODE     NEAR LAB  LVL=1
      0000040CH   SYMBOL    EDATA    BYTE      length
      0000040DH   SYMBOL    EDATA    ---       buff
      0000042FH   SYMBOL    EDATA    CHAR      start
      00000430H   SYMBOL    EDATA    CHAR      end
      R7          REGSYM    ---      CHAR      point
      ---         BLOCKEND  ---      ---       LVL=1
      00FF4B2CH   LINE      CODE     ---       #412
      00FF4B3CH   LINE      CODE     ---       #413
      00FF4B3CH   LINE      CODE     ---       #418
      00FF4B4BH   LINE      CODE     ---       #419
      00FF4B5AH   LINE      CODE     ---       #421
      00FF4B7CH   LINE      CODE     ---       #424
      00FF4B95H   LINE      CODE     ---       #425
      00FF4B9AH   LINE      CODE     ---       #426
      00FF4B9AH   LINE      CODE     ---       #427
      00FF4BA4H   LINE      CODE     ---       #428
      00FF4BB4H   LINE      CODE     ---       #429
      00FF4BC4H   LINE      CODE     ---       #430
      00FF4BC9H   LINE      CODE     ---       #432
L251 LINKER/LOCATER V4.66.93.0                                                        07/11/2024  19:40:54  PAGE 60


      00FF4BD3H   LINE      CODE     ---       #433
      00FF4BDCH   LINE      CODE     ---       #434
      00FF4BE5H   LINE      CODE     ---       #435
      00FF4BEEH   LINE      CODE     ---       #437
      00FF4BFBH   LINE      CODE     ---       #438
      00FF4C07H   LINE      CODE     ---       #440
      00FF4C12H   LINE      CODE     ---       #442
      00FF4C21H   LINE      CODE     ---       #443
      ---         BLOCKEND  ---      ---       LVL=0
      WR4         REGSYM    ---      WORD      high
      REG=3       REGSYM    ---      ---       p
      REG=3       REGSYM    ---      ---       p
      R7          REGSYM    ---      BYTE      dat
      R7          REGSYM    ---      BYTE      cmd
      WR8         REGSYM    ---      WORD      hex
      REG=7       REGSYM    ---      ---       Print
      R5          REGSYM    ---      BYTE      hexcheck
      R10         REGSYM    ---      BYTE      TEMP
      R15         REGSYM    ---      BYTE      x
      R10         REGSYM    ---      BYTE      y
      R15         REGSYM    ---      BYTE      bmp_data
      R14         REGSYM    ---      BYTE      y
      R13         REGSYM    ---      BYTE      x
      R15         REGSYM    ---      BYTE      x
      R14         REGSYM    ---      BYTE      y
      R13         REGSYM    ---      BYTE      data1
      R15         REGSYM    ---      BYTE      x
      R14         REGSYM    ---      BYTE      y
      REG=3       REGSYM    ---      ---       ch
      REG=3       REGSYM    ---      ---       ch
      R14         REGSYM    ---      BYTE      x
      R15         REGSYM    ---      BYTE      y
      WR4         REGSYM    ---      WORD      num
      R15         REGSYM    ---      BYTE      x
      R14         REGSYM    ---      BYTE      y
      WR12        REGSYM    ---      INT       num
      WR12        REGSYM    ---      WORD      y
      R15         REGSYM    ---      BYTE      num
      R14         REGSYM    ---      BYTE      length
      DR12        REGSYM    ---      FLOAT     dat
      R7          REGSYM    ---      CHAR      point
      WR4         REGSYM    ---      WORD      high
      REG=3       REGSYM    ---      ---       p
      REG=3       REGSYM    ---      ---       p

      ---         MODULE    ---      ---       SEEKFREE_AT24C02
      000000D0H   SFRSYM    DATA     BYTE      PSW
      000000B7H   SFRSYM    DATA     BYTE      IPH
      00000088H   SFRSYM    DATA     BYTE      TCON
      00000098H   SFRSYM    DATA     BYTE      SCON
      000000BCH   SFRSYM    DATA     BYTE      ADC_CONTR
      000000DEH   SFRSYM    DATA     BYTE      ADCCFG
      000000B8H   SFRSYM    DATA     BYTE      IP
      000000A8H   SFRSYM    DATA     BYTE      IE
      000000F8H   SFRSYM    DATA     BYTE      P7
      000000E8H   SFRSYM    DATA     BYTE      P6
      000000C8H   SFRSYM    DATA     BYTE      P5
      000000C0H   SFRSYM    DATA     BYTE      P4
      000000B0H   SFRSYM    DATA     BYTE      P3
      000000A0H   SFRSYM    DATA     BYTE      P2
      00000090H   SFRSYM    DATA     BYTE      P1
      00000080H   SFRSYM    DATA     BYTE      P0
      R14         REGSYM    ---      BYTE      byte_reg
      R15         REGSYM    ---      BYTE      dat
      R15         REGSYM    ---      BYTE      byte_reg
L251 LINKER/LOCATER V4.66.93.0                                                        07/11/2024  19:40:54  PAGE 61


      REG=3       REGSYM    ---      ---       dat_add
      REG=3       REGSYM    ---      ---       dat_add

      ---         MODULE    ---      ---       SEEKFREE_BLUETOOTH_CH9141
      00FF6A04H   PUBLIC    CODE     ---       bluetooth_ch9141_uart_callback
      000000D0H   SFRSYM    DATA     BYTE      PSW
      000000FEH   SFRSYM    DATA     BYTE      S4BUF
      000000B7H   SFRSYM    DATA     BYTE      IPH
      00000080H.7 SFRSYM    DATA     BIT       P07
      00000088H   SFRSYM    DATA     BYTE      TCON
      00000098H   SFRSYM    DATA     BYTE      SCON
      000000BCH   SFRSYM    DATA     BYTE      ADC_CONTR
      000000DEH   SFRSYM    DATA     BYTE      ADCCFG
      000000B8H   SFRSYM    DATA     BYTE      IP
      000000A8H   SFRSYM    DATA     BYTE      IE
      000000F8H   SFRSYM    DATA     BYTE      P7
      000000E8H   SFRSYM    DATA     BYTE      P6
      000000C8H   SFRSYM    DATA     BYTE      P5
      000000C0H   SFRSYM    DATA     BYTE      P4
      000000B0H   SFRSYM    DATA     BYTE      P3
      000000A0H   SFRSYM    DATA     BYTE      P2
      00000090H   SFRSYM    DATA     BYTE      P1
      00000080H   SFRSYM    DATA     BYTE      P0
      0000055EH   SYMBOL    EDATA    ---       bluetooth_ch9141_buffer
      0000059EH   SYMBOL    EDATA    BYTE      bluetooth_ch9141_data
      0000059FH   SYMBOL    EDATA    ---       bluetooth_ch9141_fifo

      00FF6A04H   BLOCK     CODE     ---       LVL=0
      00FF6A04H   LINE      CODE     ---       #67
      00FF6A04H   LINE      CODE     ---       #70
      00FF6A0AH   LINE      CODE     ---       #71
      ---         BLOCKEND  ---      ---       LVL=0
      DR12        REGSYM    ---      DWORD     len
      REG=7       REGSYM    ---      ---       buff
      DR8         REGSYM    ---      DWORD     len

      ---         MODULE    ---      ---       SEEKFREE_ICM20602
      00000735H   PUBLIC    EDATA    INT       icm_acc_x
      00000737H   PUBLIC    EDATA    INT       icm_acc_y
      00000739H   PUBLIC    EDATA    INT       icm_acc_z
      0000073BH   PUBLIC    EDATA    INT       icm_gyro_x
      0000073DH   PUBLIC    EDATA    INT       icm_gyro_y
      0000073FH   PUBLIC    EDATA    INT       icm_gyro_z
      000000D0H   SFRSYM    DATA     BYTE      PSW
      000000B7H   SFRSYM    DATA     BYTE      IPH
      000000C0H.3 SFRSYM    DATA     BIT       P43
      000000C0H.2 SFRSYM    DATA     BIT       P42
      00000088H   SFRSYM    DATA     BYTE      TCON
      000000C0H.1 SFRSYM    DATA     BIT       P41
      00000098H   SFRSYM    DATA     BYTE      SCON
      000000C0H.0 SFRSYM    DATA     BIT       P40
      000000BCH   SFRSYM    DATA     BYTE      ADC_CONTR
      000000DEH   SFRSYM    DATA     BYTE      ADCCFG
      000000B8H   SFRSYM    DATA     BYTE      IP
      000000A8H   SFRSYM    DATA     BYTE      IE
      000000F8H   SFRSYM    DATA     BYTE      P7
      000000E8H   SFRSYM    DATA     BYTE      P6
      000000C8H   SFRSYM    DATA     BYTE      P5
      000000C0H   SFRSYM    DATA     BYTE      P4
      000000B0H   SFRSYM    DATA     BYTE      P3
      000000A0H   SFRSYM    DATA     BYTE      P2
      00000090H   SFRSYM    DATA     BYTE      P1
      00000080H   SFRSYM    DATA     BYTE      P0
      R15         REGSYM    ---      BYTE      dat
      R6          REGSYM    ---      BYTE      byte
L251 LINKER/LOCATER V4.66.93.0                                                        07/11/2024  19:40:54  PAGE 62


      R7          REGSYM    ---      BYTE      i
      R7          REGSYM    ---      BYTE      cmd
      R15         REGSYM    ---      BYTE      val
      R7          REGSYM    ---      BYTE      cmd
      REG=3       REGSYM    ---      ---       val
      R7          REGSYM    ---      BYTE      cmd
      REG=3       REGSYM    ---      ---       val

      ---         MODULE    ---      ---       SEEKFREE_IPS114_SPI
      000000D0H   SFRSYM    DATA     BYTE      PSW
      000000B7H   SFRSYM    DATA     BYTE      IPH
      000000A0H.7 SFRSYM    DATA     BIT       P27
      000000A0H.5 SFRSYM    DATA     BIT       P25
      00000088H   SFRSYM    DATA     BYTE      TCON
      000000A0H.3 SFRSYM    DATA     BIT       P23
      00000098H   SFRSYM    DATA     BYTE      SCON
      000000A0H.2 SFRSYM    DATA     BIT       P22
      000000A0H.1 SFRSYM    DATA     BIT       P21
      000000A0H.0 SFRSYM    DATA     BIT       P20
      000000BCH   SFRSYM    DATA     BYTE      ADC_CONTR
      000000DEH   SFRSYM    DATA     BYTE      ADCCFG
      000000B8H   SFRSYM    DATA     BYTE      IP
      000000A8H   SFRSYM    DATA     BYTE      IE
      000000F8H   SFRSYM    DATA     BYTE      P7
      000000E8H   SFRSYM    DATA     BYTE      P6
      000000C8H   SFRSYM    DATA     BYTE      P5
      000000C0H   SFRSYM    DATA     BYTE      P4
      000000B0H   SFRSYM    DATA     BYTE      P3
      000000A0H   SFRSYM    DATA     BYTE      P2
      00000090H   SFRSYM    DATA     BYTE      P1
      00000080H   SFRSYM    DATA     BYTE      P0
      R7          REGSYM    ---      BYTE      dat
      R6          REGSYM    ---      BYTE      i
      R7          REGSYM    ---      BYTE      dat
      R6          REGSYM    ---      BYTE      i
      WR4         REGSYM    ---      WORD      dat
      R10         REGSYM    ---      BYTE      i
      WR12        REGSYM    ---      WORD      x2
      WR14        REGSYM    ---      WORD      y2
      WR14        REGSYM    ---      WORD      color
      R13         REGSYM    ---      BYTE      i
      WR2         REGSYM    ---      WORD      x
      WR0         REGSYM    ---      WORD      y
      WR14        REGSYM    ---      WORD      color
      WR12        REGSYM    ---      WORD      x
      WR14        REGSYM    ---      WORD      y
      REG=3       REGSYM    ---      ---       dat
      WR12        REGSYM    ---      WORD      x
      WR14        REGSYM    ---      WORD      y
      WR12        REGSYM    ---      WORD      x
      WR14        REGSYM    ---      WORD      y
      R10         REGSYM    ---      BYTE      dat
      WR12        REGSYM    ---      WORD      x
      WR14        REGSYM    ---      WORD      y
      WR12        REGSYM    ---      WORD      x
      WR14        REGSYM    ---      WORD      y
      WR2         REGSYM    ---      WORD      dat
      WR12        REGSYM    ---      WORD      y
      R15         REGSYM    ---      BYTE      num
      R14         REGSYM    ---      BYTE      length
      DR12        REGSYM    ---      FLOAT     dat
      R7          REGSYM    ---      CHAR      point
      R7          REGSYM    ---      BYTE      dat
      R7          REGSYM    ---      BYTE      dat
      WR4         REGSYM    ---      WORD      dat
L251 LINKER/LOCATER V4.66.93.0                                                        07/11/2024  19:40:54  PAGE 63


      WR12        REGSYM    ---      WORD      x2
      WR14        REGSYM    ---      WORD      y2
      WR14        REGSYM    ---      WORD      color
      R13         REGSYM    ---      BYTE      i
      WR2         REGSYM    ---      WORD      x
      WR0         REGSYM    ---      WORD      y
      WR14        REGSYM    ---      WORD      color
      WR12        REGSYM    ---      WORD      x
      WR14        REGSYM    ---      WORD      y
      REG=3       REGSYM    ---      ---       dat
      WR12        REGSYM    ---      WORD      x
      WR14        REGSYM    ---      WORD      y
      WR12        REGSYM    ---      WORD      x
      WR14        REGSYM    ---      WORD      y
      R10         REGSYM    ---      BYTE      dat
      WR12        REGSYM    ---      WORD      x
      WR14        REGSYM    ---      WORD      y
      WR12        REGSYM    ---      WORD      x
      WR14        REGSYM    ---      WORD      y
      WR2         REGSYM    ---      WORD      dat
      WR12        REGSYM    ---      WORD      y
      R15         REGSYM    ---      BYTE      num
      R14         REGSYM    ---      BYTE      length
      DR12        REGSYM    ---      FLOAT     dat
      R7          REGSYM    ---      CHAR      point

      ---         MODULE    ---      ---       SEEKFREE_TSL1401
      0000013DH   PUBLIC    EDATA    BYTE      tsl1401_finish_flag
      0000013EH   PUBLIC    EDATA    ---       ccd_data
      000000D0H   SFRSYM    DATA     BYTE      PSW
      000000B7H   SFRSYM    DATA     BYTE      IPH
      000000B0H.3 SFRSYM    DATA     BIT       P33
      00000088H   SFRSYM    DATA     BYTE      TCON
      000000B0H.2 SFRSYM    DATA     BIT       P32
      00000098H   SFRSYM    DATA     BYTE      SCON
      000000BCH   SFRSYM    DATA     BYTE      ADC_CONTR
      000000DEH   SFRSYM    DATA     BYTE      ADCCFG
      000000B8H   SFRSYM    DATA     BYTE      IP
      000000A8H   SFRSYM    DATA     BYTE      IE
      000000F8H   SFRSYM    DATA     BYTE      P7
      000000E8H   SFRSYM    DATA     BYTE      P6
      000000C8H   SFRSYM    DATA     BYTE      P5
      000000C0H   SFRSYM    DATA     BYTE      P4
      000000B0H   SFRSYM    DATA     BYTE      P3
      000000A0H   SFRSYM    DATA     BYTE      P2
      00000090H   SFRSYM    DATA     BYTE      P1
      00000080H   SFRSYM    DATA     BYTE      P0
      REG=3       REGSYM    ---      ---       dat
      R15         REGSYM    ---      BYTE      i

      ---         MODULE    ---      ---       SEEKFREE_VIRSCO
      00000741H   PUBLIC    EDATA    ---       virtual_scope_data
      000000D0H   SFRSYM    DATA     BYTE      PSW
      000000B7H   SFRSYM    DATA     BYTE      IPH
      00000088H   SFRSYM    DATA     BYTE      TCON
      00000098H   SFRSYM    DATA     BYTE      SCON
      000000BCH   SFRSYM    DATA     BYTE      ADC_CONTR
      000000DEH   SFRSYM    DATA     BYTE      ADCCFG
      000000B8H   SFRSYM    DATA     BYTE      IP
      000000A8H   SFRSYM    DATA     BYTE      IE
      000000F8H   SFRSYM    DATA     BYTE      P7
      000000E8H   SFRSYM    DATA     BYTE      P6
      000000C8H   SFRSYM    DATA     BYTE      P5
      000000C0H   SFRSYM    DATA     BYTE      P4
      000000B0H   SFRSYM    DATA     BYTE      P3
L251 LINKER/LOCATER V4.66.93.0                                                        07/11/2024  19:40:54  PAGE 64


      000000A0H   SFRSYM    DATA     BYTE      P2
      00000090H   SFRSYM    DATA     BYTE      P1
      00000080H   SFRSYM    DATA     BYTE      P0
      REG=7       REGSYM    ---      ---       Buf
      R10         REGSYM    ---      BYTE      CRC_CNT
      WR6         REGSYM    ---      WORD      CRC_Temp
      R5          REGSYM    ---      BYTE      i
      R4          REGSYM    ---      BYTE      j
      WR0         REGSYM    ---      INT       data1
      WR30        REGSYM    ---      INT       data2
      WR8         REGSYM    ---      INT       data3
      WR10        REGSYM    ---      INT       data4
      WR6         REGSYM    ---      WORD      CRC16

      ---         MODULE    ---      ---       SEEKFREE_WIRELESS
      00FF6A1DH   PUBLIC    CODE     ---       wireless_uart_callback
      000000D0H   SFRSYM    DATA     BYTE      PSW
      000000FEH   SFRSYM    DATA     BYTE      S4BUF
      000000B7H   SFRSYM    DATA     BYTE      IPH
      00000080H.7 SFRSYM    DATA     BIT       P07
      00000088H   SFRSYM    DATA     BYTE      TCON
      00000098H   SFRSYM    DATA     BYTE      SCON
      000000BCH   SFRSYM    DATA     BYTE      ADC_CONTR
      000000DEH   SFRSYM    DATA     BYTE      ADCCFG
      000000B8H   SFRSYM    DATA     BYTE      IP
      000000A8H   SFRSYM    DATA     BYTE      IE
      000000F8H   SFRSYM    DATA     BYTE      P7
      000000E8H   SFRSYM    DATA     BYTE      P6
      000000C8H   SFRSYM    DATA     BYTE      P5
      000000C0H   SFRSYM    DATA     BYTE      P4
      000000B0H   SFRSYM    DATA     BYTE      P3
      000000A0H   SFRSYM    DATA     BYTE      P2
      00000090H   SFRSYM    DATA     BYTE      P1
      00000080H   SFRSYM    DATA     BYTE      P0
      000005B3H   SYMBOL    EDATA    BYTE      wireless_uart_data
      000005B4H   SYMBOL    EDATA    ---       wireless_uart_fifo
      000005C8H   SYMBOL    EDATA    ---       wireless_uart_buffer

      00FF6A1DH   BLOCK     CODE     ---       LVL=0
      00FF6A1DH   LINE      CODE     ---       #48
      00FF6A1DH   LINE      CODE     ---       #51
      00FF6A23H   LINE      CODE     ---       #52
      ---         BLOCKEND  ---      ---       LVL=0
      REG=3       REGSYM    ---      ---       buff
      REG=7       REGSYM    ---      ---       buff
      DR8         REGSYM    ---      DWORD     len

      ---         MODULE    ---      ---       SEEKFREE_WIRELESS_CH573
      00FF6A36H   PUBLIC    CODE     ---       wireless_ch573_callback
      000000D0H   SFRSYM    DATA     BYTE      PSW
      000000FEH   SFRSYM    DATA     BYTE      S4BUF
      000000B7H   SFRSYM    DATA     BYTE      IPH
      00000080H.7 SFRSYM    DATA     BIT       P07
      00000088H   SFRSYM    DATA     BYTE      TCON
      00000098H   SFRSYM    DATA     BYTE      SCON
      000000BCH   SFRSYM    DATA     BYTE      ADC_CONTR
      000000DEH   SFRSYM    DATA     BYTE      ADCCFG
      000000B8H   SFRSYM    DATA     BYTE      IP
      000000A8H   SFRSYM    DATA     BYTE      IE
      000000F8H   SFRSYM    DATA     BYTE      P7
      000000E8H   SFRSYM    DATA     BYTE      P6
      000000C8H   SFRSYM    DATA     BYTE      P5
      000000C0H   SFRSYM    DATA     BYTE      P4
      000000B0H   SFRSYM    DATA     BYTE      P3
      000000A0H   SFRSYM    DATA     BYTE      P2
L251 LINKER/LOCATER V4.66.93.0                                                        07/11/2024  19:40:54  PAGE 65


      00000090H   SFRSYM    DATA     BYTE      P1
      00000080H   SFRSYM    DATA     BYTE      P0
      00000608H   SYMBOL    EDATA    ---       wireless_ch573_buffer
      00000648H   SYMBOL    EDATA    BYTE      wireless_ch573_data
      00000649H   SYMBOL    EDATA    ---       wireless_ch573_fifo

      00FF6A36H   BLOCK     CODE     ---       LVL=0
      00FF6A36H   LINE      CODE     ---       #39
      00FF6A36H   LINE      CODE     ---       #42
      00FF6A3CH   LINE      CODE     ---       #43
      ---         BLOCKEND  ---      ---       LVL=0
      REG=3       REGSYM    ---      ---       buff
      REG=7       REGSYM    ---      ---       buff
      DR8         REGSYM    ---      DWORD     len

      ---         MODULE    ---      ---       isr
      00FF64BBH   PUBLIC    CODE     ---       UART1_Isr
      00FF69AEH   PUBLIC    CODE     ---       UART2_Isr
      00FF69CCH   PUBLIC    CODE     ---       UART3_Isr
      00FF5DACH   PUBLIC    CODE     ---       UART4_Isr
      00FF48F9H   PUBLIC    CODE     ---       Get_Ratio
      00FF6BEFH   PUBLIC    CODE     ---       INT0_Isr
      00FF0011H   PUBLIC    CODE     ---       INT1_Isr
      00FF6BC7H   PUBLIC    CODE     ---       INT2_Isr
      00FF6BCFH   PUBLIC    CODE     ---       INT3_Isr
      00FF6BD7H   PUBLIC    CODE     ---       INT4_Isr
      00FF0012H   PUBLIC    CODE     ---       TM0_Isr
      00FF0019H   PUBLIC    CODE     ---       TM1_Isr
      00FF6BDFH   PUBLIC    CODE     ---       TM2_Isr
      00FF6BE7H   PUBLIC    CODE     ---       TM3_Isr
      00FF3191H   PUBLIC    CODE     ---       TM4_Isr
      000004FCH   PUBLIC    EDATA    FLOAT     Act_PwmR
      00000500H   PUBLIC    EDATA    FLOAT     Ratio
      00000504H   PUBLIC    EDATA    FLOAT     sum_L
      00000508H   PUBLIC    EDATA    FLOAT     Exp_Speed
      0000050CH   PUBLIC    EDATA    CHAR      Read_Nums
      0000050DH   PUBLIC    EDATA    CHAR      Flag_Stop
      0000050EH   PUBLIC    EDATA    FLOAT     Exp_Speed_gain
      00000512H   PUBLIC    EDATA    FLOAT     sum_R
      00000516H   PUBLIC    EDATA    FLOAT     Plus_Mid
      0000051AH   PUBLIC    EDATA    FLOAT     Plus
      0000051EH   PUBLIC    EDATA    CHAR      count
      0000051FH   PUBLIC    EDATA    FLOAT     Exp_Speed_L
      00000523H   PUBLIC    EDATA    FLOAT     Exp_Speed_R
      00000527H   PUBLIC    EDATA    FLOAT     Sum_Dis
      0000052BH   PUBLIC    EDATA    FLOAT     Angle_Edge
      0000052FH   PUBLIC    EDATA    CHAR      Distance_Num
      00000530H   PUBLIC    EDATA    FLOAT     Flag_Out_L
      00000534H   PUBLIC    EDATA    CHAR      Speed_Delay
      00000535H   PUBLIC    EDATA    FLOAT     Flag_Out_R
      00000539H   PUBLIC    EDATA    CHAR      Edge_Delay
      0000053AH   PUBLIC    EDATA    CHAR      Isr_Flag_10
      0000053BH   PUBLIC    EDATA    INT       gx
      0000053DH   PUBLIC    EDATA    INT       gy
      0000053FH   PUBLIC    EDATA    INT       gz
      00000541H   PUBLIC    EDATA    FLOAT     Diff_Mid
      00000545H   PUBLIC    EDATA    FLOAT     Diff
      00000549H   PUBLIC    EDATA    FLOAT     Act_PwmL
      0000054DH   PUBLIC    EDATA    FLOAT     Ratio_Mid
      000000D0H   SFRSYM    DATA     BYTE      PSW
      000000EFH   SFRSYM    DATA     BYTE      AUXINTIF
      000000FDH   SFRSYM    DATA     BYTE      S4CON
      000000ACH   SFRSYM    DATA     BYTE      S3CON
      0000009AH   SFRSYM    DATA     BYTE      S2CON
      000000B7H   SFRSYM    DATA     BYTE      IPH
L251 LINKER/LOCATER V4.66.93.0                                                        07/11/2024  19:40:54  PAGE 66


      000000C7H   SFRSYM    DATA     BYTE      IAP_CONTR
      000000C8H.2 SFRSYM    DATA     BIT       P52
      00000088H   SFRSYM    DATA     BYTE      TCON
      00000098H   SFRSYM    DATA     BYTE      SCON
      00000099H   SFRSYM    DATA     BYTE      SBUF
      000000BCH   SFRSYM    DATA     BYTE      ADC_CONTR
      000000DEH   SFRSYM    DATA     BYTE      ADCCFG
      000000B8H   SFRSYM    DATA     BYTE      IP
      000000A8H   SFRSYM    DATA     BYTE      IE
      000000F8H   SFRSYM    DATA     BYTE      P7
      000000E8H   SFRSYM    DATA     BYTE      P6
      000000C8H   SFRSYM    DATA     BYTE      P5
      000000C0H   SFRSYM    DATA     BYTE      P4
      000000B0H   SFRSYM    DATA     BYTE      P3
      000000A0H   SFRSYM    DATA     BYTE      P2
      00000090H   SFRSYM    DATA     BYTE      P1
      00000080H   SFRSYM    DATA     BYTE      P0

      00FF3191H   BLOCK     CODE     ---       LVL=0
      00FF3191H   LINE      CODE     ---       #41
      00FF31A7H   LINE      CODE     ---       #43
      00FF31AAH   LINE      CODE     ---       #44
      00FF31B3H   LINE      CODE     ---       #45
      00FF31B9H   LINE      CODE     ---       #46
      00FF31BCH   LINE      CODE     ---       #47
      00FF31BFH   LINE      CODE     ---       #48
      00FF31C2H   LINE      CODE     ---       #49
      00FF31C5H   LINE      CODE     ---       #52
      00FF31D1H   LINE      CODE     ---       #53
      00FF31DBH   LINE      CODE     ---       #54
      00FF31E3H   LINE      CODE     ---       #56
      00FF3205H   LINE      CODE     ---       #58
      00FF320BH   LINE      CODE     ---       #59
      00FF320DH   LINE      CODE     ---       #62
      00FF3232H   LINE      CODE     ---       #63
      00FF3232H   LINE      CODE     ---       #66
      00FF325DH   LINE      CODE     ---       #68
      00FF3273H   LINE      CODE     ---       #69
      00FF327DH   LINE      CODE     ---       #70
      00FF327DH   LINE      CODE     ---       #82
      00FF32A3H   LINE      CODE     ---       #88
      00FF32A9H   LINE      CODE     ---       #90
      00FF32B8H   LINE      CODE     ---       #91
      00FF32BFH   LINE      CODE     ---       #93
      00FF32C4H   LINE      CODE     ---       #94
      00FF32CDH   LINE      CODE     ---       #96
      00FF32D3H   LINE      CODE     ---       #97
      00FF32DBH   LINE      CODE     ---       #98
      00FF32E0H   LINE      CODE     ---       #99
      00FF32E0H   LINE      CODE     ---       #100
      00FF32E3H   LINE      CODE     ---       #101
      00FF32E3H   LINE      CODE     ---       #106
      00FF32FAH   LINE      CODE     ---       #107
      00FF3328H   LINE      CODE     ---       #108
      00FF333DH   LINE      CODE     ---       #109
      00FF334CH   LINE      CODE     ---       #110
      00FF3359H   LINE      CODE     ---       #112
      00FF3375H   LINE      CODE     ---       #113
      00FF3391H   LINE      CODE     ---       #114
      00FF3393H   LINE      CODE     ---       #117
      00FF33C1H   LINE      CODE     ---       #118
      00FF33DBH   LINE      CODE     ---       #119
      00FF33DBH   LINE      CODE     ---       #121
      00FF33EEH   LINE      CODE     ---       #122
      00FF3401H   LINE      CODE     ---       #125
L251 LINKER/LOCATER V4.66.93.0                                                        07/11/2024  19:40:54  PAGE 67


      00FF340AH   LINE      CODE     ---       #126
      00FF340FH   LINE      CODE     ---       #128
      00FF3435H   LINE      CODE     ---       #129
      00FF3439H   LINE      CODE     ---       #130
      00FF3459H   LINE      CODE     ---       #131
      00FF345EH   LINE      CODE     ---       #135
      00FF3474H   LINE      CODE     ---       #137
      00FF347DH   LINE      CODE     ---       #138
      00FF347FH   LINE      CODE     ---       #139
      00FF3481H   LINE      CODE     ---       #142
      00FF348CH   LINE      CODE     ---       #143
      00FF3497H   LINE      CODE     ---       #144
      00FF3497H   LINE      CODE     ---       #147
      00FF34A1H   LINE      CODE     ---       #149
      00FF34ACH   LINE      CODE     ---       #150
      00FF34B6H   LINE      CODE     ---       #151
      00FF34B8H   LINE      CODE     ---       #153
      00FF34C1H   LINE      CODE     ---       #156
      00FF34CAH   LINE      CODE     ---       #158
      00FF34D3H   LINE      CODE     ---       #159
      00FF34D8H   LINE      CODE     ---       #160
      ---         BLOCKEND  ---      ---       LVL=0

      00FF48F9H   BLOCK     CODE     ---       LVL=0
      00000551H   SYMBOL    EDATA    FLOAT     sum_01
      00000555H   SYMBOL    EDATA    FLOAT     sum_34
      00000559H   SYMBOL    EDATA    FLOAT     sum
      00FF48F9H   LINE      CODE     ---       #165
      00FF48F9H   LINE      CODE     ---       #166
      00FF48F9H   LINE      CODE     ---       #171
      00FF4919H   LINE      CODE     ---       #172
      00FF493BH   LINE      CODE     ---       #173
      00FF494AH   LINE      CODE     ---       #174
      00FF4955H   LINE      CODE     ---       #176
      00FF4968H   LINE      CODE     ---       #177
      00FF497BH   LINE      CODE     ---       #178
      00FF4984H   LINE      CODE     ---       #180
      00FF4995H   LINE      CODE     ---       #182
      00FF49A4H   LINE      CODE     ---       #183
      00FF49AAH   LINE      CODE     ---       #184
      00FF49AEH   LINE      CODE     ---       #185
      00FF49B3H   LINE      CODE     ---       #186
      00FF49B4H   LINE      CODE     ---       #189
      00FF49C6H   LINE      CODE     ---       #190
      00FF49CDH   LINE      CODE     ---       #192
      00FF49EAH   LINE      CODE     ---       #194
      00FF49F0H   LINE      CODE     ---       #195
      00FF4A05H   LINE      CODE     ---       #197
      00FF4A0FH   LINE      CODE     ---       #198
      00FF4A10H   LINE      CODE     ---       #199
      00FF4A25H   LINE      CODE     ---       #201
      00FF4A2FH   LINE      CODE     ---       #202
      00FF4A2FH   LINE      CODE     ---       #204
      00FF4A2FH   LINE      CODE     ---       #205
      ---         BLOCKEND  ---      ---       LVL=0

      00FF64BBH   BLOCK     CODE     ---       LVL=0
      00FF64BFH   BLOCK     CODE     NEAR LAB  LVL=1
      R11         REGSYM    ---      BYTE      res
      0000055DH   SYMBOL    EDATA    BYTE      dwon_count
      ---         BLOCKEND  ---      ---       LVL=1
      00FF64BBH   LINE      CODE     ---       #227
      00FF64BFH   LINE      CODE     ---       #228
      00FF64BFH   LINE      CODE     ---       #231
      00FF64C4H   LINE      CODE     ---       #233
L251 LINKER/LOCATER V4.66.93.0                                                        07/11/2024  19:40:54  PAGE 68


      00FF64C7H   LINE      CODE     ---       #234
      00FF64CCH   LINE      CODE     ---       #235
      00FF64CCH   LINE      CODE     ---       #236
      00FF64D1H   LINE      CODE     ---       #238
      00FF64D4H   LINE      CODE     ---       #239
      00FF64D6H   LINE      CODE     ---       #241
      00FF64D9H   LINE      CODE     ---       #243
      00FF64E9H   LINE      CODE     ---       #244
      00FF64ECH   LINE      CODE     ---       #245
      00FF64EEH   LINE      CODE     ---       #248
      00FF64F3H   LINE      CODE     ---       #249
      00FF64F3H   LINE      CODE     ---       #250
      ---         BLOCKEND  ---      ---       LVL=0

      00FF69AEH   BLOCK     CODE     ---       LVL=0
      00FF69AEH   LINE      CODE     ---       #254
      00FF69B2H   LINE      CODE     ---       #256
      00FF69B7H   LINE      CODE     ---       #258
      00FF69BAH   LINE      CODE     ---       #259
      00FF69BFH   LINE      CODE     ---       #260
      00FF69BFH   LINE      CODE     ---       #261
      00FF69C4H   LINE      CODE     ---       #263
      00FF69C7H   LINE      CODE     ---       #266
      ---         BLOCKEND  ---      ---       LVL=0

      00FF69CCH   BLOCK     CODE     ---       LVL=0
      00FF69CCH   LINE      CODE     ---       #271
      00FF69D0H   LINE      CODE     ---       #273
      00FF69D5H   LINE      CODE     ---       #275
      00FF69D8H   LINE      CODE     ---       #276
      00FF69DDH   LINE      CODE     ---       #277
      00FF69DDH   LINE      CODE     ---       #278
      00FF69E2H   LINE      CODE     ---       #280
      00FF69E5H   LINE      CODE     ---       #283
      ---         BLOCKEND  ---      ---       LVL=0

      00FF5DACH   BLOCK     CODE     ---       LVL=0
      00FF5DACH   LINE      CODE     ---       #288
      00FF5DC4H   LINE      CODE     ---       #290
      00FF5DC9H   LINE      CODE     ---       #292
      00FF5DCCH   LINE      CODE     ---       #293
      00FF5DD1H   LINE      CODE     ---       #294
      00FF5DD1H   LINE      CODE     ---       #295
      00FF5DD6H   LINE      CODE     ---       #297
      00FF5DD9H   LINE      CODE     ---       #300
      00FF5DE3H   LINE      CODE     ---       #302
      00FF5DE6H   LINE      CODE     ---       #303
      00FF5DE8H   LINE      CODE     ---       #304
      00FF5DEEH   LINE      CODE     ---       #306
      00FF5DF1H   LINE      CODE     ---       #307
      00FF5DF3H   LINE      CODE     ---       #308
      00FF5DF9H   LINE      CODE     ---       #310
      00FF5DFCH   LINE      CODE     ---       #311
      00FF5DFCH   LINE      CODE     ---       #313
      ---         BLOCKEND  ---      ---       LVL=0

      00FF6BEFH   BLOCK     CODE     ---       LVL=0
      00FF6BEFH   LINE      CODE     ---       #316
      00FF6BF1H   LINE      CODE     ---       #318
      00FF6BF3H   LINE      CODE     ---       #319
      ---         BLOCKEND  ---      ---       LVL=0

      00FF0011H   BLOCK     CODE     ---       LVL=0
      00FF0011H   LINE      CODE     ---       #320
      00FF0011H   LINE      CODE     ---       #323
L251 LINKER/LOCATER V4.66.93.0                                                        07/11/2024  19:40:54  PAGE 69


      ---         BLOCKEND  ---      ---       LVL=0

      00FF6BC7H   BLOCK     CODE     ---       LVL=0
      00FF6BC7H   LINE      CODE     ---       #324
      00FF6BC9H   LINE      CODE     ---       #326
      00FF6BCCH   LINE      CODE     ---       #327
      ---         BLOCKEND  ---      ---       LVL=0

      00FF6BCFH   BLOCK     CODE     ---       LVL=0
      00FF6BCFH   LINE      CODE     ---       #328
      00FF6BD1H   LINE      CODE     ---       #330
      00FF6BD4H   LINE      CODE     ---       #331
      ---         BLOCKEND  ---      ---       LVL=0

      00FF6BD7H   BLOCK     CODE     ---       LVL=0
      00FF6BD7H   LINE      CODE     ---       #333
      00FF6BD9H   LINE      CODE     ---       #335
      00FF6BDCH   LINE      CODE     ---       #336
      ---         BLOCKEND  ---      ---       LVL=0

      00FF0012H   BLOCK     CODE     ---       LVL=0
      00FF0012H   LINE      CODE     ---       #338
      00FF0012H   LINE      CODE     ---       #341
      ---         BLOCKEND  ---      ---       LVL=0

      00FF0019H   BLOCK     CODE     ---       LVL=0
      00FF0019H   LINE      CODE     ---       #342
      00FF0019H   LINE      CODE     ---       #345
      ---         BLOCKEND  ---      ---       LVL=0

      00FF6BDFH   BLOCK     CODE     ---       LVL=0
      00FF6BDFH   LINE      CODE     ---       #346
      00FF6BE1H   LINE      CODE     ---       #348
      00FF6BE4H   LINE      CODE     ---       #350
      ---         BLOCKEND  ---      ---       LVL=0

      00FF6BE7H   BLOCK     CODE     ---       LVL=0
      00FF6BE7H   LINE      CODE     ---       #351
      00FF6BE9H   LINE      CODE     ---       #353
      00FF6BECH   LINE      CODE     ---       #355
      ---         BLOCKEND  ---      ---       LVL=0

      ---         MODULE    ---      ---       main
      00FF42F7H   PUBLIC    CODE     ---       main
      00FF4A30H   PUBLIC    CODE     ---       Init_all
      00FF6770H   PUBLIC    CODE     ---       Filter_Window
      00FF5AFBH   PUBLIC    CODE     ---       Speed_Gain
      000006ADH   PUBLIC    EDATA    CHAR      KeyValue
      000006AEH   PUBLIC    EDATA    FLOAT     Dis_Process
      000006B2H   PUBLIC    EDATA    FLOAT     Adjust_Val
      000000D0H   SFRSYM    DATA     BYTE      PSW
      000000B7H   SFRSYM    DATA     BYTE      IPH
      000000E9H   SFRSYM    DATA     BYTE      WTST
      00000088H   SFRSYM    DATA     BYTE      TCON
      00000098H   SFRSYM    DATA     BYTE      SCON
      000000BCH   SFRSYM    DATA     BYTE      ADC_CONTR
      000000DEH   SFRSYM    DATA     BYTE      ADCCFG
      000000B8H   SFRSYM    DATA     BYTE      IP
      000000A8H   SFRSYM    DATA     BYTE      IE
      000000F8H   SFRSYM    DATA     BYTE      P7
      000000E8H   SFRSYM    DATA     BYTE      P6
      000000C8H   SFRSYM    DATA     BYTE      P5
      000000C0H   SFRSYM    DATA     BYTE      P4
      000000B0H   SFRSYM    DATA     BYTE      P3
      000000A0H   SFRSYM    DATA     BYTE      P2
L251 LINKER/LOCATER V4.66.93.0                                                        07/11/2024  19:40:54  PAGE 70


      00000090H   SFRSYM    DATA     BYTE      P1
      00000080H   SFRSYM    DATA     BYTE      P0

      00FF6770H   BLOCK     CODE     ---       LVL=0
      WR4         REGSYM    ---      WORD      Dis
      00FF6772H   BLOCK     CODE     NEAR LAB  LVL=1
      000006B6H   SYMBOL    EDATA    ---       filter_buf
      WR4         REGSYM    ---      INT       i
      WR6         REGSYM    ---      WORD      filter_sum
      ---         BLOCKEND  ---      ---       LVL=1
      00FF6770H   LINE      CODE     ---       #24
      00FF6772H   LINE      CODE     ---       #25
      00FF6772H   LINE      CODE     ---       #28
      00FF6774H   LINE      CODE     ---       #29
      00FF6778H   LINE      CODE     ---       #30
      00FF677AH   LINE      CODE     ---       #32
      00FF6786H   LINE      CODE     ---       #33
      00FF678CH   LINE      CODE     ---       #34
      00FF6794H   LINE      CODE     ---       #35
      00FF679AH   LINE      CODE     ---       #36
      ---         BLOCKEND  ---      ---       LVL=0

      00FF42F7H   BLOCK     CODE     ---       LVL=0
      00FF42F7H   LINE      CODE     ---       #38
      00FF42F7H   LINE      CODE     ---       #40
      00FF42FAH   LINE      CODE     ---       #41
      00FF42FDH   LINE      CODE     ---       #42
      00FF4303H   LINE      CODE     ---       #43
      00FF4303H   LINE      CODE     ---       #45
      00FF433EH   LINE      CODE     ---       #48
      00FF4341H   LINE      CODE     ---       #49
      00FF4349H   LINE      CODE     ---       #50
      00FF4366H   LINE      CODE     ---       #51
      00FF4389H   LINE      CODE     ---       #52
      00FF43A1H   LINE      CODE     ---       #53
      00FF43BBH   LINE      CODE     ---       #56
      00FF43C7H   LINE      CODE     ---       #58
      00FF43CAH   LINE      CODE     ---       #59
      00FF43DDH   LINE      CODE     ---       #60
      00FF43E4H   LINE      CODE     ---       #62
      00FF43F5H   LINE      CODE     ---       #63
      00FF43F5H   LINE      CODE     ---       #64
      00FF43F8H   LINE      CODE     ---       #66
      00FF43FFH   LINE      CODE     ---       #77
      00FF441EH   LINE      CODE     ---       #79
      00FF4428H   LINE      CODE     ---       #80
      00FF4445H   LINE      CODE     ---       #81
      00FF4447H   LINE      CODE     ---       #82
      00FF4460H   LINE      CODE     ---       #84
      00FF446AH   LINE      CODE     ---       #85
      00FF448DH   LINE      CODE     ---       #86
      00FF448FH   LINE      CODE     ---       #88
      00FF4494H   LINE      CODE     ---       #90
      00FF4499H   LINE      CODE     ---       #91
      ---         BLOCKEND  ---      ---       LVL=0

      00FF5AFBH   BLOCK     CODE     ---       LVL=0
      WR30        REGSYM    ---      INT       i
      000006D0H   SYMBOL    EDATA    ---       Speed_Buf
      00FF5AFBH   LINE      CODE     ---       #95
      00FF5AFBH   LINE      CODE     ---       #96
      00FF5AFBH   LINE      CODE     ---       #97
      00FF5AFDH   LINE      CODE     ---       #99
      00FF5B15H   LINE      CODE     ---       #100
      00FF5B15H   LINE      CODE     ---       #102
L251 LINKER/LOCATER V4.66.93.0                                                        07/11/2024  19:40:54  PAGE 71


      00FF5B2BH   LINE      CODE     ---       #103
      00FF5B3EH   LINE      CODE     ---       #104
      00FF5B46H   LINE      CODE     ---       #105
      00FF5B55H   LINE      CODE     ---       #107
      00FF5B5BH   LINE      CODE     ---       #108
      00FF5B63H   LINE      CODE     ---       #109
      00FF5B65H   LINE      CODE     ---       #112
      00FF5B6BH   LINE      CODE     ---       #113
      00FF5B73H   LINE      CODE     ---       #114
      00FF5B73H   LINE      CODE     ---       #115
      ---         BLOCKEND  ---      ---       LVL=0

      00FF4A30H   BLOCK     CODE     ---       LVL=0
      00FF4A30H   LINE      CODE     ---       #119
      00FF4A30H   LINE      CODE     ---       #121
      00FF4A33H   LINE      CODE     ---       #122
      00FF4A36H   LINE      CODE     ---       #123
      00FF4A42H   LINE      CODE     ---       #125
      00FF4A45H   LINE      CODE     ---       #128
      00FF4A4EH   LINE      CODE     ---       #129
      00FF4A57H   LINE      CODE     ---       #132
      00FF4A5AH   LINE      CODE     ---       #136
      00FF4A5DH   LINE      CODE     ---       #138
      00FF4A60H   LINE      CODE     ---       #141
      00FF4A63H   LINE      CODE     ---       #144
      00FF4A6EH   LINE      CODE     ---       #147
      00FF4A73H   LINE      CODE     ---       #148
      00FF4A7AH   LINE      CODE     ---       #151
      00FF4A7DH   LINE      CODE     ---       #154
      00FF4A80H   LINE      CODE     ---       #157
      00FF4A83H   LINE      CODE     ---       #160
      00FF4AAEH   LINE      CODE     ---       #163
      00FF4AEDH   LINE      CODE     ---       #164
      ---         BLOCKEND  ---      ---       LVL=0

      ---         MODULE    ---      ---       motor
      00FF509BH   PUBLIC    CODE     ---       Right_SetSpeed
      00FF62B4H   PUBLIC    CODE     ---       Motor_Init
      00FF5162H   PUBLIC    CODE     ---       Left_SetSpeed
      00FF679BH   PUBLIC    CODE     ---       Limit_Out
      00FF5229H   PUBLIC    CODE     ---       Get_Speed
      00000707H   PUBLIC    EDATA    FLOAT     Speed_L
      0000070BH   PUBLIC    EDATA    FLOAT     Speed_R
      000003FAH   PUBLIC    EDATA    BYTE      ?Limit_Out?BYTE
      000000D0H   SFRSYM    DATA     BYTE      PSW
      000000B7H   SFRSYM    DATA     BYTE      IPH
      000000B0H.5 SFRSYM    DATA     BIT       P35
      000000C8H.3 SFRSYM    DATA     BIT       P53
      00000088H   SFRSYM    DATA     BYTE      TCON
      00000098H   SFRSYM    DATA     BYTE      SCON
      000000BCH   SFRSYM    DATA     BYTE      ADC_CONTR
      000000DEH   SFRSYM    DATA     BYTE      ADCCFG
      000000B8H   SFRSYM    DATA     BYTE      IP
      000000A8H   SFRSYM    DATA     BYTE      IE
      000000F8H   SFRSYM    DATA     BYTE      P7
      000000E8H   SFRSYM    DATA     BYTE      P6
      000000C8H   SFRSYM    DATA     BYTE      P5
      000000C0H   SFRSYM    DATA     BYTE      P4
      000000B0H   SFRSYM    DATA     BYTE      P3
      000000A0H   SFRSYM    DATA     BYTE      P2
      00000090H   SFRSYM    DATA     BYTE      P1
      00000080H   SFRSYM    DATA     BYTE      P0

      00FF679BH   BLOCK     CODE     ---       LVL=0
      REG=7       REGSYM    ---      ---       Output
L251 LINKER/LOCATER V4.66.93.0                                                        07/11/2024  19:40:54  PAGE 72


      DR24        REGSYM    ---      FLOAT     Limit_Min
      00000402H   SYMBOL    EDATA    FLOAT     Limit_Max
      00FF679BH   LINE      CODE     ---       #16
      00FF679FH   LINE      CODE     ---       #18
      00FF67B1H   LINE      CODE     ---       #19
      00FF67C5H   LINE      CODE     ---       #20
      ---         BLOCKEND  ---      ---       LVL=0
      DR28        REGSYM    ---      FLOAT     x

      00FF62B4H   BLOCK     CODE     ---       LVL=0
      00FF62B4H   LINE      CODE     ---       #29
      00FF62B4H   LINE      CODE     ---       #31
      00FF62C5H   LINE      CODE     ---       #32
      00FF62D6H   LINE      CODE     ---       #33
      00FF62E7H   LINE      CODE     ---       #34
      ---         BLOCKEND  ---      ---       LVL=0

      00FF5162H   BLOCK     CODE     ---       LVL=0
      DR12        REGSYM    ---      FLOAT     speed
      00FF5166H   BLOCK     CODE     NEAR LAB  LVL=1
      0000070FH   SYMBOL    EDATA    INT       Special_NumL
      ---         BLOCKEND  ---      ---       LVL=1
      00FF5162H   LINE      CODE     ---       #37
      00FF5166H   LINE      CODE     ---       #38
      00FF5166H   LINE      CODE     ---       #40
      00FF5176H   LINE      CODE     ---       #41
      00FF517EH   LINE      CODE     ---       #43
      00FF5184H   LINE      CODE     ---       #44
      00FF518AH   LINE      CODE     ---       #46
      00FF5193H   LINE      CODE     ---       #47
      00FF519CH   LINE      CODE     ---       #48
      00FF51A1H   LINE      CODE     ---       #49
      00FF51A1H   LINE      CODE     ---       #52
      00FF51B6H   LINE      CODE     ---       #53
      00FF51C9H   LINE      CODE     ---       #54
      00FF51D2H   LINE      CODE     ---       #56
      00FF51E5H   LINE      CODE     ---       #57
      00FF51E5H   LINE      CODE     ---       #58
      00FF51E7H   LINE      CODE     ---       #59
      00FF51F0H   LINE      CODE     ---       #61
      00FF51F9H   LINE      CODE     ---       #62
      00FF520EH   LINE      CODE     ---       #63
      00FF5210H   LINE      CODE     ---       #66
      00FF5212H   LINE      CODE     ---       #67
      00FF521BH   LINE      CODE     ---       #68
      00FF5224H   LINE      CODE     ---       #69
      00FF5224H   LINE      CODE     ---       #70
      00FF5226H   LINE      CODE     ---       #71
      00FF5226H   LINE      CODE     ---       #72
      ---         BLOCKEND  ---      ---       LVL=0

      00FF509BH   BLOCK     CODE     ---       LVL=0
      DR12        REGSYM    ---      FLOAT     speed
      00FF509FH   BLOCK     CODE     NEAR LAB  LVL=1
      00000711H   SYMBOL    EDATA    INT       Special_NumR
      ---         BLOCKEND  ---      ---       LVL=1
      00FF509BH   LINE      CODE     ---       #74
      00FF509FH   LINE      CODE     ---       #75
      00FF509FH   LINE      CODE     ---       #77
      00FF50AFH   LINE      CODE     ---       #78
      00FF50B7H   LINE      CODE     ---       #80
      00FF50BDH   LINE      CODE     ---       #81
      00FF50C3H   LINE      CODE     ---       #83
      00FF50CCH   LINE      CODE     ---       #84
      00FF50D5H   LINE      CODE     ---       #85
L251 LINKER/LOCATER V4.66.93.0                                                        07/11/2024  19:40:54  PAGE 73


      00FF50DAH   LINE      CODE     ---       #86
      00FF50DAH   LINE      CODE     ---       #89
      00FF50EFH   LINE      CODE     ---       #90
      00FF5102H   LINE      CODE     ---       #91
      00FF510BH   LINE      CODE     ---       #93
      00FF511EH   LINE      CODE     ---       #94
      00FF511EH   LINE      CODE     ---       #95
      00FF5120H   LINE      CODE     ---       #96
      00FF5129H   LINE      CODE     ---       #98
      00FF5132H   LINE      CODE     ---       #99
      00FF5147H   LINE      CODE     ---       #100
      00FF5149H   LINE      CODE     ---       #103
      00FF514BH   LINE      CODE     ---       #104
      00FF5154H   LINE      CODE     ---       #105
      00FF515DH   LINE      CODE     ---       #106
      00FF515DH   LINE      CODE     ---       #107
      00FF515FH   LINE      CODE     ---       #108
      00FF515FH   LINE      CODE     ---       #109
      ---         BLOCKEND  ---      ---       LVL=0

      00FF5229H   BLOCK     CODE     ---       LVL=0
      00000713H   SYMBOL    EDATA    FLOAT     Speed_L_Last
      00000717H   SYMBOL    EDATA    FLOAT     Speed_R_Last
      00FF5229H   LINE      CODE     ---       #111
      00FF5229H   LINE      CODE     ---       #112
      00FF5229H   LINE      CODE     ---       #115
      00FF523EH   LINE      CODE     ---       #116
      00FF5256H   LINE      CODE     ---       #117
      00FF525DH   LINE      CODE     ---       #120
      00FF5271H   LINE      CODE     ---       #121
      00FF5287H   LINE      CODE     ---       #122
      00FF528CH   LINE      CODE     ---       #124
      00FF52B9H   LINE      CODE     ---       #125
      00FF52D6H   LINE      CODE     ---       #126
      00FF52DEH   LINE      CODE     ---       #127
      00FF52E6H   LINE      CODE     ---       #129
      ---         BLOCKEND  ---      ---       LVL=0
      DR12        REGSYM    ---      FLOAT     Speed

      ---         MODULE    ---      ---       ADC
      00FF47AEH   PUBLIC    CODE     ---       ADC_GetValue
      00FF67C6H   PUBLIC    CODE     ---       ADC_InitAll
      0000065DH   PUBLIC    EDATA    ---       ADC_Array_Original
      00000699H   PUBLIC    EDATA    ---       ADC_proc
      000000D0H   SFRSYM    DATA     BYTE      PSW
      000000B7H   SFRSYM    DATA     BYTE      IPH
      00000088H   SFRSYM    DATA     BYTE      TCON
      00000098H   SFRSYM    DATA     BYTE      SCON
      000000BCH   SFRSYM    DATA     BYTE      ADC_CONTR
      000000DEH   SFRSYM    DATA     BYTE      ADCCFG
      000000B8H   SFRSYM    DATA     BYTE      IP
      000000A8H   SFRSYM    DATA     BYTE      IE
      000000F8H   SFRSYM    DATA     BYTE      P7
      000000E8H   SFRSYM    DATA     BYTE      P6
      000000C8H   SFRSYM    DATA     BYTE      P5
      000000C0H   SFRSYM    DATA     BYTE      P4
      000000B0H   SFRSYM    DATA     BYTE      P3
      000000A0H   SFRSYM    DATA     BYTE      P2
      00000090H   SFRSYM    DATA     BYTE      P1
      00000080H   SFRSYM    DATA     BYTE      P0

      00FF67C6H   BLOCK     CODE     ---       LVL=0
      00FF67C6H   LINE      CODE     ---       #11
      00FF67C6H   LINE      CODE     ---       #13
      00FF67CDH   LINE      CODE     ---       #14
L251 LINKER/LOCATER V4.66.93.0                                                        07/11/2024  19:40:54  PAGE 74


      00FF67D6H   LINE      CODE     ---       #16
      00FF67DFH   LINE      CODE     ---       #18
      00FF67E8H   LINE      CODE     ---       #19
      ---         BLOCKEND  ---      ---       LVL=0

      00FF47AEH   BLOCK     CODE     ---       LVL=0
      00FF47B0H   BLOCK     CODE     NEAR LAB  LVL=1
      DR28        REGSYM    ---      FLOAT     temp
      R15         REGSYM    ---      CHAR      i
      R14         REGSYM    ---      CHAR      j
      ---         BLOCKEND  ---      ---       LVL=1
      00FF47AEH   LINE      CODE     ---       #23
      00FF47B0H   LINE      CODE     ---       #24
      00FF47B0H   LINE      CODE     ---       #27
      00FF47B2H   LINE      CODE     ---       #29
      00FF47CFH   LINE      CODE     ---       #30
      00FF47EEH   LINE      CODE     ---       #32
      00FF480DH   LINE      CODE     ---       #34
      00FF482CH   LINE      CODE     ---       #35
      00FF484BH   LINE      CODE     ---       #36
      00FF4855H   LINE      CODE     ---       #38
      00FF4857H   LINE      CODE     ---       #40
      00FF4859H   LINE      CODE     ---       #41
      00FF485BH   LINE      CODE     ---       #43
      00FF487AH   LINE      CODE     ---       #44
      00FF4881H   LINE      CODE     ---       #45
      00FF489AH   LINE      CODE     ---       #47
      00FF48B3H   LINE      CODE     ---       #48
      00FF48CAH   LINE      CODE     ---       #50
      00FF48ECH   LINE      CODE     ---       #52
      00FF48F6H   LINE      CODE     ---       #53
      ---         BLOCKEND  ---      ---       LVL=0

      ---         MODULE    ---      ---       PID
      00FF449CH   PUBLIC    CODE     ---       PID_Incremental_Calc
      00FF57EAH   PUBLIC    CODE     ---       PID_Incremental_Init
      00FF539FH   PUBLIC    CODE     ---       PID_Calculate
      00FF5E15H   PUBLIC    CODE     ---       PID_Init
      0000023EH   PUBLIC    EDATA    ---       Turn
      0000027BH   PUBLIC    EDATA    ---       Right_Wheel
      000002B8H   PUBLIC    EDATA    ---       Left_Wheel
      000002F5H   PUBLIC    EDATA    ---       Turn_PID
      000003FEH   PUBLIC    EDATA    BYTE      ?PID_Init?BYTE
      000003F2H   PUBLIC    EDATA    BYTE      ?PID_Calculate?BYTE
      000003FEH   PUBLIC    EDATA    BYTE      ?PID_Incremental_Init?BYTE
      000003F2H   PUBLIC    EDATA    BYTE      ?PID_Incremental_Calc?BYTE
      000000D0H   SFRSYM    DATA     BYTE      PSW
      000000B7H   SFRSYM    DATA     BYTE      IPH
      00000088H   SFRSYM    DATA     BYTE      TCON
      00000098H   SFRSYM    DATA     BYTE      SCON
      000000BCH   SFRSYM    DATA     BYTE      ADC_CONTR
      000000DEH   SFRSYM    DATA     BYTE      ADCCFG
      000000B8H   SFRSYM    DATA     BYTE      IP
      000000A8H   SFRSYM    DATA     BYTE      IE
      000000F8H   SFRSYM    DATA     BYTE      P7
      000000E8H   SFRSYM    DATA     BYTE      P6
      000000C8H   SFRSYM    DATA     BYTE      P5
      000000C0H   SFRSYM    DATA     BYTE      P4
      000000B0H   SFRSYM    DATA     BYTE      P3
      000000A0H   SFRSYM    DATA     BYTE      P2
      00000090H   SFRSYM    DATA     BYTE      P1
      00000080H   SFRSYM    DATA     BYTE      P0

      00FF5E15H   BLOCK     CODE     ---       LVL=0
      REG=2       REGSYM    ---      ---       PID_Struct
L251 LINKER/LOCATER V4.66.93.0                                                        07/11/2024  19:40:54  PAGE 75


      DR4         REGSYM    ---      FLOAT     Kpa
      00000406H   SYMBOL    EDATA    FLOAT     Kpb
      0000040AH   SYMBOL    EDATA    FLOAT     Ki
      0000040EH   SYMBOL    EDATA    FLOAT     Kd
      00000412H   SYMBOL    EDATA    FLOAT     Out_Limit
      00000416H   SYMBOL    EDATA    FLOAT     Integral_Limit
      00FF5E15H   LINE      CODE     ---       #18
      00FF5E17H   LINE      CODE     ---       #20
      00FF5E1FH   LINE      CODE     ---       #21
      00FF5E2BH   LINE      CODE     ---       #22
      00FF5E37H   LINE      CODE     ---       #23
      00FF5E43H   LINE      CODE     ---       #25
      00FF5E4CH   LINE      CODE     ---       #26
      00FF5E54H   LINE      CODE     ---       #28
      00FF5E5CH   LINE      CODE     ---       #29
      00FF5E68H   LINE      CODE     ---       #30
      00FF5E74H   LINE      CODE     ---       #31
      ---         BLOCKEND  ---      ---       LVL=0

      00FF539FH   BLOCK     CODE     ---       LVL=0
      REG=6       REGSYM    ---      ---       PID_Struct
      DR28        REGSYM    ---      FLOAT     Exp_Val
      000003FAH   SYMBOL    EDATA    FLOAT     Act_Val
      00FF539FH   LINE      CODE     ---       #34
      00FF53A1H   LINE      CODE     ---       #36
      00FF53AFH   LINE      CODE     ---       #38
      00FF5408H   LINE      CODE     ---       #42
      00FF5417H   LINE      CODE     ---       #45
      00FF5430H   LINE      CODE     ---       #46
      00FF5432H   LINE      CODE     ---       #47
      00FF5440H   LINE      CODE     ---       #48
      00FF5448H   LINE      CODE     ---       #49
      ---         BLOCKEND  ---      ---       LVL=0

      00FF57EAH   BLOCK     CODE     ---       LVL=0
      REG=2       REGSYM    ---      ---       pid
      DR4         REGSYM    ---      FLOAT     Kp
      00000406H   SYMBOL    EDATA    FLOAT     Ki
      0000040AH   SYMBOL    EDATA    FLOAT     Kd
      0000040EH   SYMBOL    EDATA    FLOAT     Out_Limit
      00000412H   SYMBOL    EDATA    FLOAT     Integral_Limit
      R15         REGSYM    ---      BYTE      use_lowpass_filter
      00FF57EAH   LINE      CODE     ---       #61
      00FF57F0H   LINE      CODE     ---       #63
      00FF57F7H   LINE      CODE     ---       #64
      00FF5803H   LINE      CODE     ---       #65
      00FF580FH   LINE      CODE     ---       #67
      00FF5819H   LINE      CODE     ---       #68
      00FF5821H   LINE      CODE     ---       #69
      00FF5829H   LINE      CODE     ---       #70
      00FF5831H   LINE      CODE     ---       #72
      00FF5839H   LINE      CODE     ---       #73
      00FF5845H   LINE      CODE     ---       #74
      00FF5854H   LINE      CODE     ---       #75
      00FF5860H   LINE      CODE     ---       #76
      00FF5864H   LINE      CODE     ---       #77
      00FF5874H   LINE      CODE     ---       #78
      ---         BLOCKEND  ---      ---       LVL=0

      00FF449CH   BLOCK     CODE     ---       LVL=0
      REG=3       REGSYM    ---      ---       pid
      DR28        REGSYM    ---      FLOAT     setpoint
      000003FAH   SYMBOL    EDATA    FLOAT     input_value
      00FF44A2H   BLOCK     CODE     NEAR LAB  LVL=1
      000003FEH   SYMBOL    EDATA    FLOAT     derivative
L251 LINKER/LOCATER V4.66.93.0                                                        07/11/2024  19:40:54  PAGE 76


      ---         BLOCKEND  ---      ---       LVL=1
      00FF449CH   LINE      CODE     ---       #81
      00FF44A2H   LINE      CODE     ---       #82
      00FF44A2H   LINE      CODE     ---       #84
      00FF44B2H   LINE      CODE     ---       #85
      00FF44C2H   LINE      CODE     ---       #86
      00FF44D3H   LINE      CODE     ---       #87
      00FF4504H   LINE      CODE     ---       #89
      00FF452CH   LINE      CODE     ---       #91
      00FF4556H   LINE      CODE     ---       #92
      00FF456EH   LINE      CODE     ---       #94
      00FF4594H   LINE      CODE     ---       #96
      00FF45BAH   LINE      CODE     ---       #99
      00FF45C0H   LINE      CODE     ---       #101
      00FF45FAH   LINE      CODE     ---       #102
      00FF45FAH   LINE      CODE     ---       #105
      00FF4617H   LINE      CODE     ---       #107
      00FF4627H   LINE      CODE     ---       #109
      00FF462FH   LINE      CODE     ---       #110
      ---         BLOCKEND  ---      ---       LVL=0

      ---         MODULE    ---      ---       MPU6050
      00FF6AB7H   PUBLIC    CODE     ---       i2c_nack
      00FF6BABH   PUBLIC    CODE     ---       Delay1ms
      00FF5983H   PUBLIC    CODE     ---       loadfirmware
      00FF6A66H   PUBLIC    CODE     ---       i2c_ack
      00FF6AC9H   PUBLIC    CODE     ---       i2c_start
      00FF5D41H   PUBLIC    CODE     ---       i2c_read_bits
      00FF65A8H   PUBLIC    CODE     ---       i2c_read_byte
      00FF5877H   PUBLIC    CODE     ---       xdmpUpdates
      00FF5F8EH   PUBLIC    CODE     ---       MPU_Get_Gyroscope
      00FF667BH   PUBLIC    CODE     ---       i2c_read_bit
      00FF5A81H   PUBLIC    CODE     ---       i2c_mem_read
      00FF5449H   PUBLIC    CODE     ---       loadcfgupd
      00FF001EH   PUBLIC    CODE     ---       I2C_SDA_H
      00FF5A04H   PUBLIC    CODE     ---       i2c_write_bits
      00FF696EH   PUBLIC    CODE     ---       getDeviceID
      00FF0056H   PUBLIC    CODE     ---       I2C_SDA_L
      00FF66AEH   PUBLIC    CODE     ---       i2c_write_byte
      00FF67F1H   PUBLIC    CODE     ---       i2c_wait_ack
      00FF6B1DH   PUBLIC    CODE     ---       i2c_stop
      00FF005EH   PUBLIC    CODE     ---       I2C_SCL_H
      00FF0086H   PUBLIC    CODE     ---       I2C_SCL_L
      00FF5F32H   PUBLIC    CODE     ---       i2c_write_bit
      00FF5E75H   PUBLIC    CODE     ---       i2c_mem_write
      00FF3A74H   PUBLIC    CODE     ---       MPU6050_Refresh_DMP
      00FF0046H   PUBLIC    CODE     ---       MPU_Read_Bits
      00FF6BB5H   PUBLIC    CODE     ---       MPU_Read_Bit
      00FF6B7FH   PUBLIC    CODE     ---       MPU_Read_Len
      00FF0006H   PUBLIC    CODE     ---       I2C_SDA_Read
      00FF6B58H   PUBLIC    CODE     ---       MPU_Write_Bits
      00FF6A7BH   PUBLIC    CODE     ---       MPU_Write_Byte
      00FF3D0EH   PUBLIC    CODE     ---       dmpInitialize
      00FF6B8AH   PUBLIC    CODE     ---       i2c_timeout_delay
      00FF6B2CH   PUBLIC    CODE     ---       readdmp
      00FF6B65H   PUBLIC    CODE     ---       MPU_Write_Bit
      00FF6B95H   PUBLIC    CODE     ---       MPU_Write_Len
      00FF6A90H   PUBLIC    CODE     ---       MPU_Delay_Ms
      00FF6BA0H   PUBLIC    CODE     ---       i2c_delay
      00FF0026H   PUBLIC    CODE     ---       getFIFOCount
      00FF66E1H   PUBLIC    CODE     ---       initMPU6050
      00FF6929H   PUBLIC    CODE     ---       MPU6050_DMP_Init
      00000491H   PUBLIC    EDATA    FLOAT     z_add
      00000495H   PUBLIC    EDATA    FLOAT     z_last
      00000499H   PUBLIC    EDATA    FLOAT     Roll
L251 LINKER/LOCATER V4.66.93.0                                                        07/11/2024  19:40:54  PAGE 77


      0000049DH   PUBLIC    EDATA    FLOAT     x1
      000004A1H   PUBLIC    EDATA    FLOAT     y1
      000004A5H   PUBLIC    EDATA    FLOAT     z1
      000004A9H   PUBLIC    EDATA    FLOAT     z_now
      000004ADH   PUBLIC    EDATA    FLOAT     Yaw
      000004B1H   PUBLIC    EDATA    ---       Q
      000004C1H   PUBLIC    EDATA    ---       dmpdatas
      000004EBH   PUBLIC    EDATA    CHAR      mpu_state
      000004ECH   PUBLIC    EDATA    FLOAT     Pitch
      00FF1A26H   PUBLIC    CODE     ---       dmpUpdates
      00FF1A55H   PUBLIC    CODE     ---       dmpcfgupddata
      00FF1B15H   PUBLIC    CODE     ---       dmpmemorydata
      00000402H   PUBLIC    EDATA    BYTE      ?MPU_Get_Gyroscope?BYTE
      000000D0H   SFRSYM    DATA     BYTE      PSW
      000000B7H   SFRSYM    DATA     BYTE      IPH
      000000C8H.1 SFRSYM    DATA     BIT       P51
      00000088H   SFRSYM    DATA     BYTE      TCON
      000000C8H.0 SFRSYM    DATA     BIT       P50
      00000098H   SFRSYM    DATA     BYTE      SCON
      000000BCH   SFRSYM    DATA     BYTE      ADC_CONTR
      000000DEH   SFRSYM    DATA     BYTE      ADCCFG
      000000B8H   SFRSYM    DATA     BYTE      IP
      000000A8H   SFRSYM    DATA     BYTE      IE
      000000F8H   SFRSYM    DATA     BYTE      P7
      000000E8H   SFRSYM    DATA     BYTE      P6
      000000C8H   SFRSYM    DATA     BYTE      P5
      000000C0H   SFRSYM    DATA     BYTE      P4
      000000B0H   SFRSYM    DATA     BYTE      P3
      000000A0H   SFRSYM    DATA     BYTE      P2
      00000090H   SFRSYM    DATA     BYTE      P1
      00000080H   SFRSYM    DATA     BYTE      P0

      00FF6B8AH   BLOCK     CODE     ---       LVL=0
      R10         REGSYM    ---      CHAR      i
      00FF6B8AH   LINE      CODE     ---       #10
      00FF6B8AH   LINE      CODE     ---       #11
      00FF6B8AH   LINE      CODE     ---       #13
      00FF6B8DH   LINE      CODE     ---       #14
      00FF6B94H   LINE      CODE     ---       #15
      ---         BLOCKEND  ---      ---       LVL=0

      00FF6BA0H   BLOCK     CODE     ---       LVL=0
      R10         REGSYM    ---      CHAR      i
      00FF6BA0H   LINE      CODE     ---       #17
      00FF6BA0H   LINE      CODE     ---       #18
      00FF6BA0H   LINE      CODE     ---       #20
      00FF6BA3H   LINE      CODE     ---       #21
      00FF6BAAH   LINE      CODE     ---       #22
      ---         BLOCKEND  ---      ---       LVL=0

      00FF005EH   BLOCK     CODE     ---       LVL=0
      00FF005EH   LINE      CODE     ---       #25
      00FF005EH   LINE      CODE     ---       #27
      00FF0060H   LINE      CODE     ---       #28
      ---         BLOCKEND  ---      ---       LVL=0

      00FF0086H   BLOCK     CODE     ---       LVL=0
      00FF0086H   LINE      CODE     ---       #31
      00FF0086H   LINE      CODE     ---       #33
      00FF0088H   LINE      CODE     ---       #34
      ---         BLOCKEND  ---      ---       LVL=0

      00FF001EH   BLOCK     CODE     ---       LVL=0
      00FF001EH   LINE      CODE     ---       #37
      00FF001EH   LINE      CODE     ---       #39
L251 LINKER/LOCATER V4.66.93.0                                                        07/11/2024  19:40:54  PAGE 78


      00FF0020H   LINE      CODE     ---       #40
      ---         BLOCKEND  ---      ---       LVL=0

      00FF0056H   BLOCK     CODE     ---       LVL=0
      00FF0056H   LINE      CODE     ---       #43
      00FF0056H   LINE      CODE     ---       #45
      00FF0058H   LINE      CODE     ---       #46
      ---         BLOCKEND  ---      ---       LVL=0

      00FF0006H   BLOCK     CODE     ---       LVL=0
      00FF0006H   LINE      CODE     ---       #49
      00FF0006H   LINE      CODE     ---       #51
      00FF000AH   LINE      CODE     ---       #52
      ---         BLOCKEND  ---      ---       LVL=0

      00FF6AC9H   BLOCK     CODE     ---       LVL=0
      00FF6AC9H   LINE      CODE     ---       #60
      00FF6AC9H   LINE      CODE     ---       #62
      00FF6ACCH   LINE      CODE     ---       #63
      00FF6ACFH   LINE      CODE     ---       #64
      00FF6AD2H   LINE      CODE     ---       #66
      00FF6AD5H   LINE      CODE     ---       #67
      00FF6AD8H   LINE      CODE     ---       #68
      ---         BLOCKEND  ---      ---       LVL=0

      00FF6B1DH   BLOCK     CODE     ---       LVL=0
      00FF6B1DH   LINE      CODE     ---       #77
      00FF6B1DH   LINE      CODE     ---       #79
      00FF6B20H   LINE      CODE     ---       #80
      00FF6B23H   LINE      CODE     ---       #81
      00FF6B26H   LINE      CODE     ---       #83
      00FF6B29H   LINE      CODE     ---       #84
      ---         BLOCKEND  ---      ---       LVL=0

      00FF6A66H   BLOCK     CODE     ---       LVL=0
      00FF6A66H   LINE      CODE     ---       #93
      00FF6A66H   LINE      CODE     ---       #95
      00FF6A69H   LINE      CODE     ---       #96
      00FF6A6CH   LINE      CODE     ---       #97
      00FF6A6FH   LINE      CODE     ---       #99
      00FF6A72H   LINE      CODE     ---       #100
      00FF6A75H   LINE      CODE     ---       #101
      00FF6A78H   LINE      CODE     ---       #102
      ---         BLOCKEND  ---      ---       LVL=0

      00FF6AB7H   BLOCK     CODE     ---       LVL=0
      00FF6AB7H   LINE      CODE     ---       #111
      00FF6AB7H   LINE      CODE     ---       #113
      00FF6ABAH   LINE      CODE     ---       #114
      00FF6ABDH   LINE      CODE     ---       #115
      00FF6AC0H   LINE      CODE     ---       #117
      00FF6AC3H   LINE      CODE     ---       #118
      00FF6AC6H   LINE      CODE     ---       #119
      ---         BLOCKEND  ---      ---       LVL=0

      00FF67F1H   BLOCK     CODE     ---       LVL=0
      00FF67F3H   BLOCK     CODE     NEAR LAB  LVL=1
      WR14        REGSYM    ---      WORD      time_temp
      ---         BLOCKEND  ---      ---       LVL=1
      00FF67F1H   LINE      CODE     ---       #129
      00FF67F3H   LINE      CODE     ---       #130
      00FF67F3H   LINE      CODE     ---       #131
      00FF67F5H   LINE      CODE     ---       #133
      00FF67F8H   LINE      CODE     ---       #134
      00FF67FBH   LINE      CODE     ---       #135
L251 LINKER/LOCATER V4.66.93.0                                                        07/11/2024  19:40:54  PAGE 79


      00FF67FDH   LINE      CODE     ---       #137
      00FF67FFH   LINE      CODE     ---       #138
      00FF6802H   LINE      CODE     ---       #139
      00FF6808H   LINE      CODE     ---       #141
      00FF680BH   LINE      CODE     ---       #142
      00FF680FH   LINE      CODE     ---       #143
      00FF6814H   LINE      CODE     ---       #145
      00FF6817H   LINE      CODE     ---       #146
      00FF6818H   LINE      CODE     ---       #147
      ---         BLOCKEND  ---      ---       LVL=0

      00FF66AEH   BLOCK     CODE     ---       LVL=0
      R15         REGSYM    ---      BYTE      dat
      00FF66B2H   BLOCK     CODE     NEAR LAB  LVL=1
      R14         REGSYM    ---      BYTE      i
      ---         BLOCKEND  ---      ---       LVL=1
      00FF66AEH   LINE      CODE     ---       #155
      00FF66B2H   LINE      CODE     ---       #156
      00FF66B2H   LINE      CODE     ---       #157
      00FF66B2H   LINE      CODE     ---       #159
      00FF66B5H   LINE      CODE     ---       #160
      00FF66B8H   LINE      CODE     ---       #162
      00FF66C1H   LINE      CODE     ---       #163
      00FF66C6H   LINE      CODE     ---       #165
      00FF66C9H   LINE      CODE     ---       #166
      00FF66CBH   LINE      CODE     ---       #167
      00FF66CEH   LINE      CODE     ---       #168
      00FF66D1H   LINE      CODE     ---       #169
      00FF66D4H   LINE      CODE     ---       #170
      00FF66D7H   LINE      CODE     ---       #171
      00FF66DAH   LINE      CODE     ---       #172
      00FF66DEH   LINE      CODE     ---       #173
      ---         BLOCKEND  ---      ---       LVL=0

      00FF65A8H   BLOCK     CODE     ---       LVL=0
      R15         REGSYM    ---      BYTE      ack
      00FF65AEH   BLOCK     CODE     NEAR LAB  LVL=1
      R13         REGSYM    ---      BYTE      i
      R14         REGSYM    ---      BYTE      receive
      ---         BLOCKEND  ---      ---       LVL=1
      00FF65A8H   LINE      CODE     ---       #181
      00FF65AEH   LINE      CODE     ---       #182
      00FF65AEH   LINE      CODE     ---       #183
      00FF65B0H   LINE      CODE     ---       #185
      00FF65B3H   LINE      CODE     ---       #187
      00FF65B6H   LINE      CODE     ---       #188
      00FF65B9H   LINE      CODE     ---       #189
      00FF65BCH   LINE      CODE     ---       #190
      00FF65BEH   LINE      CODE     ---       #191
      00FF65C3H   LINE      CODE     ---       #192
      00FF65C5H   LINE      CODE     ---       #193
      00FF65C8H   LINE      CODE     ---       #194
      00FF65CCH   LINE      CODE     ---       #195
      00FF65D0H   LINE      CODE     ---       #196
      00FF65D5H   LINE      CODE     ---       #198
      00FF65D8H   LINE      CODE     ---       #200
      00FF65DAH   LINE      CODE     ---       #201
      ---         BLOCKEND  ---      ---       LVL=0

      00FF5E75H   BLOCK     CODE     ---       LVL=0
      0000040FH   SYMBOL    EDATA    BYTE      DevAddress
      00000410H   SYMBOL    EDATA    BYTE      MemAddress
      REG=3       REGSYM    ---      ---       pData
      00000411H   SYMBOL    EDATA    WORD      Len
      00FF5E75H   LINE      CODE     ---       #209
L251 LINKER/LOCATER V4.66.93.0                                                        07/11/2024  19:40:54  PAGE 80


      00FF5E85H   LINE      CODE     ---       #211
      00FF5E88H   LINE      CODE     ---       #212
      00FF5E91H   LINE      CODE     ---       #213
      00FF5E96H   LINE      CODE     ---       #214
      00FF5E9AH   LINE      CODE     ---       #215
      00FF5EA1H   LINE      CODE     ---       #216
      00FF5EA6H   LINE      CODE     ---       #217
      00FF5EAAH   LINE      CODE     ---       #218
      00FF5EACH   LINE      CODE     ---       #220
      00FF5EB4H   LINE      CODE     ---       #221
      00FF5EB9H   LINE      CODE     ---       #222
      00FF5EBDH   LINE      CODE     ---       #223
      00FF5ECDH   LINE      CODE     ---       #224
      00FF5ED0H   LINE      CODE     ---       #225
      00FF5ED1H   LINE      CODE     ---       #226
      ---         BLOCKEND  ---      ---       LVL=0

      00FF5A81H   BLOCK     CODE     ---       LVL=0
      00000414H   SYMBOL    EDATA    BYTE      DevAddress
      00000415H   SYMBOL    EDATA    BYTE      MemAddress
      REG=3       REGSYM    ---      ---       pBuffer
      00000416H   SYMBOL    EDATA    WORD      Len
      00FF5A81H   LINE      CODE     ---       #234
      00FF5A91H   LINE      CODE     ---       #236
      00FF5A94H   LINE      CODE     ---       #237
      00FF5A9DH   LINE      CODE     ---       #238
      00FF5AA2H   LINE      CODE     ---       #239
      00FF5AA6H   LINE      CODE     ---       #240
      00FF5AADH   LINE      CODE     ---       #241
      00FF5AB2H   LINE      CODE     ---       #242
      00FF5AB6H   LINE      CODE     ---       #243
      00FF5AB9H   LINE      CODE     ---       #244
      00FF5AC4H   LINE      CODE     ---       #245
      00FF5AC9H   LINE      CODE     ---       #246
      00FF5ACDH   LINE      CODE     ---       #247
      00FF5ACFH   LINE      CODE     ---       #249
      00FF5AE4H   LINE      CODE     ---       #250
      00FF5AF4H   LINE      CODE     ---       #251
      00FF5AF7H   LINE      CODE     ---       #252
      00FF5AF8H   LINE      CODE     ---       #253
      ---         BLOCKEND  ---      ---       LVL=0

      00FF5F32H   BLOCK     CODE     ---       LVL=0
      R13         REGSYM    ---      BYTE      DevAddress
      R14         REGSYM    ---      BYTE      addr
      R15         REGSYM    ---      BYTE      bitNum
      R12         REGSYM    ---      BYTE      Data
      00FF5F3CH   BLOCK     CODE     NEAR LAB  LVL=1
      0000040CH   SYMBOL    EDATA    BYTE      b
      ---         BLOCKEND  ---      ---       LVL=1
      00FF5F32H   LINE      CODE     ---       #262
      00FF5F3CH   LINE      CODE     ---       #263
      00FF5F3CH   LINE      CODE     ---       #265
      00FF5F49H   LINE      CODE     ---       #267
      00FF5F78H   LINE      CODE     ---       #268
      00FF5F89H   LINE      CODE     ---       #269
      00FF5F89H   LINE      CODE     ---       #271
      00FF5F8BH   LINE      CODE     ---       #272
      ---         BLOCKEND  ---      ---       LVL=0

      00FF5A04H   BLOCK     CODE     ---       LVL=0
      0000040CH   SYMBOL    EDATA    BYTE      DevAddress
      R12         REGSYM    ---      BYTE      addr
      R13         REGSYM    ---      BYTE      bitStart
      R14         REGSYM    ---      BYTE      length
L251 LINKER/LOCATER V4.66.93.0                                                        07/11/2024  19:40:54  PAGE 81


      R15         REGSYM    ---      BYTE      Data
      00FF5A12H   BLOCK     CODE     NEAR LAB  LVL=1
      000004F0H   SYMBOL    EDATA    BYTE      b
      000004F1H   SYMBOL    EDATA    BYTE      mask
      ---         BLOCKEND  ---      ---       LVL=1
      00FF5A04H   LINE      CODE     ---       #282
      00FF5A12H   LINE      CODE     ---       #283
      00FF5A12H   LINE      CODE     ---       #292
      00FF5A1FH   LINE      CODE     ---       #294
      00FF5A45H   LINE      CODE     ---       #295
      00FF5A4EH   LINE      CODE     ---       #296
      00FF5A50H   LINE      CODE     ---       #297
      00FF5A5FH   LINE      CODE     ---       #298
      00FF5A69H   LINE      CODE     ---       #300
      00FF5A7CH   LINE      CODE     ---       #301
      00FF5A7CH   LINE      CODE     ---       #303
      00FF5A7EH   LINE      CODE     ---       #304
      ---         BLOCKEND  ---      ---       LVL=0

      00FF667BH   BLOCK     CODE     ---       LVL=0
      R11         REGSYM    ---      BYTE      DevAddress
      R10         REGSYM    ---      BYTE      addr
      0000040CH   SYMBOL    EDATA    BYTE      bitNum
      REG=3       REGSYM    ---      ---       Data
      00FF6683H   BLOCK     CODE     NEAR LAB  LVL=1
      0000040DH   SYMBOL    EDATA    BYTE      b
      ---         BLOCKEND  ---      ---       LVL=1
      00FF667BH   LINE      CODE     ---       #312
      00FF6683H   LINE      CODE     ---       #313
      00FF6683H   LINE      CODE     ---       #315
      00FF6690H   LINE      CODE     ---       #317
      00FF66A6H   LINE      CODE     ---       #318
      00FF66A9H   LINE      CODE     ---       #319
      00FF66A9H   LINE      CODE     ---       #322
      00FF66ABH   LINE      CODE     ---       #323
      00FF66ABH   LINE      CODE     ---       #324
      ---         BLOCKEND  ---      ---       LVL=0

      00FF5D41H   BLOCK     CODE     ---       LVL=0
      R11         REGSYM    ---      BYTE      DevAddress
      R10         REGSYM    ---      BYTE      addr
      R14         REGSYM    ---      BYTE      bitStart
      R15         REGSYM    ---      BYTE      length
      0000040CH   SYMBOL    EDATA    ---       Data
      00FF5D4BH   BLOCK     CODE     NEAR LAB  LVL=1
      000004F2H   SYMBOL    EDATA    BYTE      b
      000004F3H   SYMBOL    EDATA    BYTE      mask
      ---         BLOCKEND  ---      ---       LVL=1
      00FF5D41H   LINE      CODE     ---       #333
      00FF5D4BH   LINE      CODE     ---       #334
      00FF5D4BH   LINE      CODE     ---       #341
      00FF5D58H   LINE      CODE     ---       #344
      00FF5D7AH   LINE      CODE     ---       #345
      00FF5D82H   LINE      CODE     ---       #346
      00FF5D99H   LINE      CODE     ---       #347
      00FF5DA4H   LINE      CODE     ---       #348
      00FF5DA7H   LINE      CODE     ---       #349
      00FF5DA7H   LINE      CODE     ---       #351
      00FF5DA9H   LINE      CODE     ---       #352
      ---         BLOCKEND  ---      ---       LVL=0

      00FF6BABH   BLOCK     CODE     ---       LVL=0
      DR4         REGSYM    ---      DWORD     i
      00FF6BABH   LINE      CODE     ---       #356
      00FF6BABH   LINE      CODE     ---       #357
L251 LINKER/LOCATER V4.66.93.0                                                        07/11/2024  19:40:54  PAGE 82


      00FF6BABH   LINE      CODE     ---       #359
      00FF6BACH   LINE      CODE     ---       #360
      00FF6BB0H   LINE      CODE     ---       #361
      00FF6BB4H   LINE      CODE     ---       #362
      ---         BLOCKEND  ---      ---       LVL=0

      00FF6A90H   BLOCK     CODE     ---       LVL=0
      WR14        REGSYM    ---      WORD      Milliseconds
      00FF6A90H   LINE      CODE     ---       #365
      00FF6A94H   LINE      CODE     ---       #367
      00FF6AA1H   LINE      CODE     ---       #369
      ---         BLOCKEND  ---      ---       LVL=0

      00FF6B95H   BLOCK     CODE     ---       LVL=0
      R7          REGSYM    ---      BYTE      reg
      R6          REGSYM    ---      BYTE      len
      REG=0       REGSYM    ---      ---       buf
      00FF6B95H   LINE      CODE     ---       #377
      00FF6B99H   LINE      CODE     ---       #379
      ---         BLOCKEND  ---      ---       LVL=0

      00FF6B7FH   BLOCK     CODE     ---       LVL=0
      R7          REGSYM    ---      BYTE      reg
      R6          REGSYM    ---      BYTE      len
      REG=0       REGSYM    ---      ---       buf
      00FF6B7FH   LINE      CODE     ---       #388
      00FF6B83H   LINE      CODE     ---       #390
      ---         BLOCKEND  ---      ---       LVL=0

      00FF6A7BH   BLOCK     CODE     ---       LVL=0
      R10         REGSYM    ---      BYTE      reg
      0000040EH   SYMBOL    EDATA    BYTE      Data
      00FF6A7BH   LINE      CODE     ---       #398
      00FF6A81H   LINE      CODE     ---       #400
      ---         BLOCKEND  ---      ---       LVL=0
      R10         REGSYM    ---      BYTE      reg

      00FF6B65H   BLOCK     CODE     ---       LVL=0
      R7          REGSYM    ---      BYTE      addr
      R6          REGSYM    ---      BYTE      bitNum
      R10         REGSYM    ---      BYTE      Data
      00FF6B65H   LINE      CODE     ---       #414
      00FF6B6BH   LINE      CODE     ---       #416
      ---         BLOCKEND  ---      ---       LVL=0

      00FF6B58H   BLOCK     CODE     ---       LVL=0
      R7          REGSYM    ---      BYTE      addr
      R6          REGSYM    ---      BYTE      bitStart
      R5          REGSYM    ---      BYTE      length
      R4          REGSYM    ---      BYTE      Data
      00FF6B58H   LINE      CODE     ---       #420
      00FF6B60H   LINE      CODE     ---       #422
      ---         BLOCKEND  ---      ---       LVL=0

      00FF6BB5H   BLOCK     CODE     ---       LVL=0
      R7          REGSYM    ---      BYTE      addr
      R6          REGSYM    ---      BYTE      bitNum
      REG=0       REGSYM    ---      ---       Data
      00FF6BB5H   LINE      CODE     ---       #426
      00FF6BB9H   LINE      CODE     ---       #428
      ---         BLOCKEND  ---      ---       LVL=0

      00FF0046H   BLOCK     CODE     ---       LVL=0
      R7          REGSYM    ---      BYTE      addr
      R6          REGSYM    ---      BYTE      bitStart
L251 LINKER/LOCATER V4.66.93.0                                                        07/11/2024  19:40:54  PAGE 83


      R10         REGSYM    ---      BYTE      length
      REG=0       REGSYM    ---      ---       Data
      00FF0046H   LINE      CODE     ---       #432
      00FF004CH   LINE      CODE     ---       #434
      ---         BLOCKEND  ---      ---       LVL=0
      R11         REGSYM    ---      BYTE      res
      R10         REGSYM    ---      BYTE      fsr
      R10         REGSYM    ---      BYTE      fsr
      WR6         REGSYM    ---      WORD      lpf
      R10         REGSYM    ---      BYTE      Data
      WR14        REGSYM    ---      WORD      rate
      000004F4H   SYMBOL    EDATA    BYTE      Data
      WR4         REGSYM    ---      INT       raw
      DR4         REGSYM    ---      FLOAT     temp

      00FF5F8EH   BLOCK     CODE     ---       LVL=0
      00000406H   SYMBOL    EDATA    ---       gx
      REG=3       REGSYM    ---      ---       gy
      0000040AH   SYMBOL    EDATA    ---       gz
      00FF5F96H   BLOCK     CODE     NEAR LAB  LVL=1
      0000040EH   SYMBOL    EDATA    ---       buf
      R11         REGSYM    ---      BYTE      res
      ---         BLOCKEND  ---      ---       LVL=1
      00FF5F8EH   LINE      CODE     ---       #543
      00FF5F96H   LINE      CODE     ---       #544
      00FF5F96H   LINE      CODE     ---       #546
      00FF5FA2H   LINE      CODE     ---       #547
      00FF5FA4H   LINE      CODE     ---       #549
      00FF5FBBH   LINE      CODE     ---       #550
      00FF5FCEH   LINE      CODE     ---       #551
      00FF5FE3H   LINE      CODE     ---       #552
      00FF5FE3H   LINE      CODE     ---       #553
      00FF5FE3H   LINE      CODE     ---       #554
      ---         BLOCKEND  ---      ---       LVL=0
      REG=3       REGSYM    ---      ---       ay
      R11         REGSYM    ---      BYTE      res

      00FF5983H   BLOCK     CODE     ---       LVL=0
      00FF5985H   BLOCK     CODE     NEAR LAB  LVL=1
      WR14        REGSYM    ---      WORD      datanum
      0000040CH   SYMBOL    EDATA    BYTE      ye
      0000040DH   SYMBOL    EDATA    BYTE      i
      R12         REGSYM    ---      BYTE      bank
      R13         REGSYM    ---      BYTE      addr
      ---         BLOCKEND  ---      ---       LVL=1
      00FF5983H   LINE      CODE     ---       #790
      00FF5985H   LINE      CODE     ---       #791
      00FF5985H   LINE      CODE     ---       #792
      00FF5987H   LINE      CODE     ---       #794
      00FF5989H   LINE      CODE     ---       #795
      00FF598BH   LINE      CODE     ---       #797
      00FF598BH   LINE      CODE     ---       #799
      00FF5990H   LINE      CODE     ---       #800
      00FF5994H   LINE      CODE     ---       #802
      00FF599AH   LINE      CODE     ---       #803
      00FF599DH   LINE      CODE     ---       #805
      00FF59A4H   LINE      CODE     ---       #806
      00FF59ABH   LINE      CODE     ---       #807
      00FF59BDH   LINE      CODE     ---       #808
      00FF59C1H   LINE      CODE     ---       #809
      00FF59C4H   LINE      CODE     ---       #810
      00FF59D7H   LINE      CODE     ---       #811
      00FF59DEH   LINE      CODE     ---       #812
      00FF59E6H   LINE      CODE     ---       #813
      00FF59EDH   LINE      CODE     ---       #814
L251 LINKER/LOCATER V4.66.93.0                                                        07/11/2024  19:40:54  PAGE 84


      00FF59FFH   LINE      CODE     ---       #815
      00FF59FFH   LINE      CODE     ---       #816
      00FF5A01H   LINE      CODE     ---       #817
      ---         BLOCKEND  ---      ---       LVL=0

      00FF5449H   BLOCK     CODE     ---       LVL=0
      00FF544BH   BLOCK     CODE     NEAR LAB  LVL=1
      R14         REGSYM    ---      BYTE      line
      0000040CH   SYMBOL    EDATA    BYTE      bank
      R15         REGSYM    ---      BYTE      datacounts
      R13         REGSYM    ---      BYTE      bytes2write
      0000040DH   SYMBOL    EDATA    BYTE      offset
      000004F5H   SYMBOL    EDATA    BYTE      writingcounts
      R12         REGSYM    ---      BYTE      special
      ---         BLOCKEND  ---      ---       LVL=1
      00FF5449H   LINE      CODE     ---       #819
      00FF544BH   LINE      CODE     ---       #820
      00FF544BH   LINE      CODE     ---       #823
      00FF544DH   LINE      CODE     ---       #829
      00FF5450H   LINE      CODE     ---       #831
      00FF5466H   LINE      CODE     ---       #832
      00FF547CH   LINE      CODE     ---       #833
      00FF5490H   LINE      CODE     ---       #834
      00FF5499H   LINE      CODE     ---       #835
      00FF54A2H   LINE      CODE     ---       #836
      00FF54B3H   LINE      CODE     ---       #837
      00FF54B7H   LINE      CODE     ---       #838
      00FF54B9H   LINE      CODE     ---       #839
      00FF54BDH   LINE      CODE     ---       #841
      00FF54D1H   LINE      CODE     ---       #842
      00FF54D6H   LINE      CODE     ---       #847
      00FF54DEH   LINE      CODE     ---       #848
      00FF54E0H   LINE      CODE     ---       #850
      00FF54E3H   LINE      CODE     ---       #851
      00FF54EAH   LINE      CODE     ---       #853
      00FF54ECH   LINE      CODE     ---       #854
      ---         BLOCKEND  ---      ---       LVL=0

      00FF5877H   BLOCK     CODE     ---       LVL=0
      0000040CH   SYMBOL    EDATA    BYTE      datacounts
      00FF587DH   BLOCK     CODE     NEAR LAB  LVL=1
      000004F6H   SYMBOL    EDATA    BYTE      writingcounts
      R7          REGSYM    ---      BYTE      bank
      R14         REGSYM    ---      BYTE      offset
      R15         REGSYM    ---      BYTE      bytes2write
      ---         BLOCKEND  ---      ---       LVL=1
      00FF5877H   LINE      CODE     ---       #857
      00FF587DH   LINE      CODE     ---       #858
      00FF587DH   LINE      CODE     ---       #862
      00FF5898H   LINE      CODE     ---       #863
      00FF58B3H   LINE      CODE     ---       #864
      00FF58CEH   LINE      CODE     ---       #865
      00FF58D3H   LINE      CODE     ---       #866
      00FF58DAH   LINE      CODE     ---       #867
      00FF58EFH   LINE      CODE     ---       #868
      00FF58F3H   LINE      CODE     ---       #869
      00FF58FDH   LINE      CODE     ---       #870
      00FF58FFH   LINE      CODE     ---       #871
      ---         BLOCKEND  ---      ---       LVL=0

      00FF0026H   BLOCK     CODE     ---       LVL=0
      0000040CH   SYMBOL    EDATA    ---       i
      00FF0026H   LINE      CODE     ---       #875
      00FF0026H   LINE      CODE     ---       #876
      00FF0026H   LINE      CODE     ---       #878
L251 LINKER/LOCATER V4.66.93.0                                                        07/11/2024  19:40:54  PAGE 85


      00FF0032H   LINE      CODE     ---       #879
      00FF0042H   LINE      CODE     ---       #880
      ---         BLOCKEND  ---      ---       LVL=0

      00FF6B2CH   BLOCK     CODE     ---       LVL=0
      REG=7       REGSYM    ---      ---       Data
      00FF6B2CH   LINE      CODE     ---       #886
      00FF6B2CH   LINE      CODE     ---       #888
      00FF6B3AH   LINE      CODE     ---       #889
      ---         BLOCKEND  ---      ---       LVL=0

      00FF3D0EH   BLOCK     CODE     ---       LVL=0
      00000406H   SYMBOL    EDATA    BYTE      hwRevision
      00000407H   SYMBOL    EDATA    BYTE      otpValid
      00000408H   SYMBOL    EDATA    BYTE      mpuIntStatus
      00000409H   SYMBOL    EDATA    BYTE      xgOffsetTC
      0000040AH   SYMBOL    EDATA    BYTE      ygOffsetTC
      0000040BH   SYMBOL    EDATA    BYTE      zgOffsetTC
      000004F7H   SYMBOL    EDATA    WORD      fifoCount
      00FF3D0EH   LINE      CODE     ---       #892
      00FF3D0EH   LINE      CODE     ---       #893
      00FF3D0EH   LINE      CODE     ---       #897
      00FF3D19H   LINE      CODE     ---       #898
      00FF3D20H   LINE      CODE     ---       #899
      00FF3D2AH   LINE      CODE     ---       #900
      00FF3D32H   LINE      CODE     ---       #901
      00FF3D3AH   LINE      CODE     ---       #902
      00FF3D46H   LINE      CODE     ---       #903
      00FF3D4DH   LINE      CODE     ---       #904
      00FF3D57H   LINE      CODE     ---       #905
      00FF3D65H   LINE      CODE     ---       #906
      00FF3D74H   LINE      CODE     ---       #907
      00FF3D83H   LINE      CODE     ---       #911
      00FF3D8EH   LINE      CODE     ---       #912
      00FF3D95H   LINE      CODE     ---       #913
      00FF3D9AH   LINE      CODE     ---       #914
      00FF3D9CH   LINE      CODE     ---       #915
      00FF3DA1H   LINE      CODE     ---       #916
      00FF3DA3H   LINE      CODE     ---       #917
      00FF3DB1H   LINE      CODE     ---       #918
      00FF3DB9H   LINE      CODE     ---       #919
      00FF3DC1H   LINE      CODE     ---       #920
      00FF3DCFH   LINE      CODE     ---       #921
      00FF3DDDH   LINE      CODE     ---       #922
      00FF3DEBH   LINE      CODE     ---       #923
      00FF3DF3H   LINE      CODE     ---       #924
      00FF3DFAH   LINE      CODE     ---       #925
      00FF3E02H   LINE      CODE     ---       #926
      00FF3E0EH   LINE      CODE     ---       #927
      00FF3E1BH   LINE      CODE     ---       #928
      00FF3E28H   LINE      CODE     ---       #929
      00FF3E2EH   LINE      CODE     ---       #930
      00FF3E30H   LINE      CODE     ---       #931
      00FF3E37H   LINE      CODE     ---       #932
      00FF3E39H   LINE      CODE     ---       #933
      00FF3E44H   LINE      CODE     ---       #934
      00FF3E4BH   LINE      CODE     ---       #936
      00FF3E56H   LINE      CODE     ---       #938
      00FF3E5EH   LINE      CODE     ---       #939
      00FF3E66H   LINE      CODE     ---       #940
      00FF3E6EH   LINE      CODE     ---       #941
      00FF3E75H   LINE      CODE     ---       #942
      00FF3E80H   LINE      CODE     ---       #943
      00FF3E8BH   LINE      CODE     ---       #944
      00FF3E96H   LINE      CODE     ---       #945
L251 LINKER/LOCATER V4.66.93.0                                                        07/11/2024  19:40:54  PAGE 86


      00FF3EA1H   LINE      CODE     ---       #946
      00FF3EA8H   LINE      CODE     ---       #947
      00FF3EAAH   LINE      CODE     ---       #948
      00FF3EB1H   LINE      CODE     ---       #949
      00FF3EB3H   LINE      CODE     ---       #950
      00FF3EBAH   LINE      CODE     ---       #951
      00FF3EBCH   LINE      CODE     ---       #952
      00FF3EC9H   LINE      CODE     ---       #953
      00FF3ED4H   LINE      CODE     ---       #955
      00FF3EE0H   LINE      CODE     ---       #956
      00FF3EE7H   LINE      CODE     ---       #957
      00FF3EE9H   LINE      CODE     ---       #958
      00FF3EF6H   LINE      CODE     ---       #959
      00FF3F01H   LINE      CODE     ---       #961
      00FF3F0DH   LINE      CODE     ---       #962
      00FF3F14H   LINE      CODE     ---       #963
      00FF3F16H   LINE      CODE     ---       #964
      00FF3F20H   LINE      CODE     ---       #965
      00FF3F2BH   LINE      CODE     ---       #966
      00FF3F37H   LINE      CODE     ---       #968
      00FF3F39H   LINE      CODE     ---       #969
      ---         BLOCKEND  ---      ---       LVL=0

      00FF66E1H   BLOCK     CODE     ---       LVL=0
      00FF66E1H   LINE      CODE     ---       #972
      00FF66E1H   LINE      CODE     ---       #974
      00FF66EFH   LINE      CODE     ---       #975
      00FF66FCH   LINE      CODE     ---       #976
      00FF6709H   LINE      CODE     ---       #977
      ---         BLOCKEND  ---      ---       LVL=0

      00FF696EH   BLOCK     CODE     ---       LVL=0
      00000406H   SYMBOL    EDATA    BYTE      b
      00FF696EH   LINE      CODE     ---       #981
      00FF696EH   LINE      CODE     ---       #982
      00FF696EH   LINE      CODE     ---       #983
      00FF6973H   LINE      CODE     ---       #984
      00FF6982H   LINE      CODE     ---       #985
      00FF698DH   LINE      CODE     ---       #987
      ---         BLOCKEND  ---      ---       LVL=0

      00FF6929H   BLOCK     CODE     ---       LVL=0
      00FF6929H   LINE      CODE     ---       #989
      00FF6929H   LINE      CODE     ---       #991
      00FF692CH   LINE      CODE     ---       #992
      00FF6931H   LINE      CODE     ---       #993
      00FF6936H   LINE      CODE     ---       #994
      00FF6941H   LINE      CODE     ---       #995
      ---         BLOCKEND  ---      ---       LVL=0

      00FF3A74H   BLOCK     CODE     ---       LVL=0
      00FF3A76H   BLOCK     CODE     NEAR LAB  LVL=1
      000004F9H   SYMBOL    EDATA    BYTE      zd
      000004FAH   SYMBOL    EDATA    WORD      i
      ---         BLOCKEND  ---      ---       LVL=1
      00FF3A74H   LINE      CODE     ---       #999
      00FF3A76H   LINE      CODE     ---       #1000
      00FF3A76H   LINE      CODE     ---       #1004
      00FF3A7DH   LINE      CODE     ---       #1005
      00FF3A89H   LINE      CODE     ---       #1006
      00FF3A9CH   LINE      CODE     ---       #1008
      00FF3AA7H   LINE      CODE     ---       #1009
      00FF3AAAH   LINE      CODE     ---       #1010
      00FF3AB2H   LINE      CODE     ---       #1012
      00FF3AC5H   LINE      CODE     ---       #1014
L251 LINKER/LOCATER V4.66.93.0                                                        07/11/2024  19:40:54  PAGE 87


      00FF3ACEH   LINE      CODE     ---       #1016
      00FF3AECH   LINE      CODE     ---       #1017
      00FF3B04H   LINE      CODE     ---       #1018
      00FF3B1CH   LINE      CODE     ---       #1019
      00FF3B34H   LINE      CODE     ---       #1020
      00FF3B34H   LINE      CODE     ---       #1025
      00FF3B7CH   LINE      CODE     ---       #1026
      00FF3BF3H   LINE      CODE     ---       #1027
      00FF3C77H   LINE      CODE     ---       #1029
      00FF3C92H   LINE      CODE     ---       #1030
      00FF3CA8H   LINE      CODE     ---       #1032
      00FF3CB8H   LINE      CODE     ---       #1033
      00FF3CD7H   LINE      CODE     ---       #1034
      00FF3CF6H   LINE      CODE     ---       #1036
      00FF3CFEH   LINE      CODE     ---       #1038
      00FF3D0BH   LINE      CODE     ---       #1040
      ---         BLOCKEND  ---      ---       LVL=0

      ---         MODULE    ---      ---       TOF
      00FF5CD4H   PUBLIC    CODE     ---       vl53l0x_get_distance
      00FF229EH   PUBLIC    CODE     ---       vl53l0x_init
      0000075AH   PUBLIC    EDATA    WORD      vl53l0x_distance_mm
      0000075CH   PUBLIC    EDATA    BYTE      vl53l0x_finsh_flag
      000000D0H   SFRSYM    DATA     BYTE      PSW
      000000B7H   SFRSYM    DATA     BYTE      IPH
      000000B0H.3 SFRSYM    DATA     BIT       P33
      00000088H   SFRSYM    DATA     BYTE      TCON
      000000B0H.2 SFRSYM    DATA     BIT       P32
      00000098H   SFRSYM    DATA     BYTE      SCON
      000000BCH   SFRSYM    DATA     BYTE      ADC_CONTR
      000000DEH   SFRSYM    DATA     BYTE      ADCCFG
      000000B8H   SFRSYM    DATA     BYTE      IP
      000000A8H   SFRSYM    DATA     BYTE      IE
      000000F8H   SFRSYM    DATA     BYTE      P7
      000000E8H   SFRSYM    DATA     BYTE      P6
      000000C8H   SFRSYM    DATA     BYTE      P5
      000000C0H   SFRSYM    DATA     BYTE      P4
      000000B0H   SFRSYM    DATA     BYTE      P3
      000000A0H   SFRSYM    DATA     BYTE      P2
      00000090H   SFRSYM    DATA     BYTE      P1
      00000080H   SFRSYM    DATA     BYTE      P0
      00FF698EH   SYMBOL    CODE     ---       vl53l0x_simiic_sendack
      00FF64F8H   SYMBOL    CODE     ---       vl53l0x_timeout_microseconds_to_mclks
      00FF647DH   SYMBOL    CODE     ---       vl53l0x_timeout_mclks_to_microseconds
      00FF6896H   SYMBOL    CODE     ---       vl53l0x_set_signal_rate_limit
      00FF6534H   SYMBOL    CODE     ---       vl53l0x_read_ch
      00FF6AFDH   SYMBOL    CODE     ---       vl53l0x_decode_timeout
      00FF6742H   SYMBOL    CODE     ---       vl53l0x_send_ch
      00FF4632H   SYMBOL    CODE     ---       vl53l0x_get_spad_info
      00FF6614H   SYMBOL    CODE     ---       vl53l0x_encode_timeout
      00FF5FE6H   SYMBOL    CODE     ---       vl53l0x_get_sequence_step_enables
      00FF0066H   SYMBOL    CODE     ---       vl53l0x_sccb_waitack
      00FF6B72H   SYMBOL    CODE     ---       vl53l0x_simiic_delay
      00FF5B74H   SYMBOL    CODE     ---       vl53l0x_perform_single_ref_calibration
      00FF4FC0H   SYMBOL    CODE     ---       vl53l0x_get_sequence_step_timeouts
      00FF6B3BH   SYMBOL    CODE     ---       vl53l0x_simiic_start
      00FF6092H   SYMBOL    CODE     ---       vl53l0x_simiic_read_regs
      00FF5C61H   SYMBOL    CODE     ---       vl53l0x_get_measurement_timing_budget
      00FF65DFH   SYMBOL    CODE     ---       vl53l0x_simiic_write_dats
      00FF686DH   SYMBOL    CODE     ---       vl53l0x_simiic_read_reg
      00FF60E6H   SYMBOL    CODE     ---       vl53l0x_simiic_read_regs_1
      00FF4DFCH   SYMBOL    CODE     ---       vl53l0x_set_measurement_timing_budget
      00FF6ADBH   SYMBOL    CODE     ---       vl53l0x_simiic_stop
      00FF694CH   SYMBOL    CODE     ---       vl53l0x_simiic_write_reg
      00FF61D8H   SYMBOL    CODE     ---       vl53l0x_get_vcsel_pulse_period
L251 LINKER/LOCATER V4.66.93.0                                                        07/11/2024  19:40:54  PAGE 88



      00FF6B72H   BLOCK     CODE     ---       LVL=0
      WR6         REGSYM    ---      WORD      j
      00FF6B72H   LINE      CODE     ---       #77
      00FF6B72H   LINE      CODE     ---       #78
      00FF6B72H   LINE      CODE     ---       #79
      00FF6B76H   LINE      CODE     ---       #80
      00FF6B7EH   LINE      CODE     ---       #81
      ---         BLOCKEND  ---      ---       LVL=0

      00FF6B3BH   BLOCK     CODE     ---       LVL=0
      00FF6B3BH   LINE      CODE     ---       #84
      00FF6B3BH   LINE      CODE     ---       #86
      00FF6B3DH   LINE      CODE     ---       #87
      00FF6B3FH   LINE      CODE     ---       #88
      00FF6B42H   LINE      CODE     ---       #89
      00FF6B44H   LINE      CODE     ---       #90
      00FF6B47H   LINE      CODE     ---       #91
      00FF6B49H   LINE      CODE     ---       #92
      ---         BLOCKEND  ---      ---       LVL=0

      00FF6ADBH   BLOCK     CODE     ---       LVL=0
      00FF6ADBH   LINE      CODE     ---       #95
      00FF6ADBH   LINE      CODE     ---       #97
      00FF6ADDH   LINE      CODE     ---       #98
      00FF6ADFH   LINE      CODE     ---       #99
      00FF6AE2H   LINE      CODE     ---       #100
      00FF6AE4H   LINE      CODE     ---       #101
      00FF6AE7H   LINE      CODE     ---       #102
      00FF6AE9H   LINE      CODE     ---       #103
      ---         BLOCKEND  ---      ---       LVL=0

      00FF698EH   BLOCK     CODE     ---       LVL=0
      R15         REGSYM    ---      BYTE      ack_dat
      00FF698EH   LINE      CODE     ---       #108
      00FF6992H   LINE      CODE     ---       #110
      00FF6994H   LINE      CODE     ---       #111
      00FF6997H   LINE      CODE     ---       #112
      00FF699FH   LINE      CODE     ---       #113
      00FF69A1H   LINE      CODE     ---       #115
      00FF69A3H   LINE      CODE     ---       #116
      00FF69A6H   LINE      CODE     ---       #117
      00FF69A8H   LINE      CODE     ---       #118
      00FF69ABH   LINE      CODE     ---       #119
      ---         BLOCKEND  ---      ---       LVL=0

      00FF0066H   BLOCK     CODE     ---       LVL=0
      00FF0066H   LINE      CODE     ---       #122
      00FF0066H   LINE      CODE     ---       #124
      00FF0068H   LINE      CODE     ---       #126
      00FF006BH   LINE      CODE     ---       #128
      00FF006DH   LINE      CODE     ---       #129
      00FF0070H   LINE      CODE     ---       #131
      00FF0073H   LINE      CODE     ---       #134
      00FF0075H   LINE      CODE     ---       #135
      00FF0078H   LINE      CODE     ---       #136
      00FF0078H   LINE      CODE     ---       #138
      00FF007AH   LINE      CODE     ---       #139
      00FF007DH   LINE      CODE     ---       #140
      00FF0081H   LINE      CODE     ---       #141
      ---         BLOCKEND  ---      ---       LVL=0

      00FF6742H   BLOCK     CODE     ---       LVL=0
      R15         REGSYM    ---      BYTE      c
      00FF6746H   BLOCK     CODE     NEAR LAB  LVL=1
L251 LINKER/LOCATER V4.66.93.0                                                        07/11/2024  19:40:54  PAGE 89


      R14         REGSYM    ---      BYTE      i
      ---         BLOCKEND  ---      ---       LVL=1
      00FF6742H   LINE      CODE     ---       #147
      00FF6746H   LINE      CODE     ---       #148
      00FF6746H   LINE      CODE     ---       #149
      00FF6749H   LINE      CODE     ---       #150
      00FF674BH   LINE      CODE     ---       #152
      00FF6754H   LINE      CODE     ---       #153
      00FF6756H   LINE      CODE     ---       #154
      00FF6758H   LINE      CODE     ---       #155
      00FF675BH   LINE      CODE     ---       #156
      00FF675DH   LINE      CODE     ---       #157
      00FF6760H   LINE      CODE     ---       #158
      00FF6762H   LINE      CODE     ---       #159
      00FF676AH   LINE      CODE     ---       #160
      00FF676DH   LINE      CODE     ---       #161
      ---         BLOCKEND  ---      ---       LVL=0

      00FF6534H   BLOCK     CODE     ---       LVL=0
      R15         REGSYM    ---      BYTE      ack_x
      00FF653AH   BLOCK     CODE     NEAR LAB  LVL=1
      R13         REGSYM    ---      BYTE      i
      R14         REGSYM    ---      BYTE      c
      ---         BLOCKEND  ---      ---       LVL=1
      00FF6534H   LINE      CODE     ---       #167
      00FF653AH   LINE      CODE     ---       #168
      00FF653AH   LINE      CODE     ---       #171
      00FF653CH   LINE      CODE     ---       #172
      00FF653EH   LINE      CODE     ---       #173
      00FF6541H   LINE      CODE     ---       #174
      00FF6543H   LINE      CODE     ---       #176
      00FF6546H   LINE      CODE     ---       #178
      00FF6549H   LINE      CODE     ---       #179
      00FF654BH   LINE      CODE     ---       #180
      00FF654EH   LINE      CODE     ---       #181
      00FF6550H   LINE      CODE     ---       #182
      00FF6553H   LINE      CODE     ---       #183
      00FF6555H   LINE      CODE     ---       #184
      00FF6558H   LINE      CODE     ---       #186
      00FF655AH   LINE      CODE     ---       #187
      00FF655EH   LINE      CODE     ---       #190
      00FF6560H   LINE      CODE     ---       #191
      00FF6563H   LINE      CODE     ---       #192
      00FF6568H   LINE      CODE     ---       #194
      00FF656AH   LINE      CODE     ---       #195
      ---         BLOCKEND  ---      ---       LVL=0

      00FF65DFH   BLOCK     CODE     ---       LVL=0
      0000043BH   SYMBOL    EDATA    BYTE      dev_add
      0000043CH   SYMBOL    EDATA    ---       dat
      DR12        REGSYM    ---      DWORD     len
      00FF65DFH   LINE      CODE     ---       #207
      00FF65EBH   LINE      CODE     ---       #209
      00FF65EEH   LINE      CODE     ---       #210
      00FF65F4H   LINE      CODE     ---       #211
      00FF65F6H   LINE      CODE     ---       #213
      00FF6606H   LINE      CODE     ---       #214
      00FF660EH   LINE      CODE     ---       #217
      00FF6611H   LINE      CODE     ---       #218
      ---         BLOCKEND  ---      ---       LVL=0

      00FF694CH   BLOCK     CODE     ---       LVL=0
      R13         REGSYM    ---      BYTE      dev_add
      R14         REGSYM    ---      BYTE      reg
      R15         REGSYM    ---      BYTE      dat
L251 LINKER/LOCATER V4.66.93.0                                                        07/11/2024  19:40:54  PAGE 90


      00FF694CH   LINE      CODE     ---       #230
      00FF6954H   LINE      CODE     ---       #232
      00FF6957H   LINE      CODE     ---       #233
      00FF695CH   LINE      CODE     ---       #234
      00FF6961H   LINE      CODE     ---       #235
      00FF6966H   LINE      CODE     ---       #236
      00FF6969H   LINE      CODE     ---       #237
      ---         BLOCKEND  ---      ---       LVL=0

      00FF686DH   BLOCK     CODE     ---       LVL=0
      R15         REGSYM    ---      BYTE      dev_add
      R14         REGSYM    ---      BYTE      reg
      00FF6873H   BLOCK     CODE     NEAR LAB  LVL=1
      R15         REGSYM    ---      BYTE      dat
      ---         BLOCKEND  ---      ---       LVL=1
      00FF686DH   LINE      CODE     ---       #248
      00FF6873H   LINE      CODE     ---       #249
      00FF6873H   LINE      CODE     ---       #251
      00FF6876H   LINE      CODE     ---       #252
      00FF687BH   LINE      CODE     ---       #253
      00FF6880H   LINE      CODE     ---       #256
      00FF6883H   LINE      CODE     ---       #257
      00FF688CH   LINE      CODE     ---       #258
      00FF6890H   LINE      CODE     ---       #259
      00FF6893H   LINE      CODE     ---       #261
      00FF6893H   LINE      CODE     ---       #262
      ---         BLOCKEND  ---      ---       LVL=0

      00FF6092H   BLOCK     CODE     ---       LVL=0
      00000442H   SYMBOL    EDATA    BYTE      dev_add
      00000443H   SYMBOL    EDATA    BYTE      reg
      REG=3       REGSYM    ---      ---       dat_add
      00000444H   SYMBOL    EDATA    DWORD     num
      00FF6092H   LINE      CODE     ---       #275
      00FF609EH   LINE      CODE     ---       #277
      00FF60A1H   LINE      CODE     ---       #278
      00FF60AAH   LINE      CODE     ---       #279
      00FF60B1H   LINE      CODE     ---       #282
      00FF60B4H   LINE      CODE     ---       #283
      00FF60BFH   LINE      CODE     ---       #284
      00FF60C1H   LINE      CODE     ---       #286
      00FF60C9H   LINE      CODE     ---       #287
      00FF60CBH   LINE      CODE     ---       #288
      00FF60D9H   LINE      CODE     ---       #289
      00FF60E0H   LINE      CODE     ---       #290
      00FF60E3H   LINE      CODE     ---       #291
      ---         BLOCKEND  ---      ---       LVL=0

      00FF60E6H   BLOCK     CODE     ---       LVL=0
      000003FDH   SYMBOL    EDATA    BYTE      dev_add
      000003FEH   SYMBOL    EDATA    BYTE      reg
      REG=3       REGSYM    ---      ---       dat_add
      000003FFH   SYMBOL    EDATA    DWORD     num
      00FF60E6H   LINE      CODE     ---       #304
      00FF60F2H   LINE      CODE     ---       #306
      00FF60F5H   LINE      CODE     ---       #307
      00FF60FEH   LINE      CODE     ---       #308
      00FF6105H   LINE      CODE     ---       #311
      00FF6108H   LINE      CODE     ---       #312
      00FF6113H   LINE      CODE     ---       #313
      00FF6115H   LINE      CODE     ---       #315
      00FF611DH   LINE      CODE     ---       #316
      00FF611FH   LINE      CODE     ---       #317
      00FF612DH   LINE      CODE     ---       #318
      00FF6134H   LINE      CODE     ---       #319
L251 LINKER/LOCATER V4.66.93.0                                                        07/11/2024  19:40:54  PAGE 91


      00FF6137H   LINE      CODE     ---       #320
      ---         BLOCKEND  ---      ---       LVL=0

      00FF4632H   BLOCK     CODE     ---       LVL=0
      00000418H   SYMBOL    EDATA    ---       index
      REG=3       REGSYM    ---      ---       type_is_aperture
      00FF463AH   BLOCK     CODE     NEAR LAB  LVL=1
      0000041CH   SYMBOL    EDATA    BYTE      tmp
      0000041DH   SYMBOL    EDATA    BYTE      return_state
      0000041EH   SYMBOL    EDATA    WORD      loop_count
      ---         BLOCKEND  ---      ---       LVL=1
      00FF4632H   LINE      CODE     ---       #352
      00FF463AH   LINE      CODE     ---       #353
      00FF463AH   LINE      CODE     ---       #354
      00FF463FH   LINE      CODE     ---       #355
      00FF4643H   LINE      CODE     ---       #356
      00FF4649H   LINE      CODE     ---       #358
      00FF4649H   LINE      CODE     ---       #360
      00FF4654H   LINE      CODE     ---       #361
      00FF465FH   LINE      CODE     ---       #362
      00FF4668H   LINE      CODE     ---       #364
      00FF4673H   LINE      CODE     ---       #365
      00FF4687H   LINE      CODE     ---       #366
      00FF4696H   LINE      CODE     ---       #367
      00FF46A1H   LINE      CODE     ---       #368
      00FF46ACH   LINE      CODE     ---       #370
      00FF46B7H   LINE      CODE     ---       #372
      00FF46C2H   LINE      CODE     ---       #373
      00FF46CCH   LINE      CODE     ---       #375
      00FF46D1H   LINE      CODE     ---       #376
      00FF46D3H   LINE      CODE     ---       #378
      00FF46E7H   LINE      CODE     ---       #379
      00FF46F1H   LINE      CODE     ---       #380
      00FF46FBH   LINE      CODE     ---       #382
      00FF4701H   LINE      CODE     ---       #383
      00FF4703H   LINE      CODE     ---       #384
      00FF470AH   LINE      CODE     ---       #387
      00FF4713H   LINE      CODE     ---       #389
      00FF4713H   LINE      CODE     ---       #390
      00FF4713H   LINE      CODE     ---       #391
      00FF471EH   LINE      CODE     ---       #392
      00FF4732H   LINE      CODE     ---       #394
      00FF473FH   LINE      CODE     ---       #395
      00FF4749H   LINE      CODE     ---       #397
      00FF4753H   LINE      CODE     ---       #398
      00FF475EH   LINE      CODE     ---       #399
      00FF4772H   LINE      CODE     ---       #400
      00FF477EH   LINE      CODE     ---       #401
      00FF4789H   LINE      CODE     ---       #402
      00FF4793H   LINE      CODE     ---       #404
      00FF479DH   LINE      CODE     ---       #405
      00FF47A7H   LINE      CODE     ---       #406
      00FF47A7H   LINE      CODE     ---       #408
      00FF47ABH   LINE      CODE     ---       #409
      ---         BLOCKEND  ---      ---       LVL=0

      00FF647DH   BLOCK     CODE     ---       LVL=0
      WR30        REGSYM    ---      WORD      timeout_period_mclks
      R5          REGSYM    ---      BYTE      vcsel_period_pclks
      00FF647FH   BLOCK     CODE     NEAR LAB  LVL=1
      DR24        REGSYM    ---      DWORD     macro_period_ns
      ---         BLOCKEND  ---      ---       LVL=1
      00FF647DH   LINE      CODE     ---       #419
      00FF647FH   LINE      CODE     ---       #420
      00FF647FH   LINE      CODE     ---       #421
L251 LINKER/LOCATER V4.66.93.0                                                        07/11/2024  19:40:54  PAGE 92


      00FF64A0H   LINE      CODE     ---       #423
      ---         BLOCKEND  ---      ---       LVL=0

      00FF64F8H   BLOCK     CODE     ---       LVL=0
      DR28        REGSYM    ---      DWORD     timeout_period_us
      R3          REGSYM    ---      BYTE      vcsel_period_pclks
      00FF64FAH   BLOCK     CODE     NEAR LAB  LVL=1
      DR8         REGSYM    ---      DWORD     macro_period_ns
      ---         BLOCKEND  ---      ---       LVL=1
      00FF64F8H   LINE      CODE     ---       #434
      00FF64FAH   LINE      CODE     ---       #435
      00FF64FAH   LINE      CODE     ---       #436
      00FF651BH   LINE      CODE     ---       #438
      ---         BLOCKEND  ---      ---       LVL=0

      00FF6AFDH   BLOCK     CODE     ---       LVL=0
      WR4         REGSYM    ---      WORD      reg_val
      00FF6AFDH   LINE      CODE     ---       #448
      00FF6AFFH   LINE      CODE     ---       #451
      00FF6B0CH   LINE      CODE     ---       #453
      ---         BLOCKEND  ---      ---       LVL=0

      00FF6614H   BLOCK     CODE     ---       LVL=0
      WR2         REGSYM    ---      WORD      timeout_mclks
      00FF6616H   BLOCK     CODE     NEAR LAB  LVL=1
      DR8         REGSYM    ---      DWORD     ls_byte
      WR4         REGSYM    ---      WORD      ms_byte
      WR6         REGSYM    ---      WORD      return_data
      ---         BLOCKEND  ---      ---       LVL=1
      00FF6614H   LINE      CODE     ---       #462
      00FF6616H   LINE      CODE     ---       #463
      00FF6616H   LINE      CODE     ---       #464
      00FF6616H   LINE      CODE     ---       #465
      00FF661AH   LINE      CODE     ---       #466
      00FF661AH   LINE      CODE     ---       #468
      00FF6620H   LINE      CODE     ---       #471
      00FF6626H   LINE      CODE     ---       #472
      00FF6628H   LINE      CODE     ---       #474
      00FF6631H   LINE      CODE     ---       #475
      00FF6633H   LINE      CODE     ---       #476
      00FF663DH   LINE      CODE     ---       #477
      00FF6647H   LINE      CODE     ---       #478
      00FF6647H   LINE      CODE     ---       #479
      00FF6647H   LINE      CODE     ---       #480
      ---         BLOCKEND  ---      ---       LVL=0

      00FF5FE6H   BLOCK     CODE     ---       LVL=0
      REG=3       REGSYM    ---      ---       enables
      00FF5FEAH   BLOCK     CODE     NEAR LAB  LVL=1
      0000043BH   SYMBOL    EDATA    BYTE      sequence_config
      ---         BLOCKEND  ---      ---       LVL=1
      00FF5FE6H   LINE      CODE     ---       #489
      00FF5FEAH   LINE      CODE     ---       #490
      00FF5FEAH   LINE      CODE     ---       #491
      00FF5FEFH   LINE      CODE     ---       #492
      00FF6000H   LINE      CODE     ---       #494
      00FF600AH   LINE      CODE     ---       #495
      00FF6016H   LINE      CODE     ---       #496
      00FF6024H   LINE      CODE     ---       #497
      00FF6030H   LINE      CODE     ---       #498
      00FF603BH   LINE      CODE     ---       #499
      ---         BLOCKEND  ---      ---       LVL=0

      00FF61D8H   BLOCK     CODE     ---       LVL=0
      WR6         REGSYM    ---      INT       type
L251 LINKER/LOCATER V4.66.93.0                                                        07/11/2024  19:40:54  PAGE 93


      00000441H   SYMBOL    EDATA    BYTE      data_buffer
      00FF61D8H   LINE      CODE     ---       #508
      00FF61D8H   LINE      CODE     ---       #509
      00FF61D8H   LINE      CODE     ---       #510
      00FF61DDH   LINE      CODE     ---       #511
      00FF61E1H   LINE      CODE     ---       #513
      00FF61EEH   LINE      CODE     ---       #514
      00FF61EEH   LINE      CODE     ---       #515
      00FF61F0H   LINE      CODE     ---       #516
      00FF61F6H   LINE      CODE     ---       #518
      00FF620AH   LINE      CODE     ---       #519
      00FF6218H   LINE      CODE     ---       #520
      00FF621AH   LINE      CODE     ---       #523
      00FF6220H   LINE      CODE     ---       #524
      00FF6220H   LINE      CODE     ---       #525
      00FF6224H   LINE      CODE     ---       #526
      ---         BLOCKEND  ---      ---       LVL=0

      00FF4FC0H   BLOCK     CODE     ---       LVL=0
      0000043BH   SYMBOL    EDATA    ---       enables
      REG=3       REGSYM    ---      ---       timeouts
      00FF4FC8H   BLOCK     CODE     NEAR LAB  LVL=1
      0000043FH   SYMBOL    EDATA    ---       reg_buffer
      WR6         REGSYM    ---      WORD      reg16_buffer
      ---         BLOCKEND  ---      ---       LVL=1
      00FF4FC0H   LINE      CODE     ---       #536
      00FF4FC8H   LINE      CODE     ---       #537
      00FF4FC8H   LINE      CODE     ---       #539
      00FF4FC8H   LINE      CODE     ---       #541
      00FF4FD2H   LINE      CODE     ---       #543
      00FF4FE6H   LINE      CODE     ---       #544
      00FF4FF2H   LINE      CODE     ---       #545
      00FF5000H   LINE      CODE     ---       #547
      00FF5014H   LINE      CODE     ---       #548
      00FF5020H   LINE      CODE     ---       #549
      00FF5027H   LINE      CODE     ---       #550
      00FF5035H   LINE      CODE     ---       #552
      00FF5042H   LINE      CODE     ---       #554
      00FF5056H   LINE      CODE     ---       #555
      00FF5062H   LINE      CODE     ---       #556
      00FF5069H   LINE      CODE     ---       #558
      00FF5073H   LINE      CODE     ---       #560
      00FF5085H   LINE      CODE     ---       #561
      00FF5085H   LINE      CODE     ---       #563
      00FF5098H   LINE      CODE     ---       #564
      ---         BLOCKEND  ---      ---       LVL=0

      00FF5B74H   BLOCK     CODE     ---       LVL=0
      R10         REGSYM    ---      BYTE      vhv_init_byte
      00FF5B78H   BLOCK     CODE     NEAR LAB  LVL=1
      R15         REGSYM    ---      BYTE      return_state
      00000418H   SYMBOL    EDATA    BYTE      data_buffer
      00000419H   SYMBOL    EDATA    WORD      loop_count
      ---         BLOCKEND  ---      ---       LVL=1
      00FF5B74H   LINE      CODE     ---       #573
      00FF5B78H   LINE      CODE     ---       #574
      00FF5B78H   LINE      CODE     ---       #575
      00FF5B7AH   LINE      CODE     ---       #576
      00FF5B7FH   LINE      CODE     ---       #577
      00FF5B85H   LINE      CODE     ---       #578
      00FF5B85H   LINE      CODE     ---       #580
      00FF5B8FH   LINE      CODE     ---       #581
      00FF5B8FH   LINE      CODE     ---       #582
      00FF5B91H   LINE      CODE     ---       #584
      00FF5B9BH   LINE      CODE     ---       #586
L251 LINKER/LOCATER V4.66.93.0                                                        07/11/2024  19:40:54  PAGE 94


      00FF5B9EH   LINE      CODE     ---       #587
      00FF5BA0H   LINE      CODE     ---       #588
      00FF5BA0H   LINE      CODE     ---       #589
      00FF5BB2H   LINE      CODE     ---       #591
      00FF5BC6H   LINE      CODE     ---       #592
      00FF5BCEH   LINE      CODE     ---       #594
      00FF5BD2H   LINE      CODE     ---       #596
      00FF5BD2H   LINE      CODE     ---       #597
      00FF5BD2H   LINE      CODE     ---       #598
      00FF5BDDH   LINE      CODE     ---       #599
      00FF5BE6H   LINE      CODE     ---       #600
      00FF5BE6H   LINE      CODE     ---       #602
      00FF5BE8H   LINE      CODE     ---       #603
      ---         BLOCKEND  ---      ---       LVL=0

      00FF4DFCH   BLOCK     CODE     ---       LVL=0
      DR12        REGSYM    ---      DWORD     budget_us
      00FF4E00H   BLOCK     CODE     NEAR LAB  LVL=1
      00000418H   SYMBOL    EDATA    BYTE      return_state
      00000419H   SYMBOL    EDATA    ---       data_buffer
      WR6         REGSYM    ---      WORD      dat
      0000041CH   SYMBOL    EDATA    DWORD     used_budget_us
      DR4         REGSYM    ---      DWORD     final_range_timeout_us
      WR6         REGSYM    ---      WORD      final_range_timeout_mclks
      00000420H   SYMBOL    EDATA    ---       enables
      00000425H   SYMBOL    EDATA    ---       timeouts
      ---         BLOCKEND  ---      ---       LVL=1
      00FF4DFCH   LINE      CODE     ---       #616
      00FF4E00H   LINE      CODE     ---       #617
      00FF4E00H   LINE      CODE     ---       #618
      00FF4E05H   LINE      CODE     ---       #620
      00FF4E05H   LINE      CODE     ---       #628
      00FF4E05H   LINE      CODE     ---       #630
      00FF4E0BH   LINE      CODE     ---       #632
      00FF4E0BH   LINE      CODE     ---       #633
      00FF4E0EH   LINE      CODE     ---       #634
      00FF4E0EH   LINE      CODE     ---       #636
      00FF4E16H   LINE      CODE     ---       #637
      00FF4E1DH   LINE      CODE     ---       #638
      00FF4E28H   LINE      CODE     ---       #640
      00FF4E2EH   LINE      CODE     ---       #642
      00FF4E3EH   LINE      CODE     ---       #643
      00FF4E3EH   LINE      CODE     ---       #645
      00FF4E44H   LINE      CODE     ---       #647
      00FF4E50H   LINE      CODE     ---       #648
      00FF4E52H   LINE      CODE     ---       #649
      00FF4E58H   LINE      CODE     ---       #651
      00FF4E6AH   LINE      CODE     ---       #652
      00FF4E6AH   LINE      CODE     ---       #654
      00FF4E70H   LINE      CODE     ---       #656
      00FF4E82H   LINE      CODE     ---       #657
      00FF4E82H   LINE      CODE     ---       #659
      00FF4E88H   LINE      CODE     ---       #664
      00FF4E94H   LINE      CODE     ---       #665
      00FF4E9CH   LINE      CODE     ---       #668
      00FF4EA2H   LINE      CODE     ---       #669
      00FF4EA4H   LINE      CODE     ---       #670
      00FF4EA4H   LINE      CODE     ---       #675
      00FF4EA8H   LINE      CODE     ---       #676
      00FF4EAFH   LINE      CODE     ---       #680
      00FF4EB5H   LINE      CODE     ---       #682
      00FF4EBBH   LINE      CODE     ---       #683
      00FF4EBBH   LINE      CODE     ---       #685
      00FF4EBEH   LINE      CODE     ---       #686
      00FF4EC4H   LINE      CODE     ---       #687
L251 LINKER/LOCATER V4.66.93.0                                                        07/11/2024  19:40:54  PAGE 95


      00FF4EC8H   LINE      CODE     ---       #688
      00FF4ECCH   LINE      CODE     ---       #689
      00FF4ED9H   LINE      CODE     ---       #690
      00FF4ED9H   LINE      CODE     ---       #692
      00FF4EDDH   LINE      CODE     ---       #693
      ---         BLOCKEND  ---      ---       LVL=0

      00FF5C61H   BLOCK     CODE     ---       LVL=0
      00FF5C63H   BLOCK     CODE     NEAR LAB  LVL=1
      00000418H   SYMBOL    EDATA    ---       enables
      0000041DH   SYMBOL    EDATA    ---       timeouts
      DR12        REGSYM    ---      DWORD     budget_us
      ---         BLOCKEND  ---      ---       LVL=1
      00FF5C61H   LINE      CODE     ---       #702
      00FF5C63H   LINE      CODE     ---       #703
      00FF5C63H   LINE      CODE     ---       #708
      00FF5C67H   LINE      CODE     ---       #710
      00FF5C6EH   LINE      CODE     ---       #711
      00FF5C79H   LINE      CODE     ---       #713
      00FF5C7FH   LINE      CODE     ---       #715
      00FF5C8BH   LINE      CODE     ---       #716
      00FF5C8BH   LINE      CODE     ---       #718
      00FF5C91H   LINE      CODE     ---       #720
      00FF5C9DH   LINE      CODE     ---       #721
      00FF5C9FH   LINE      CODE     ---       #722
      00FF5CA5H   LINE      CODE     ---       #724
      00FF5CAFH   LINE      CODE     ---       #725
      00FF5CAFH   LINE      CODE     ---       #727
      00FF5CB5H   LINE      CODE     ---       #729
      00FF5CBFH   LINE      CODE     ---       #730
      00FF5CBFH   LINE      CODE     ---       #732
      00FF5CC5H   LINE      CODE     ---       #734
      00FF5CCFH   LINE      CODE     ---       #735
      00FF5CCFH   LINE      CODE     ---       #737
      00FF5CD1H   LINE      CODE     ---       #738
      ---         BLOCKEND  ---      ---       LVL=0

      00FF6896H   BLOCK     CODE     ---       LVL=0
      DR4         REGSYM    ---      FLOAT     limit_mcps
      00000418H   SYMBOL    EDATA    ---       data_buffer
      WR6         REGSYM    ---      WORD      limit_mcps_16bit
      00FF6896H   LINE      CODE     ---       #751
      00FF6896H   LINE      CODE     ---       #752
      00FF6896H   LINE      CODE     ---       #754
      00FF68A2H   LINE      CODE     ---       #758
      00FF68A8H   LINE      CODE     ---       #759
      00FF68ACH   LINE      CODE     ---       #760
      00FF68B0H   LINE      CODE     ---       #762
      ---         BLOCKEND  ---      ---       LVL=0

      00FF5CD4H   BLOCK     CODE     ---       LVL=0
      00FF5CD6H   BLOCK     CODE     NEAR LAB  LVL=1
      000003FAH   SYMBOL    EDATA    ---       reg_databuffer
      WR14        REGSYM    ---      WORD      distance
      ---         BLOCKEND  ---      ---       LVL=1
      00FF5CD4H   LINE      CODE     ---       #774
      00FF5CD6H   LINE      CODE     ---       #775
      00FF5CD6H   LINE      CODE     ---       #778
      00FF5CEAH   LINE      CODE     ---       #779
      00FF5CF2H   LINE      CODE     ---       #781
      00FF5CF7H   LINE      CODE     ---       #782
      00FF5CF9H   LINE      CODE     ---       #786
      00FF5D0DH   LINE      CODE     ---       #787
      00FF5D1BH   LINE      CODE     ---       #788
      00FF5D21H   LINE      CODE     ---       #790
L251 LINKER/LOCATER V4.66.93.0                                                        07/11/2024  19:40:54  PAGE 96


      00FF5D27H   LINE      CODE     ---       #791
      00FF5D2BH   LINE      CODE     ---       #793
      00FF5D3AH   LINE      CODE     ---       #794
      00FF5D3EH   LINE      CODE     ---       #796
      00FF5D3EH   LINE      CODE     ---       #797
      ---         BLOCKEND  ---      ---       LVL=0

      00FF229EH   BLOCK     CODE     ---       LVL=0
      00FF22A2H   BLOCK     CODE     NEAR LAB  LVL=1
      00000406H   SYMBOL    EDATA    DWORD     measurement_timing_budget_us
      0000040AH   SYMBOL    EDATA    BYTE      stop_variable
      R15         REGSYM    ---      BYTE      return_state
      R14         REGSYM    ---      BYTE      reg_data_buffer
      0000040BH   SYMBOL    EDATA    ---       ref_spad_map
      00000411H   SYMBOL    EDATA    ---       data_buffer
      R13         REGSYM    ---      BYTE      i
      ---         BLOCKEND  ---      ---       LVL=1
      00FF229EH   LINE      CODE     ---       #808
      00FF22A2H   LINE      CODE     ---       #809
      00FF22A2H   LINE      CODE     ---       #810
      00FF22A2H   LINE      CODE     ---       #811
      00FF22A7H   LINE      CODE     ---       #812
      00FF22A9H   LINE      CODE     ---       #813
      00FF22A9H   LINE      CODE     ---       #816
      00FF22A9H   LINE      CODE     ---       #818
      00FF22B4H   LINE      CODE     ---       #819
      00FF22C0H   LINE      CODE     ---       #823
      00FF22C0H   LINE      CODE     ---       #832
      00FF22CAH   LINE      CODE     ---       #833
      00FF22D7H   LINE      CODE     ---       #835
      00FF22E1H   LINE      CODE     ---       #837
      00FF22ECH   LINE      CODE     ---       #838
      00FF22F7H   LINE      CODE     ---       #839
      00FF2300H   LINE      CODE     ---       #841
      00FF2314H   LINE      CODE     ---       #843
      00FF231EH   LINE      CODE     ---       #844
      00FF2328H   LINE      CODE     ---       #845
      00FF2332H   LINE      CODE     ---       #848
      00FF233CH   LINE      CODE     ---       #849
      00FF2349H   LINE      CODE     ---       #851
      00FF2352H   LINE      CODE     ---       #852
      00FF235DH   LINE      CODE     ---       #856
      00FF236AH   LINE      CODE     ---       #858
      00FF236DH   LINE      CODE     ---       #863
      00FF2378H   LINE      CODE     ---       #864
      00FF237BH   LINE      CODE     ---       #865
      00FF237BH   LINE      CODE     ---       #868
      00FF238FH   LINE      CODE     ---       #870
      00FF239AH   LINE      CODE     ---       #871
      00FF23A4H   LINE      CODE     ---       #872
      00FF23AFH   LINE      CODE     ---       #873
      00FF23B9H   LINE      CODE     ---       #874
      00FF23C4H   LINE      CODE     ---       #876
      00FF23D5H   LINE      CODE     ---       #877
      00FF23D7H   LINE      CODE     ---       #879
      00FF23E9H   LINE      CODE     ---       #884
      00FF2417H   LINE      CODE     ---       #885
      00FF2419H   LINE      CODE     ---       #886
      00FF243CH   LINE      CODE     ---       #888
      00FF2445H   LINE      CODE     ---       #889
      00FF244CH   LINE      CODE     ---       #892
      00FF2452H   LINE      CODE     ---       #893
      00FF2455H   LINE      CODE     ---       #895
      00FF245FH   LINE      CODE     ---       #896
      00FF2466H   LINE      CODE     ---       #897
L251 LINKER/LOCATER V4.66.93.0                                                        07/11/2024  19:40:54  PAGE 97


      00FF2473H   LINE      CODE     ---       #900
      00FF247EH   LINE      CODE     ---       #901
      00FF2487H   LINE      CODE     ---       #902
      00FF2491H   LINE      CODE     ---       #903
      00FF249BH   LINE      CODE     ---       #904
      00FF24A5H   LINE      CODE     ---       #905
      00FF24AFH   LINE      CODE     ---       #906
      00FF24BAH   LINE      CODE     ---       #907
      00FF24C5H   LINE      CODE     ---       #908
      00FF24CFH   LINE      CODE     ---       #909
      00FF24DAH   LINE      CODE     ---       #910
      00FF24E5H   LINE      CODE     ---       #911
      00FF24EFH   LINE      CODE     ---       #912
      00FF24FAH   LINE      CODE     ---       #913
      00FF2504H   LINE      CODE     ---       #914
      00FF250FH   LINE      CODE     ---       #915
      00FF2519H   LINE      CODE     ---       #916
      00FF2524H   LINE      CODE     ---       #917
      00FF252FH   LINE      CODE     ---       #918
      00FF253AH   LINE      CODE     ---       #919
      00FF2545H   LINE      CODE     ---       #920
      00FF254FH   LINE      CODE     ---       #921
      00FF2559H   LINE      CODE     ---       #922
      00FF2564H   LINE      CODE     ---       #923
      00FF256EH   LINE      CODE     ---       #924
      00FF2579H   LINE      CODE     ---       #925
      00FF2584H   LINE      CODE     ---       #926
      00FF258FH   LINE      CODE     ---       #927
      00FF2599H   LINE      CODE     ---       #928
      00FF25A3H   LINE      CODE     ---       #929
      00FF25ADH   LINE      CODE     ---       #930
      00FF25B7H   LINE      CODE     ---       #931
      00FF25C2H   LINE      CODE     ---       #932
      00FF25CDH   LINE      CODE     ---       #933
      00FF25D8H   LINE      CODE     ---       #934
      00FF25E3H   LINE      CODE     ---       #935
      00FF25EEH   LINE      CODE     ---       #936
      00FF25F8H   LINE      CODE     ---       #937
      00FF2602H   LINE      CODE     ---       #938
      00FF260DH   LINE      CODE     ---       #939
      00FF2617H   LINE      CODE     ---       #940
      00FF2622H   LINE      CODE     ---       #941
      00FF262DH   LINE      CODE     ---       #942
      00FF2638H   LINE      CODE     ---       #943
      00FF2642H   LINE      CODE     ---       #944
      00FF264DH   LINE      CODE     ---       #945
      00FF2658H   LINE      CODE     ---       #946
      00FF2663H   LINE      CODE     ---       #947
      00FF266EH   LINE      CODE     ---       #948
      00FF2679H   LINE      CODE     ---       #949
      00FF2684H   LINE      CODE     ---       #950
      00FF268FH   LINE      CODE     ---       #951
      00FF2699H   LINE      CODE     ---       #952
      00FF26A4H   LINE      CODE     ---       #953
      00FF26AFH   LINE      CODE     ---       #954
      00FF26BAH   LINE      CODE     ---       #955
      00FF26C5H   LINE      CODE     ---       #956
      00FF26D0H   LINE      CODE     ---       #957
      00FF26DBH   LINE      CODE     ---       #958
      00FF26E6H   LINE      CODE     ---       #959
      00FF26F0H   LINE      CODE     ---       #960
      00FF26FAH   LINE      CODE     ---       #961
      00FF2705H   LINE      CODE     ---       #962
      00FF2710H   LINE      CODE     ---       #963
      00FF271BH   LINE      CODE     ---       #964
L251 LINKER/LOCATER V4.66.93.0                                                        07/11/2024  19:40:54  PAGE 98


      00FF2725H   LINE      CODE     ---       #965
      00FF2730H   LINE      CODE     ---       #966
      00FF273BH   LINE      CODE     ---       #967
      00FF2746H   LINE      CODE     ---       #968
      00FF2750H   LINE      CODE     ---       #969
      00FF275AH   LINE      CODE     ---       #970
      00FF2765H   LINE      CODE     ---       #971
      00FF2770H   LINE      CODE     ---       #972
      00FF277AH   LINE      CODE     ---       #973
      00FF2785H   LINE      CODE     ---       #974
      00FF2790H   LINE      CODE     ---       #975
      00FF279BH   LINE      CODE     ---       #976
      00FF27A6H   LINE      CODE     ---       #977
      00FF27B0H   LINE      CODE     ---       #978
      00FF27BAH   LINE      CODE     ---       #979
      00FF27C4H   LINE      CODE     ---       #982
      00FF27CFH   LINE      CODE     ---       #983
      00FF27D9H   LINE      CODE     ---       #984
      00FF27E6H   LINE      CODE     ---       #985
      00FF27F1H   LINE      CODE     ---       #987
      00FF27F8H   LINE      CODE     ---       #992
      00FF2803H   LINE      CODE     ---       #993
      00FF280AH   LINE      CODE     ---       #996
      00FF2815H   LINE      CODE     ---       #997
      00FF281CH   LINE      CODE     ---       #999
      00FF281CH   LINE      CODE     ---       #1000
      00FF281EH   LINE      CODE     ---       #1001
      00FF281EH   LINE      CODE     ---       #1002
      00FF2829H   LINE      CODE     ---       #1003
      00FF282FH   LINE      CODE     ---       #1005
      00FF2832H   LINE      CODE     ---       #1006
      00FF2834H   LINE      CODE     ---       #1007
      00FF2834H   LINE      CODE     ---       #1008
      00FF283FH   LINE      CODE     ---       #1010
      00FF2846H   LINE      CODE     ---       #1012
      00FF2851H   LINE      CODE     ---       #1013
      00FF285CH   LINE      CODE     ---       #1014
      00FF2865H   LINE      CODE     ---       #1015
      00FF2871H   LINE      CODE     ---       #1016
      00FF287BH   LINE      CODE     ---       #1017
      00FF2885H   LINE      CODE     ---       #1018
      00FF288FH   LINE      CODE     ---       #1020
      00FF2899H   LINE      CODE     ---       #1021
      00FF2899H   LINE      CODE     ---       #1023
      00FF289BH   LINE      CODE     ---       #1024
      ---         BLOCKEND  ---      ---       LVL=0

      ---         MODULE    ---      ---       Element
      00FF562DH   PUBLIC    CODE     ---       Elem_Barrier_Timer
      00FF63BFH   PUBLIC    CODE     ---       Elem_Up_Down
      00FF3F3AH   PUBLIC    CODE     ---       Elem_Circle
      000006E8H   PUBLIC    EDATA    CHAR      Special_Elem
      000006E9H   PUBLIC    EDATA    CHAR      Barrier_Flag1
      000006EAH   PUBLIC    EDATA    INT       Circle_Delay2
      000006ECH   PUBLIC    EDATA    FLOAT     Circle_Flag1
      000006F0H   PUBLIC    EDATA    FLOAT     Circle_Flag2
      000006F4H   PUBLIC    EDATA    CHAR      Circle_Flag3
      000006F5H   PUBLIC    EDATA    CHAR      Barrier_Executed
      000006F6H   PUBLIC    EDATA    CHAR      Down_Flag
      000006F7H   PUBLIC    EDATA    INT       circle_Delay1
      000000D0H   SFRSYM    DATA     BYTE      PSW
      000000B7H   SFRSYM    DATA     BYTE      IPH
      00000088H   SFRSYM    DATA     BYTE      TCON
      00000098H   SFRSYM    DATA     BYTE      SCON
      000000BCH   SFRSYM    DATA     BYTE      ADC_CONTR
L251 LINKER/LOCATER V4.66.93.0                                                        07/11/2024  19:40:54  PAGE 99


      000000DEH   SFRSYM    DATA     BYTE      ADCCFG
      000000B8H   SFRSYM    DATA     BYTE      IP
      000000A8H   SFRSYM    DATA     BYTE      IE
      000000F8H   SFRSYM    DATA     BYTE      P7
      000000E8H   SFRSYM    DATA     BYTE      P6
      000000C8H   SFRSYM    DATA     BYTE      P5
      000000C0H   SFRSYM    DATA     BYTE      P4
      000000B0H   SFRSYM    DATA     BYTE      P3
      000000A0H   SFRSYM    DATA     BYTE      P2
      00000090H   SFRSYM    DATA     BYTE      P1
      00000080H   SFRSYM    DATA     BYTE      P0

      00FF63BFH   BLOCK     CODE     ---       LVL=0
      DR28        REGSYM    ---      FLOAT     Angle
      00FF63C1H   BLOCK     CODE     NEAR LAB  LVL=1
      000006F9H   SYMBOL    EDATA    CHAR      Elem_Over
      ---         BLOCKEND  ---      ---       LVL=1
      00FF63BFH   LINE      CODE     ---       #31
      00FF63C1H   LINE      CODE     ---       #32
      00FF63C1H   LINE      CODE     ---       #34
      00FF63CCH   LINE      CODE     ---       #35
      00FF63D7H   LINE      CODE     ---       #36
      00FF63E4H   LINE      CODE     ---       #38
      00FF63EAH   LINE      CODE     ---       #39
      00FF63F0H   LINE      CODE     ---       #41
      00FF63F6H   LINE      CODE     ---       #42
      00FF63FFH   LINE      CODE     ---       #43
      00FF63FFH   LINE      CODE     ---       #46
      ---         BLOCKEND  ---      ---       LVL=0

      00FF562DH   BLOCK     CODE     ---       LVL=0
      000006FAH   SYMBOL    EDATA    FLOAT     Barrier_Timer
      00FF562DH   LINE      CODE     ---       #52
      00FF562DH   LINE      CODE     ---       #53
      00FF562DH   LINE      CODE     ---       #77
      00FF5639H   LINE      CODE     ---       #79
      00FF5643H   LINE      CODE     ---       #80
      00FF5654H   LINE      CODE     ---       #81
      00FF5667H   LINE      CODE     ---       #82
      00FF5671H   LINE      CODE     ---       #83
      00FF5687H   LINE      CODE     ---       #84
      00FF5691H   LINE      CODE     ---       #86
      00FF56A4H   LINE      CODE     ---       #87
      00FF56A8H   LINE      CODE     ---       #89
      00FF56ADH   LINE      CODE     ---       #90
      00FF56B3H   LINE      CODE     ---       #91
      00FF56B8H   LINE      CODE     ---       #92
      00FF56B9H   LINE      CODE     ---       #95
      00FF56C3H   LINE      CODE     ---       #98
      ---         BLOCKEND  ---      ---       LVL=0

      00FF3F3AH   BLOCK     CODE     ---       LVL=0
      DR24        REGSYM    ---      FLOAT     Speed
      DR28        REGSYM    ---      FLOAT     Gyro_Z
      00FF3F40H   BLOCK     CODE     NEAR LAB  LVL=1
      000006FEH   SYMBOL    EDATA    CHAR      Elem_Over
      000006FFH   SYMBOL    EDATA    FLOAT     Sum_Dis1
      00000703H   SYMBOL    EDATA    FLOAT     Sum_Angle_C1
      ---         BLOCKEND  ---      ---       LVL=1
      00FF3F3AH   LINE      CODE     ---       #102
      00FF3F40H   LINE      CODE     ---       #103
      00FF3F40H   LINE      CODE     ---       #107
      00FF3F4AH   LINE      CODE     ---       #109
      00FF3F50H   LINE      CODE     ---       #110
      00FF3F54H   LINE      CODE     ---       #111
L251 LINKER/LOCATER V4.66.93.0                                                        07/11/2024  19:40:54  PAGE 100


      00FF3F5DH   LINE      CODE     ---       #112
      00FF3F6EH   LINE      CODE     ---       #113
      00FF3F73H   LINE      CODE     ---       #114
      00FF3F86H   LINE      CODE     ---       #115
      00FF3F8EH   LINE      CODE     ---       #116
      00FF3F91H   LINE      CODE     ---       #117
      00FF3F91H   LINE      CODE     ---       #119
      00FF3FA5H   LINE      CODE     ---       #121
      00FF3FBBH   LINE      CODE     ---       #122
      00FF3FD1H   LINE      CODE     ---       #124
      00FF3FE9H   LINE      CODE     ---       #126
      00FF4012H   LINE      CODE     ---       #128
      00FF4016H   LINE      CODE     ---       #129
      00FF4016H   LINE      CODE     ---       #130
      00FF4018H   LINE      CODE     ---       #131
      00FF403BH   LINE      CODE     ---       #133
      00FF4045H   LINE      CODE     ---       #134
      00FF404DH   LINE      CODE     ---       #135
      00FF404DH   LINE      CODE     ---       #137
      00FF405AH   LINE      CODE     ---       #139
      00FF4074H   LINE      CODE     ---       #141
      00FF407CH   LINE      CODE     ---       #142
      00FF407EH   LINE      CODE     ---       #143
      00FF4098H   LINE      CODE     ---       #145
      00FF40A4H   LINE      CODE     ---       #146
      00FF40A6H   LINE      CODE     ---       #149
      00FF40B1H   LINE      CODE     ---       #151
      00FF40CFH   LINE      CODE     ---       #153
      00FF40FAH   LINE      CODE     ---       #155
      00FF4102H   LINE      CODE     ---       #156
      00FF4108H   LINE      CODE     ---       #157
      00FF410CH   LINE      CODE     ---       #158
      00FF4110H   LINE      CODE     ---       #159
      00FF4116H   LINE      CODE     ---       #161
      00FF411CH   LINE      CODE     ---       #162
      00FF4125H   LINE      CODE     ---       #163
      00FF4125H   LINE      CODE     ---       #165
      00FF4125H   LINE      CODE     ---       #166
      00FF4127H   LINE      CODE     ---       #169
      00FF412DH   LINE      CODE     ---       #170
      00FF4131H   LINE      CODE     ---       #171
      00FF4135H   LINE      CODE     ---       #172
      00FF4135H   LINE      CODE     ---       #173
      ---         BLOCKEND  ---      ---       LVL=0

      ---         MODULE    ---      ---       Buzzer
      00FF6AECH   PUBLIC    CODE     ---       Buzzer_Init
      00000762H   PUBLIC    EDATA    WORD      x10_ms
      000000D0H   SFRSYM    DATA     BYTE      PSW
      000000B7H   SFRSYM    DATA     BYTE      IPH
      00000088H   SFRSYM    DATA     BYTE      TCON
      00000098H   SFRSYM    DATA     BYTE      SCON
      000000BCH   SFRSYM    DATA     BYTE      ADC_CONTR
      000000DEH   SFRSYM    DATA     BYTE      ADCCFG
      000000B8H   SFRSYM    DATA     BYTE      IP
      000000A8H   SFRSYM    DATA     BYTE      IE
      000000F8H   SFRSYM    DATA     BYTE      P7
      000000E8H   SFRSYM    DATA     BYTE      P6
      000000C8H   SFRSYM    DATA     BYTE      P5
      000000C0H   SFRSYM    DATA     BYTE      P4
      000000B0H   SFRSYM    DATA     BYTE      P3
      000000A0H   SFRSYM    DATA     BYTE      P2
      00000090H   SFRSYM    DATA     BYTE      P1
      00000080H   SFRSYM    DATA     BYTE      P0

L251 LINKER/LOCATER V4.66.93.0                                                        07/11/2024  19:40:54  PAGE 101


      00FF6AECH   BLOCK     CODE     ---       LVL=0
      00FF6AECH   LINE      CODE     ---       #12
      00FF6AECH   LINE      CODE     ---       #14
      ---         BLOCKEND  ---      ---       LVL=0

      ---         MODULE    ---      ---       Key
      00FF68E2H   PUBLIC    CODE     ---       Key_Init
      00FF5BEBH   PUBLIC    CODE     ---       GetKey_Value
      0000075DH   PUBLIC    EDATA    CHAR      Mode
      0000075EH   PUBLIC    EDATA    CHAR      clear_Num
      000000D0H   SFRSYM    DATA     BYTE      PSW
      000000B7H   SFRSYM    DATA     BYTE      IPH
      000000F8H.3 SFRSYM    DATA     BIT       P73
      000000F8H.2 SFRSYM    DATA     BIT       P72
      000000F8H.1 SFRSYM    DATA     BIT       P71
      000000F8H.0 SFRSYM    DATA     BIT       P70
      00000088H   SFRSYM    DATA     BYTE      TCON
      00000098H   SFRSYM    DATA     BYTE      SCON
      000000BCH   SFRSYM    DATA     BYTE      ADC_CONTR
      000000DEH   SFRSYM    DATA     BYTE      ADCCFG
      000000B8H   SFRSYM    DATA     BYTE      IP
      000000A8H   SFRSYM    DATA     BYTE      IE
      000000F8H   SFRSYM    DATA     BYTE      P7
      000000E8H   SFRSYM    DATA     BYTE      P6
      000000C8H   SFRSYM    DATA     BYTE      P5
      000000C0H   SFRSYM    DATA     BYTE      P4
      000000B0H   SFRSYM    DATA     BYTE      P3
      000000A0H   SFRSYM    DATA     BYTE      P2
      00000090H   SFRSYM    DATA     BYTE      P1
      00000080H   SFRSYM    DATA     BYTE      P0

      00FF68E2H   BLOCK     CODE     ---       LVL=0
      00FF68E2H   LINE      CODE     ---       #12
      00FF68E2H   LINE      CODE     ---       #15
      00FF68EBH   LINE      CODE     ---       #16
      00FF68F4H   LINE      CODE     ---       #17
      00FF68FDH   LINE      CODE     ---       #18
      ---         BLOCKEND  ---      ---       LVL=0

      00FF5BEBH   BLOCK     CODE     ---       LVL=0
      R7          REGSYM    ---      BYTE      mode
      00FF5BEDH   BLOCK     CODE     NEAR LAB  LVL=1
      0000075FH   SYMBOL    EDATA    BYTE      key_up
      ---         BLOCKEND  ---      ---       LVL=1
      00FF5BEBH   LINE      CODE     ---       #30
      00FF5BEDH   LINE      CODE     ---       #31
      00FF5BEDH   LINE      CODE     ---       #33
      00FF5BF1H   LINE      CODE     ---       #34
      00FF5BF7H   LINE      CODE     ---       #35
      00FF5C15H   LINE      CODE     ---       #38
      00FF5C1AH   LINE      CODE     ---       #39
      00FF5C22H   LINE      CODE     ---       #40
      00FF5C2BH   LINE      CODE     ---       #41
      00FF5C34H   LINE      CODE     ---       #42
      00FF5C3DH   LINE      CODE     ---       #43
      00FF5C3DH   LINE      CODE     ---       #44
      00FF5C59H   LINE      CODE     ---       #45
      00FF5C5FH   LINE      CODE     ---       #46
      00FF5C60H   LINE      CODE     ---       #47
      ---         BLOCKEND  ---      ---       LVL=0

      ---         MODULE    ---      ---       UI
      00FF6BF6H   PUBLIC    CODE     ---       ui_show
      00FF637DH   PUBLIC    CODE     ---       oled_all_static_state
      00FF4C24H   PUBLIC    CODE     ---       value_name_init
L251 LINKER/LOCATER V4.66.93.0                                                        07/11/2024  19:40:54  PAGE 102


      00FF62F8H   PUBLIC    CODE     ---       oled_show
      00FF5592H   PUBLIC    CODE     ---       refresh_value
      00FF6BBEH   PUBLIC    CODE     ---       ui_init
      00000008H   PUBLIC    EDATA    CHAR      page
      00000009H   PUBLIC    EDATA    ---       value
      00000079H   PUBLIC    EDATA    ---       value_name
      000000D0H   SFRSYM    DATA     BYTE      PSW
      000000B7H   SFRSYM    DATA     BYTE      IPH
      00000088H   SFRSYM    DATA     BYTE      TCON
      00000098H   SFRSYM    DATA     BYTE      SCON
      000000BCH   SFRSYM    DATA     BYTE      ADC_CONTR
      000000DEH   SFRSYM    DATA     BYTE      ADCCFG
      000000B8H   SFRSYM    DATA     BYTE      IP
      000000A8H   SFRSYM    DATA     BYTE      IE
      000000F8H   SFRSYM    DATA     BYTE      P7
      000000E8H   SFRSYM    DATA     BYTE      P6
      000000C8H   SFRSYM    DATA     BYTE      P5
      000000C0H   SFRSYM    DATA     BYTE      P4
      000000B0H   SFRSYM    DATA     BYTE      P3
      000000A0H   SFRSYM    DATA     BYTE      P2
      00000090H   SFRSYM    DATA     BYTE      P1
      00000080H   SFRSYM    DATA     BYTE      P0

      00FF4C24H   BLOCK     CODE     ---       LVL=0
      00FF4C24H   LINE      CODE     ---       #22
      00FF4C24H   LINE      CODE     ---       #25
      00FF4C33H   LINE      CODE     ---       #26
      00FF4C42H   LINE      CODE     ---       #27
      00FF4C51H   LINE      CODE     ---       #28
      00FF4C60H   LINE      CODE     ---       #32
      00FF4C6FH   LINE      CODE     ---       #33
      00FF4C7EH   LINE      CODE     ---       #34
      00FF4C8DH   LINE      CODE     ---       #35
      00FF4C9CH   LINE      CODE     ---       #39
      00FF4CABH   LINE      CODE     ---       #40
      00FF4CBAH   LINE      CODE     ---       #41
      00FF4CC9H   LINE      CODE     ---       #42
      00FF4CD8H   LINE      CODE     ---       #45
      00FF4CE7H   LINE      CODE     ---       #46
      00FF4CF6H   LINE      CODE     ---       #47
      00FF4D05H   LINE      CODE     ---       #48
      ---         BLOCKEND  ---      ---       LVL=0

      00FF5592H   BLOCK     CODE     ---       LVL=0
      00FF5592H   LINE      CODE     ---       #52
      00FF5592H   LINE      CODE     ---       #55
      00FF559AH   LINE      CODE     ---       #57
      00FF55A2H   LINE      CODE     ---       #58
      00FF55AAH   LINE      CODE     ---       #59
      00FF55B2H   LINE      CODE     ---       #60
      00FF55BAH   LINE      CODE     ---       #61
      00FF55BBH   LINE      CODE     ---       #62
      00FF55BFH   LINE      CODE     ---       #65
      00FF55C7H   LINE      CODE     ---       #66
      00FF55CFH   LINE      CODE     ---       #67
      00FF55D7H   LINE      CODE     ---       #68
      00FF55DFH   LINE      CODE     ---       #69
      00FF55E0H   LINE      CODE     ---       #70
      00FF55E4H   LINE      CODE     ---       #73
      00FF55ECH   LINE      CODE     ---       #74
      00FF55F4H   LINE      CODE     ---       #75
      00FF55FCH   LINE      CODE     ---       #76
      00FF5609H   LINE      CODE     ---       #77
      00FF560AH   LINE      CODE     ---       #78
      00FF560EH   LINE      CODE     ---       #81
L251 LINKER/LOCATER V4.66.93.0                                                        07/11/2024  19:40:54  PAGE 103


      00FF5616H   LINE      CODE     ---       #82
      00FF561EH   LINE      CODE     ---       #83
      00FF5626H   LINE      CODE     ---       #84
      00FF562CH   LINE      CODE     ---       #85
      ---         BLOCKEND  ---      ---       LVL=0
      WR30        REGSYM    ---      INT       pages
      WR8         REGSYM    ---      INT       y
      DR24        REGSYM    ---      FLOAT     value_new

      00FF637DH   BLOCK     CODE     ---       LVL=0
      00FF637FH   BLOCK     CODE     NEAR LAB  LVL=1
      R14         REGSYM    ---      BYTE      i
      R15         REGSYM    ---      BYTE      j
      ---         BLOCKEND  ---      ---       LVL=1
      00FF637DH   LINE      CODE     ---       #96
      00FF637FH   LINE      CODE     ---       #97
      00FF637FH   LINE      CODE     ---       #105
      00FF6381H   LINE      CODE     ---       #107
      00FF6387H   LINE      CODE     ---       #108
      00FF63A6H   LINE      CODE     ---       #109
      00FF63B5H   LINE      CODE     ---       #110
      00FF63BCH   LINE      CODE     ---       #111
      ---         BLOCKEND  ---      ---       LVL=0

      00FF62F8H   BLOCK     CODE     ---       LVL=0
      00FF62FAH   BLOCK     CODE     NEAR LAB  LVL=1
      R14         REGSYM    ---      BYTE      i
      R15         REGSYM    ---      BYTE      j
      ---         BLOCKEND  ---      ---       LVL=1
      00FF62F8H   LINE      CODE     ---       #114
      00FF62FAH   LINE      CODE     ---       #115
      00FF62FAH   LINE      CODE     ---       #117
      00FF62FDH   LINE      CODE     ---       #118
      00FF62FFH   LINE      CODE     ---       #120
      00FF6305H   LINE      CODE     ---       #121
      00FF6331H   LINE      CODE     ---       #122
      00FF6338H   LINE      CODE     ---       #123
      ---         BLOCKEND  ---      ---       LVL=0

      00FF6BBEH   BLOCK     CODE     ---       LVL=0
      00FF6BBEH   LINE      CODE     ---       #126
      00FF6BBEH   LINE      CODE     ---       #128
      00FF6BC1H   LINE      CODE     ---       #129
      00FF6BC4H   LINE      CODE     ---       #130
      ---         BLOCKEND  ---      ---       LVL=0

      00FF6BF6H   BLOCK     CODE     ---       LVL=0
      00FF6BF6H   LINE      CODE     ---       #133
      00FF6BF6H   LINE      CODE     ---       #135
      00FF6BF9H   LINE      CODE     ---       #136
      ---         BLOCKEND  ---      ---       LVL=0

      ---         MODULE    ---      ---       HCSR04
      0000071BH   PUBLIC    EDATA    INT       time
      000000D0H   SFRSYM    DATA     BYTE      PSW
      000000B7H   SFRSYM    DATA     BYTE      IPH
      000000B0H.3 SFRSYM    DATA     BIT       P33
      00000088H   SFRSYM    DATA     BYTE      TCON
      000000B0H.2 SFRSYM    DATA     BIT       P32
      00000098H   SFRSYM    DATA     BYTE      SCON
      000000BCH   SFRSYM    DATA     BYTE      ADC_CONTR
      000000DEH   SFRSYM    DATA     BYTE      ADCCFG
      000000B8H   SFRSYM    DATA     BYTE      IP
      000000A8H   SFRSYM    DATA     BYTE      IE
      000000F8H   SFRSYM    DATA     BYTE      P7
L251 LINKER/LOCATER V4.66.93.0                                                        07/11/2024  19:40:54  PAGE 104


      000000E8H   SFRSYM    DATA     BYTE      P6
      000000C8H   SFRSYM    DATA     BYTE      P5
      000000C0H   SFRSYM    DATA     BYTE      P4
      000000B0H   SFRSYM    DATA     BYTE      P3
      000000A0H   SFRSYM    DATA     BYTE      P2
      00000090H   SFRSYM    DATA     BYTE      P1
      00000080H   SFRSYM    DATA     BYTE      P0
      0000071DH   SYMBOL    EDATA    FLOAT     Distance_mm
      00000721H   SYMBOL    EDATA    FLOAT     time_end
      00000725H   SYMBOL    EDATA    INT       i
      00000727H   SYMBOL    EDATA    INT       j

      ---         MODULE    ---      ---       ?C?FPADD
      00FF0EB4H   PUBLIC    CODE     ---       ?C?FPADD
      00FF0EB1H   PUBLIC    CODE     ---       ?C?FPSUB

      ---         MODULE    ---      ---       ?C?FPMUL
      00FF0F6CH   PUBLIC    CODE     ---       ?C?FPMUL

      ---         MODULE    ---      ---       ?C?FPDIV
      00FF100CH   PUBLIC    CODE     ---       ?C?FPDIV

      ---         MODULE    ---      ---       ?C?FPCMP
      00FF108FH   PUBLIC    CODE     ---       ?C?FPCMP
      00FF108DH   PUBLIC    CODE     ---       ?C?FPCMP3

      ---         MODULE    ---      ---       ?C?FPNEG
      00FF10D3H   PUBLIC    CODE     ---       ?C?FPNEG

      ---         MODULE    ---      ---       ?C?FCAST
      00FF10EBH   PUBLIC    CODE     NEAR LAB  ?C?FCASTC
      00FF10E6H   PUBLIC    CODE     NEAR LAB  ?C?FCASTI
      00FF10E1H   PUBLIC    CODE     NEAR LAB  ?C?FCASTL

      ---         MODULE    ---      ---       ?C?CASTF
      00FF111EH   PUBLIC    CODE     NEAR LAB  ?C?CASTF

      ---         MODULE    ---      ---       PRINTF
      00000440H   PUBLIC    EDATA    ---       ?PRINTF?BYTE
      00FF115BH   PUBLIC    CODE     NEAR LAB  PRINTF

      ---         MODULE    ---      ---       SQRT?_
      00FF1187H   PUBLIC    CODE     ---       SQRT?_

      ---         MODULE    ---      ---       ASIN?_
      00FF1217H   PUBLIC    CODE     ---       ASIN?_

      ---         MODULE    ---      ---       atan2
      00FF626FH   PUBLIC    CODE     ---       atan2?_

      ---         MODULE    ---      ---       ?C?FPGETOPN
      00FF1237H   PUBLIC    CODE     ---       ?C?FPGETOPN2
      00FF1274H   PUBLIC    CODE     ---       ?C?FPNANRESULT
      00FF127CH   PUBLIC    CODE     ---       ?C?FPOVERFLOW
      00FF1250H   PUBLIC    CODE     ---       ?C?FPRESULT
      00FF1266H   PUBLIC    CODE     ---       ?C?FPRESULT2
      00FF1279H   PUBLIC    CODE     ---       ?C?FPUNDERFLOW

      ---         MODULE    ---      ---       ?C?PRNFMT
      00FF12B5H   PUBLIC    CODE     ---       ?C?PRNFMT

      ---         MODULE    ---      ---       ATAN?_
      00FF16E4H   PUBLIC    CODE     ---       ATAN?_

      ---         MODULE    ---      ---       ?C?FPCONVERT
L251 LINKER/LOCATER V4.66.93.0                                                        07/11/2024  19:40:54  PAGE 105


      00FF17C4H   PUBLIC    CODE     ---       ?C?FPCONVERT
      00FF187CH   PUBLIC    CODE     ---       ?C?FPROUND

      ---         MODULE    ---      ---       ?C?FPSERIES
      00FF18BFH   PUBLIC    CODE     ---       ?C?FP2SERIES
      00FF18C8H   PUBLIC    CODE     ---       ?C?FPSERIES

      ---         MODULE    ---      ---       ?C?FTNPWR
      00FF191CH   PUBLIC    CODE     ---       ?C?FTNPWR

      ---         MODULE    ---      ---       ?C_START
      00FF0000H   PUBLIC    CODE     ---       ?C?STARTUP
      00FF0000H   PUBLIC    CODE     ---       ?C_STARTUP

      ---         MODULE    ---      ---       ?C?INITEDATA
      00FF6413H   PUBLIC    CODE     ---       ?C?INITEDATA

      ---         MODULE    ---      ---       ?C?SIDIV
      00FF1953H   PUBLIC    CODE     ---       ?C?SIDIV

      ---         MODULE    ---      ---       ?C?LMUL
      00FF1985H   PUBLIC    CODE     ---       ?C?LMUL

      ---         MODULE    ---      ---       ?C?LIMUL
      00FF1996H   PUBLIC    CODE     ---       ?C?LIMUL

      ---         MODULE    ---      ---       ?C?ULDIV
      00FF19A1H   PUBLIC    CODE     NEAR LAB  ?C?ULDIV
      00FF199FH   PUBLIC    CODE     NEAR LAB  ?C?ULIDIV

      ---         MODULE    ---      ---       ?C?SLDIV
      00FF19F2H   PUBLIC    CODE     NEAR LAB  ?C?SLDIV

      ---         MODULE    ---      ---       ABS
      00FF6B0DH   PUBLIC    CODE     ---       abs?_

      ---         MODULE    ---      ---       STRCPY?_
      00FF6AA4H   PUBLIC    CODE     NEAR LAB  STRCPY?_

      ---         MODULE    ---      ---       memcpy
      00FF68BDH   PUBLIC    CODE     ---       memcpy?_

      ---         MODULE    ---      ---       memset
      00FF69EAH   PUBLIC    CODE     ---       memset?_

      ---         MODULE    ---      ---       ?C?INITEDATA_END
      00FF6D9CH   PUBLIC    HCONST   WORD      ?C?INITEDATA_END

Program Size: data=8.0 edata+hdata=2140 xdata=0 const=700 code=27619
L251 RUN COMPLETE.  0 WARNING(S),  0 ERROR(S)
