L251 LINKER/LOCATER V4.66.93.0                                                          07/20/2024  17:24:57  PAGE 1


L251 LINKER/LOCATER V4.66.93.0, INVOKED BY:
D:\KEIL5\KEIL5_MDK\KEIL5_MDK_32\C251\BIN\L251.EXE .\Out_File\board.obj, .\Out_File\common.obj, .\Out_File\SEEKFREE_PRINT
>> F.obj, .\Out_File\zf_adc.obj, .\Out_File\zf_delay.obj, .\Out_File\zf_eeprom.obj, .\Out_File\zf_exti.obj, .\Out_File\z
>> f_gpio.obj, .\Out_File\zf_iic.obj, .\Out_File\zf_nvic.obj, .\Out_File\zf_pwm.obj, .\Out_File\zf_spi.obj, .\Out_File\z
>> f_tim.obj, .\Out_File\zf_uart.obj, .\Out_File\zf_fifo.obj, .\Out_File\SEEKFREE_18TFT.obj, .\Out_File\SEEKFREE_ABSOLUT
>> E_ENCODER.obj, .\Out_File\SEEKFREE_FONT.obj, .\Out_File\SEEKFREE_IIC.obj, .\Out_File\SEEKFREE_MPU6050.obj, .\Out_File
>> \SEEKFREE_OLED.obj, .\Out_File\SEEKFREE_AT24C02.obj, .\Out_File\SEEKFREE_BLUETOOTH_CH9141.obj, .\Out_File\SEEKFREE_IC
>> M20602.obj, .\Out_File\SEEKFREE_IPS114_SPI.obj, .\Out_File\SEEKFREE_TSL1401.obj, .\Out_File\SEEKFREE_VIRSCO.obj, .\Ou
>> t_File\SEEKFREE_WIRELESS.obj, .\Out_File\SEEKFREE_WIRELESS_CH573.obj, .\Out_File\isr.obj, .\Out_File\main.obj, .\Out_
>> File\motor.obj, .\Out_File\ADC.obj, .\Out_File\PID.obj, .\Out_File\MPU6050.obj, .\Out_File\TOF.obj, .\Out_File\Elemen
>> t.obj, .\Out_File\Buzzer.obj, .\Out_File\Key.obj, .\Out_File\UI.obj, .\Out_File\HCSR04.obj TO .\Out_File\SEEKFREE PRI
>> NT (.\Out_File\SEEKFREE.map) CASE DISABLEWARNING (16, 57) REMOVEUNUSED CLASSES (EDATA (0X0-0XFFF), HDATA (0X0-0XFFF))
>> 


CPU MODE:     251 SOURCE MODE
INTR FRAME:   2 BYTES SAVED ON INTERRUPT
MEMORY MODEL: XSMALL WITH FLOATING POINT ARITHMETIC


INPUT MODULES INCLUDED:
  .\Out_File\board.obj (board)
         COMMENT TYPE 0: C251 V5.60.0
  .\Out_File\common.obj (common)
         COMMENT TYPE 0: C251 V5.60.0
  .\Out_File\SEEKFREE_PRINTF.obj (SEEKFREE_PRINTF)
         COMMENT TYPE 0: C251 V5.60.0
  .\Out_File\zf_adc.obj (zf_adc)
         COMMENT TYPE 0: C251 V5.60.0
  .\Out_File\zf_delay.obj (zf_delay)
         COMMENT TYPE 0: C251 V5.60.0
  .\Out_File\zf_eeprom.obj (zf_eeprom)
         COMMENT TYPE 0: C251 V5.60.0
  .\Out_File\zf_exti.obj (zf_exti)
         COMMENT TYPE 0: C251 V5.60.0
  .\Out_File\zf_gpio.obj (zf_gpio)
         COMMENT TYPE 0: C251 V5.60.0
  .\Out_File\zf_iic.obj (zf_iic)
         COMMENT TYPE 0: C251 V5.60.0
  .\Out_File\zf_nvic.obj (zf_nvic)
         COMMENT TYPE 0: C251 V5.60.0
  .\Out_File\zf_pwm.obj (zf_pwm)
         COMMENT TYPE 0: C251 V5.60.0
  .\Out_File\zf_spi.obj (zf_spi)
         COMMENT TYPE 0: C251 V5.60.0
  .\Out_File\zf_tim.obj (zf_tim)
         COMMENT TYPE 0: C251 V5.60.0
  .\Out_File\zf_uart.obj (zf_uart)
         COMMENT TYPE 0: C251 V5.60.0
  .\Out_File\zf_fifo.obj (zf_fifo)
         COMMENT TYPE 0: C251 V5.60.0
  .\Out_File\SEEKFREE_18TFT.obj (SEEKFREE_18TFT)
         COMMENT TYPE 0: C251 V5.60.0
  .\Out_File\SEEKFREE_ABSOLUTE_ENCODER.obj (SEEKFREE_ABSOLUTE_ENCODER)
         COMMENT TYPE 0: C251 V5.60.0
  .\Out_File\SEEKFREE_FONT.obj (SEEKFREE_FONT)
         COMMENT TYPE 0: C251 V5.60.0
  .\Out_File\SEEKFREE_IIC.obj (SEEKFREE_IIC)
         COMMENT TYPE 0: C251 V5.60.0
  .\Out_File\SEEKFREE_MPU6050.obj (SEEKFREE_MPU6050)
         COMMENT TYPE 0: C251 V5.60.0
  .\Out_File\SEEKFREE_OLED.obj (SEEKFREE_OLED)
         COMMENT TYPE 0: C251 V5.60.0
  .\Out_File\SEEKFREE_AT24C02.obj (SEEKFREE_AT24C02)
         COMMENT TYPE 0: C251 V5.60.0
  .\Out_File\SEEKFREE_BLUETOOTH_CH9141.obj (SEEKFREE_BLUETOOTH_CH9141)
L251 LINKER/LOCATER V4.66.93.0                                                        07/20/2024  17:24:57  PAGE 2


         COMMENT TYPE 0: C251 V5.60.0
  .\Out_File\SEEKFREE_ICM20602.obj (SEEKFREE_ICM20602)
         COMMENT TYPE 0: C251 V5.60.0
  .\Out_File\SEEKFREE_IPS114_SPI.obj (SEEKFREE_IPS114_SPI)
         COMMENT TYPE 0: C251 V5.60.0
  .\Out_File\SEEKFREE_TSL1401.obj (SEEKFREE_TSL1401)
         COMMENT TYPE 0: C251 V5.60.0
  .\Out_File\SEEKFREE_VIRSCO.obj (SEEKFREE_VIRSCO)
         COMMENT TYPE 0: C251 V5.60.0
  .\Out_File\SEEKFREE_WIRELESS.obj (SEEKFREE_WIRELESS)
         COMMENT TYPE 0: C251 V5.60.0
  .\Out_File\SEEKFREE_WIRELESS_CH573.obj (SEEKFREE_WIRELESS_CH573)
         COMMENT TYPE 0: C251 V5.60.0
  .\Out_File\isr.obj (isr)
         COMMENT TYPE 0: C251 V5.60.0
  .\Out_File\main.obj (main)
         COMMENT TYPE 0: C251 V5.60.0
  .\Out_File\motor.obj (motor)
         COMMENT TYPE 0: C251 V5.60.0
  .\Out_File\ADC.obj (ADC)
         COMMENT TYPE 0: C251 V5.60.0
  .\Out_File\PID.obj (PID)
         COMMENT TYPE 0: C251 V5.60.0
  .\Out_File\MPU6050.obj (MPU6050)
         COMMENT TYPE 0: C251 V5.60.0
  .\Out_File\TOF.obj (TOF)
         COMMENT TYPE 0: C251 V5.60.0
  .\Out_File\Element.obj (Element)
         COMMENT TYPE 0: C251 V5.60.0
  .\Out_File\Buzzer.obj (Buzzer)
         COMMENT TYPE 0: C251 V5.60.0
  .\Out_File\Key.obj (Key)
         COMMENT TYPE 0: C251 V5.60.0
  .\Out_File\UI.obj (UI)
         COMMENT TYPE 0: C251 V5.60.0
  .\Out_File\HCSR04.obj (HCSR04)
         COMMENT TYPE 0: C251 V5.60.0
  D:\KEIL5\KEIL5_MDK\KEIL5_MDK_32\C251\LIB\C2SFPXS.LIB (?C?FPADD)
         COMMENT TYPE 0: A251 V4.69.6.0
  D:\KEIL5\KEIL5_MDK\KEIL5_MDK_32\C251\LIB\C2SFPXS.LIB (?C?FPMUL)
         COMMENT TYPE 0: A251 V4.69.6.0
  D:\KEIL5\KEIL5_MDK\KEIL5_MDK_32\C251\LIB\C2SFPXS.LIB (?C?FPDIV)
         COMMENT TYPE 0: A251 V4.69.6.0
  D:\KEIL5\KEIL5_MDK\KEIL5_MDK_32\C251\LIB\C2SFPXS.LIB (?C?FPCMP)
         COMMENT TYPE 0: A251 V4.69.6.0
  D:\KEIL5\KEIL5_MDK\KEIL5_MDK_32\C251\LIB\C2SFPXS.LIB (?C?FPNEG)
         COMMENT TYPE 0: A251 V4.69.6.0
  D:\KEIL5\KEIL5_MDK\KEIL5_MDK_32\C251\LIB\C2SFPXS.LIB (?C?FCAST)
         COMMENT TYPE 0: A251 V4.69.6.0
  D:\KEIL5\KEIL5_MDK\KEIL5_MDK_32\C251\LIB\C2SFPXS.LIB (?C?CASTF)
         COMMENT TYPE 0: A251 V4.69.6.0
  D:\KEIL5\KEIL5_MDK\KEIL5_MDK_32\C251\LIB\C2SFPXS.LIB (PRINTF)
         COMMENT TYPE 0: A251 V4.69.6.0
  D:\KEIL5\KEIL5_MDK\KEIL5_MDK_32\C251\LIB\C2SFPXS.LIB (SQRT?_)
         COMMENT TYPE 0: A251 V4.69.6.0
  D:\KEIL5\KEIL5_MDK\KEIL5_MDK_32\C251\LIB\C2SFPXS.LIB (ASIN?_)
         COMMENT TYPE 0: A251 V4.69.6.0
  D:\KEIL5\KEIL5_MDK\KEIL5_MDK_32\C251\LIB\C2SFPXS.LIB (atan2)
         COMMENT TYPE 0: C251 V5.58.7
  D:\KEIL5\KEIL5_MDK\KEIL5_MDK_32\C251\LIB\C2SFPXS.LIB (?C?FPGETOPN)
         COMMENT TYPE 0: A251 V4.69.6.0
  D:\KEIL5\KEIL5_MDK\KEIL5_MDK_32\C251\LIB\C2SFPXS.LIB (?C?PRNFMT)
         COMMENT TYPE 0: A251 V4.69.6.0
  D:\KEIL5\KEIL5_MDK\KEIL5_MDK_32\C251\LIB\C2SFPXS.LIB (ATAN?_)
         COMMENT TYPE 0: A251 V4.69.6.0
L251 LINKER/LOCATER V4.66.93.0                                                        07/20/2024  17:24:57  PAGE 3


  D:\KEIL5\KEIL5_MDK\KEIL5_MDK_32\C251\LIB\C2SFPXS.LIB (?C?FPCONVERT)
         COMMENT TYPE 0: A251 V4.69.6.0
  D:\KEIL5\KEIL5_MDK\KEIL5_MDK_32\C251\LIB\C2SFPXS.LIB (?C?FPSERIES)
         COMMENT TYPE 0: A251 V4.69.6.0
  D:\KEIL5\KEIL5_MDK\KEIL5_MDK_32\C251\LIB\C2SFPXS.LIB (?C?FTNPWR)
         COMMENT TYPE 0: A251 V4.69.6.0
  D:\KEIL5\KEIL5_MDK\KEIL5_MDK_32\C251\LIB\C2SXS.LIB (?C_START)
         COMMENT TYPE 0: A251 V4.69.6.0
  D:\KEIL5\KEIL5_MDK\KEIL5_MDK_32\C251\LIB\C2SXS.LIB (?C?INITEDATA)
         COMMENT TYPE 0: A251 V4.69.6.0
  D:\KEIL5\KEIL5_MDK\KEIL5_MDK_32\C251\LIB\C2SXS.LIB (?C?SIDIV)
         COMMENT TYPE 0: A251 V4.69.6.0
  D:\KEIL5\KEIL5_MDK\KEIL5_MDK_32\C251\LIB\C2SXS.LIB (?C?LMUL)
         COMMENT TYPE 0: A251 V4.69.6.0
  D:\KEIL5\KEIL5_MDK\KEIL5_MDK_32\C251\LIB\C2SXS.LIB (?C?LIMUL)
         COMMENT TYPE 0: A251 V4.69.6.0
  D:\KEIL5\KEIL5_MDK\KEIL5_MDK_32\C251\LIB\C2SXS.LIB (?C?ULDIV)
         COMMENT TYPE 0: A251 V4.69.6.0
  D:\KEIL5\KEIL5_MDK\KEIL5_MDK_32\C251\LIB\C2SXS.LIB (?C?SLDIV)
         COMMENT TYPE 0: A251 V4.69.6.0
  D:\KEIL5\KEIL5_MDK\KEIL5_MDK_32\C251\LIB\C2SXS.LIB (ABS)
         COMMENT TYPE 0: C251 V5.58.7
  D:\KEIL5\KEIL5_MDK\KEIL5_MDK_32\C251\LIB\C2SXS.LIB (STRCPY?_)
         COMMENT TYPE 0: A251 V4.69.6.0
  D:\KEIL5\KEIL5_MDK\KEIL5_MDK_32\C251\LIB\C2SXS.LIB (memcpy)
         COMMENT TYPE 0: C251 V5.58.7
  D:\KEIL5\KEIL5_MDK\KEIL5_MDK_32\C251\LIB\C2SXS.LIB (memset)
         COMMENT TYPE 0: C251 V5.58.7
  D:\KEIL5\KEIL5_MDK\KEIL5_MDK_32\C251\LIB\C2SXS.LIB (?C?INITEDATA_END)
         COMMENT TYPE 0: A251 V4.69.6.0


ACTIVE MEMORY CLASSES OF MODULE:  .\Out_File\SEEKFREE (board)

BASE        START       END         USED      MEMORY CLASS
==========================================================
000000H     000000H     000FFFH     000861H   EDATA
000000H     000000H     000FFFH               HDATA
FF0000H     FF0000H     FFFFFFH     006D0EH   CODE
000000H     FF0000H     FFFFFFH     0002D8H   HCONST
FF0000H     FF0000H     FFFFFFH     000004H   CONST
000000H     000000H     00007FH     000008H   DATA


MEMORY MAP OF MODULE:  .\Out_File\SEEKFREE (board)


START     STOP      LENGTH    ALIGN  RELOC    MEMORY CLASS   SEGMENT NAME
=========================================================================
000000H   000007H   000008H   ---    AT..     DATA           "REG BANK 0"
000008H   00013CH   000135H   BYTE   UNIT     EDATA          ?ED?UI
00013DH   00023DH   000101H   BYTE   UNIT     EDATA          ?ED?SEEKFREE_TSL1401
00023EH   000320H   0000E3H   BYTE   UNIT     EDATA          ?ED?PID
000321H   0003EDH   0000CDH   BYTE   UNIT     EDATA          ?ED?ZF_UART
0003EEH   000490H   0000A3H   BYTE   UNIT     EDATA          _EDATA_GROUP_
000491H   0004FBH   00006BH   BYTE   UNIT     EDATA          ?ED?MPU6050
0004FCH   000564H   000069H   BYTE   UNIT     EDATA          ?ED?ISR
000565H   0005B9H   000055H   BYTE   UNIT     EDATA          ?ED?SEEKFREE_BLUETOOTH_CH9141
0005BAH   00060EH   000055H   BYTE   UNIT     EDATA          ?ED?SEEKFREE_WIRELESS
00060FH   000663H   000055H   BYTE   UNIT     EDATA          ?ED?SEEKFREE_WIRELESS_CH573
000664H   0006B3H   000050H   BYTE   UNIT     EDATA          ?ED?ADC
0006B4H   0006E6H   000033H   BYTE   UNIT     EDATA          ?ED?MAIN
0006E7H   00070BH   000025H   BYTE   UNIT     EDATA          ?ED?ELEMENT
00070CH   00071FH   000014H   BYTE   UNIT     EDATA          ?ED?MOTOR
000720H   00072DH   00000EH   BYTE   UNIT     EDATA          ?ED?HCSR04
L251 LINKER/LOCATER V4.66.93.0                                                        07/20/2024  17:24:57  PAGE 4


00072EH   000739H   00000CH   BYTE   UNIT     EDATA          ?ED?SEEKFREE_MPU6050
00073AH   000745H   00000CH   BYTE   UNIT     EDATA          ?ED?SEEKFREE_ICM20602
000746H   00074FH   00000AH   BYTE   UNIT     EDATA          ?ED?SEEKFREE_VIRSCO
000750H   000756H   000007H   BYTE   UNIT     EDATA          ?ED?SEEKFREE_IIC
000757H   00075AH   000004H   BYTE   UNIT     EDATA          ?ED?BOARD
00075BH   00075EH   000004H   BYTE   UNIT     EDATA          ?ED?ZF_DELAY
00075FH   000761H   000003H   BYTE   UNIT     EDATA          ?ED?TOF
000762H   000764H   000003H   BYTE   UNIT     EDATA          ?ED?KEY
000765H   000766H   000002H   BYTE   UNIT     EDATA          ?ED?COMMON
000767H   000768H   000002H   BYTE   UNIT     EDATA          ?ED?BUZZER
000769H   000868H   000100H   BYTE   UNIT     EDATA          ?STACK
000869H   FEFFFFH   FEF797H   ---    ---      **GAP**
FF0000H   FF0002H   000003H   ---    OFFS..   CODE           ?CO?start251?4
FF0003H   FF0005H   000003H   ---    OFFS..   CODE           ?PR?IV?0
FF0006H   FF000AH   000005H   BYTE   INSEG    CODE           ?PR?I2C_SDA_READ?MPU6050
FF000BH   FF000DH   000003H   ---    OFFS..   CODE           ?PR?IV?1
FF000EH   FF0010H   000003H   BYTE   INSEG    CODE           ?PR?ENABLEGLOBALIRQ?BOARD
FF0011H   FF0011H   000001H   BYTE   INSEG    CODE           ?PR?INT1_ISR?ISR
FF0012H   FF0012H   000001H   BYTE   INSEG    CODE           ?PR?TM0_ISR?ISR
FF0013H   FF0015H   000003H   ---    OFFS..   CODE           ?PR?IV?2
FF0016H   FF0018H   000003H   BYTE   INSEG    CODE           ?PR?DISABLEGLOBALIRQ?BOARD
FF0019H   FF0019H   000001H   BYTE   INSEG    CODE           ?PR?TM1_ISR?ISR
FF001AH   FF001AH   000001H   ---    ---      **GAP**
FF001BH   FF001DH   000003H   ---    OFFS..   CODE           ?PR?IV?3
FF001EH   FF0020H   000003H   BYTE   INSEG    CODE           ?PR?I2C_SDA_H?MPU6050
FF0021H   FF0022H   000002H   ---    ---      **GAP**
FF0023H   FF0025H   000003H   ---    OFFS..   CODE           ?PR?IV?4
FF0026H   FF0042H   00001DH   BYTE   INSEG    CODE           ?PR?GETFIFOCOUNT?MPU6050
FF0043H   FF0045H   000003H   ---    OFFS..   CODE           ?PR?IV?8
FF0046H   FF0052H   00000DH   BYTE   INSEG    CODE           ?PR?MPU_READ_BITS?MPU6050
FF0053H   FF0055H   000003H   ---    OFFS..   CODE           ?PR?IV?10
FF0056H   FF0058H   000003H   BYTE   INSEG    CODE           ?PR?I2C_SDA_L?MPU6050
FF0059H   FF005AH   000002H   ---    ---      **GAP**
FF005BH   FF005DH   000003H   ---    OFFS..   CODE           ?PR?IV?11
FF005EH   FF0060H   000003H   BYTE   INSEG    CODE           ?PR?I2C_SCL_H?MPU6050
FF0061H   FF0062H   000002H   ---    ---      **GAP**
FF0063H   FF0065H   000003H   ---    OFFS..   CODE           ?PR?IV?12
FF0066H   FF0081H   00001CH   BYTE   INSEG    CODE           ?PR?VL53L0X_SCCB_WAITACK?TOF
FF0082H   FF0082H   000001H   ---    ---      **GAP**
FF0083H   FF0085H   000003H   ---    OFFS..   CODE           ?PR?IV?16
FF0086H   FF0088H   000003H   BYTE   INSEG    CODE           ?PR?I2C_SCL_L?MPU6050
FF0089H   FF008AH   000002H   ---    ---      **GAP**
FF008BH   FF008DH   000003H   ---    OFFS..   CODE           ?PR?IV?17
FF008EH   FF0091H   000004H   BYTE   UNIT     CONST          ?CO?PRINTF
FF0092H   FF0092H   000001H   ---    ---      **GAP**
FF0093H   FF0095H   000003H   ---    OFFS..   CODE           ?PR?IV?18
FF0096H   FF009AH   000005H   ---    ---      **GAP**
FF009BH   FF009DH   000003H   ---    OFFS..   CODE           ?PR?IV?19
FF009EH   FF00A2H   000005H   ---    ---      **GAP**
FF00A3H   FF00A5H   000003H   ---    OFFS..   CODE           ?PR?IV?20
FF00A6H   FF0EADH   000E08H   BYTE   UNIT     CODE           ?CO?SEEKFREE_FONT
FF0EAEH   FF1A25H   000B78H   BYTE   UNIT     CODE           ?C?LIB_CODE
FF1A26H   FF229DH   000878H   BYTE   UNIT     CODE           ?CO?MPU6050
FF229EH   FF289FH   000602H   BYTE   INSEG    CODE           ?PR?VL53L0X_INIT?TOF
FF28A0H   FF2D99H   0004FAH   BYTE   INSEG    CODE           ?PR?ZF_SPRINTF?SEEKFREE_PRINTF
FF2D9AH   FF31A0H   000407H   BYTE   INSEG    CODE           ?PR?TM4_ISR?ISR
FF31A1H   FF3597H   0003F7H   BYTE   INSEG    CODE           ?PR?GPIO_MODE?ZF_GPIO
FF3598H   FF387BH   0002E4H   BYTE   INSEG    CODE           ?PR?PWM_INIT?ZF_PWM
FF387CH   FF3B1CH   0002A1H   BYTE   INSEG    CODE           ?PR?PWM_SET_GPIO?ZF_PWM
FF3B1DH   FF3DB6H   00029AH   BYTE   INSEG    CODE           ?PR?MPU6050_REFRESH_DMP?MPU6050
FF3DB7H   FF3FE2H   00022CH   BYTE   INSEG    CODE           ?PR?DMPINITIALIZE?MPU6050
FF3FE3H   FF41F4H   000212H   BYTE   INSEG    CODE           ?PR?ELEM_CIRCLE?ELEMENT
FF41F5H   FF43B3H   0001BFH   BYTE   INSEG    CODE           ?PR?UART_INIT?ZF_UART
FF43B4H   FF4560H   0001ADH   BYTE   INSEG    CODE           ?PR?MAIN?MAIN
FF4561H   FF46F6H   000196H   BYTE   INSEG    CODE           ?PR?PID_INCREMENTAL_CALC?PID
L251 LINKER/LOCATER V4.66.93.0                                                        07/20/2024  17:24:57  PAGE 5


FF46F7H   FF4872H   00017CH   BYTE   INSEG    CODE           ?PR?VL53L0X_GET_SPAD_INFO?TOF
FF4873H   FF49BDH   00014BH   BYTE   INSEG    CODE           ?PR?ADC_GETVALUE?ADC
FF49BEH   FF4AF4H   000137H   BYTE   INSEG    CODE           ?PR?GET_RATIO?ISR
FF4AF5H   FF4BF0H   0000FCH   BYTE   INSEG    CODE           ?PR?INIT_ALL?MAIN
FF4BF1H   FF4CEBH   0000FBH   BYTE   INSEG    CODE           ?PR?ELEM_BARRIER?ELEMENT
FF4CECH   FF4DE3H   0000F8H   BYTE   INSEG    CODE           ?PR?OLED_PRINTF_FLOAT?SEEKFREE_OLED
FF4DE4H   FF4ED3H   0000F0H   BYTE   INSEG    CODE           ?PR?VALUE_NAME_INIT?UI
FF4ED4H   FF4FBBH   0000E8H   BYTE   INSEG    CODE           ?PR?OLED_P8X16STR?SEEKFREE_OLED
FF4FBCH   FF509FH   0000E4H   BYTE   INSEG    CODE           ?PR?VL53L0X_SET_MEASUREMENT_TIMING_BUDGET?TOF
FF50A0H   FF517FH   0000E0H   BYTE   INSEG    CODE           ?PR?FIFO_WRITE_BUFFER?ZF_FIFO
FF5180H   FF525AH   0000DBH   BYTE   INSEG    CODE           ?PR?VL53L0X_GET_SEQUENCE_STEP_TIMEOUTS?TOF
FF525BH   FF5320H   0000C6H   BYTE   INSEG    CODE           ?PR?GET_SPEED?MOTOR
FF5321H   FF53DEH   0000BEH   BYTE   INSEG    CODE           ?PR?RIGHT_SETSPEED?MOTOR
FF53DFH   FF549CH   0000BEH   BYTE   INSEG    CODE           ?PR?LEFT_SETSPEED?MOTOR
FF549DH   FF5554H   0000B8H   BYTE   INSEG    CODE           ?PR?PWM_DUTY?ZF_PWM
FF5555H   FF55FEH   0000AAH   BYTE   INSEG    CODE           ?PR?PID_CALCULATE?PID
FF55FFH   FF56A4H   0000A6H   BYTE   INSEG    CODE           ?PR?LOADCFGUPD?MPU6050
FF56A5H   FF5747H   0000A3H   BYTE   INSEG    CODE           ?PR?OLED_INIT?SEEKFREE_OLED
FF5748H   FF57DDH   000096H   BYTE   INSEG    CODE           ?PR?REFRESH_VALUE?UI
FF57DEH   FF5871H   000094H   BYTE   INSEG    CODE           ?PR?PIT_TIMER_MS?ZF_TIM
FF5872H   FF5903H   000092H   BYTE   INSEG    CODE           ?PR?NUMBER_CONVERSION_ASCII?SEEKFREE_PRINTF
FF5904H   FF5990H   00008DH   BYTE   INSEG    CODE           ?PR?PID_INCREMENTAL_INIT?PID
FF5991H   FF5A1BH   00008BH   BYTE   INSEG    CODE           ?PR?XDMPUPDATES?MPU6050
FF5A1CH   FF5A9CH   000081H   BYTE   INSEG    CODE           ?PR?BOARD_INIT?BOARD
FF5A9DH   FF5B1DH   000081H   BYTE   INSEG    CODE           ?PR?LOADFIRMWARE?MPU6050
FF5B1EH   FF5B9AH   00007DH   BYTE   INSEG    CODE           ?PR?I2C_WRITE_BITS?MPU6050
FF5B9BH   FF5C14H   00007AH   BYTE   INSEG    CODE           ?PR?I2C_MEM_READ?MPU6050
FF5C15H   FF5C8DH   000079H   BYTE   INSEG    CODE           ?PR?SPEED_GAIN?MAIN
FF5C8EH   FF5D04H   000077H   BYTE   INSEG    CODE           ?PR?VL53L0X_PERFORM_SINGLE_REF_CALIBRATION?TOF
FF5D05H   FF5D7AH   000076H   BYTE   INSEG    CODE           ?PR?GETKEY_VALUE?KEY
FF5D7BH   FF5DEDH   000073H   BYTE   INSEG    CODE           ?PR?VL53L0X_GET_MEASUREMENT_TIMING_BUDGET?TOF
FF5DEEH   FF5E5AH   00006DH   BYTE   INSEG    CODE           ?PR?VL53L0X_GET_DISTANCE?TOF
FF5E5BH   FF5EC5H   00006BH   BYTE   INSEG    CODE           ?PR?I2C_READ_BITS?MPU6050
FF5EC6H   FF5F2EH   000069H   BYTE   INSEG    CODE           ?PR?UART4_ISR?ISR
FF5F2FH   FF5F8EH   000060H   BYTE   INSEG    CODE           ?PR?PID_INIT?PID
FF5F8FH   FF5FEDH   00005FH   BYTE   INSEG    CODE           ?PR?I2C_MEM_WRITE?MPU6050
FF5FEEH   FF604BH   00005EH   BYTE   INSEG    CODE           ?PR?ADC_INIT?ZF_ADC
FF604CH   FF60A7H   00005CH   BYTE   INSEG    CODE           ?PR?I2C_WRITE_BIT?MPU6050
FF60A8H   FF60FFH   000058H   BYTE   INSEG    CODE           ?PR?MPU_GET_GYROSCOPE?MPU6050
FF6100H   FF6157H   000058H   BYTE   INSEG    CODE           ?PR?VL53L0X_GET_SEQUENCE_STEP_ENABLES?TOF
FF6158H   FF61ABH   000054H   BYTE   INSEG    CODE           ?PR?UART_PUTCHAR?ZF_UART
FF61ACH   FF61FFH   000054H   BYTE   INSEG    CODE           ?PR?VL53L0X_SIMIIC_READ_REGS?TOF
FF6200H   FF6253H   000054H   BYTE   INSEG    CODE           ?PR?VL53L0X_SIMIIC_READ_REGS_1?TOF
FF6254H   FF62A4H   000051H   BYTE   INSEG    CODE           ?PR?CTIMER_COUNT_CLEAN?ZF_TIM
FF62A5H   FF62F1H   00004DH   BYTE   INSEG    CODE           ?PR?CTIMER_COUNT_READ?ZF_TIM
FF62F2H   FF633EH   00004DH   BYTE   INSEG    CODE           ?PR?VL53L0X_GET_VCSEL_PULSE_PERIOD?TOF
FF633FH   FF6388H   00004AH   BYTE   INSEG    CODE           ?PR?CTIMER_COUNT_INIT?ZF_TIM
FF6389H   FF63CDH   000045H   BYTE   INSEG    CODE           ?PR?ATAN2?_?ATAN2
FF63CEH   FF6411H   000044H   BYTE   INSEG    CODE           ?PR?MOTOR_INIT?MOTOR
FF6412H   FF6454H   000043H   BYTE   INSEG    CODE           ?PR?OLED_SHOW?UI
FF6455H   FF6496H   000042H   BYTE   INSEG    CODE           ?PR?FIFO_HEAD_OFFSET?ZF_FIFO
FF6497H   FF64D8H   000042H   BYTE   INSEG    CODE           ?PR?OLED_ALL_STATIC_STATE?UI
FF64D9H   FF6519H   000041H   BYTE   INSEG    CODE           ?PR?ELEM_UP_DOWN?ELEMENT
FF651AH   FF652CH   000013H   BYTE   UNIT     CODE           ?C_C51STARTUP
FF652DH   FF6555H   000029H   BYTE   UNIT     CODE           ?C_C51STARTUP?2
FF6556H   FF6558H   000003H   BYTE   UNIT     CODE           ?C_C51STARTUP?3
FF6559H   FF6596H   00003EH   BYTE   INSEG    CODE           ?PR?PRINTF_REVERSE_ORDER?SEEKFREE_PRINTF
FF6597H   FF65D4H   00003EH   BYTE   INSEG    CODE           ?PR?VL53L0X_TIMEOUT_MCLKS_TO_MICROSECONDS?TOF
FF65D5H   FF6611H   00003DH   BYTE   INSEG    CODE           ?PR?UART1_ISR?ISR
FF6612H   FF664DH   00003CH   BYTE   INSEG    CODE           ?PR?VL53L0X_TIMEOUT_MICROSECONDS_TO_MCLKS?TOF
FF664EH   FF6688H   00003BH   BYTE   INSEG    CODE           ?PR?VL53L0X_READ_CH?TOF
FF6689H   FF66C1H   000039H   BYTE   INSEG    CODE           ?PR?DELAY_INIT?ZF_DELAY
FF66C2H   FF66F8H   000037H   BYTE   INSEG    CODE           ?PR?I2C_READ_BYTE?MPU6050
FF66F9H   FF672DH   000035H   BYTE   INSEG    CODE           ?PR?VL53L0X_SIMIIC_WRITE_DATS?TOF
FF672EH   FF6761H   000034H   BYTE   INSEG    CODE           ?PR?VL53L0X_ENCODE_TIMEOUT?TOF
L251 LINKER/LOCATER V4.66.93.0                                                        07/20/2024  17:24:57  PAGE 6


FF6762H   FF6794H   000033H   BYTE   INSEG    CODE           ?PR?OLED_FILL?SEEKFREE_OLED
FF6795H   FF67C7H   000033H   BYTE   INSEG    CODE           ?PR?I2C_READ_BIT?MPU6050
FF67C8H   FF67FAH   000033H   BYTE   INSEG    CODE           ?PR?I2C_WRITE_BYTE?MPU6050
FF67FBH   FF682DH   000033H   BYTE   INSEG    CODE           ?PR?INITMPU6050?MPU6050
FF682EH   FF685BH   00002EH   BYTE   INSEG    CODE           ?PR?ADC_ONCE?ZF_ADC
FF685CH   FF6889H   00002EH   BYTE   INSEG    CODE           ?PR?VL53L0X_SEND_CH?TOF
FF688AH   FF68B4H   00002BH   BYTE   INSEG    CODE           ?PR?FILTER_WINDOW?MAIN
FF68B5H   FF68DFH   00002BH   BYTE   INSEG    CODE           ?PR?LIMIT_OUT?MOTOR
FF68E0H   FF690AH   00002BH   BYTE   INSEG    CODE           ?PR?ADC_INITALL?ADC
FF690BH   FF6934H   00002AH   BYTE   INSEG    CODE           ?PR?I2C_WAIT_ACK?MPU6050
FF6935H   FF695DH   000029H   BYTE   INSEG    CODE           ?PR?OLED_WRCMD?SEEKFREE_OLED
FF695EH   FF6986H   000029H   BYTE   INSEG    CODE           ?PR?OLED_WRDAT?SEEKFREE_OLED
FF6987H   FF69AFH   000029H   BYTE   INSEG    CODE           ?PR?VL53L0X_SIMIIC_READ_REG?TOF
FF69B0H   FF69D6H   000027H   BYTE   INSEG    CODE           ?PR?VL53L0X_SET_SIGNAL_RATE_LIMIT?TOF
FF69D7H   FF69FBH   000025H   BYTE   INSEG    CODE           ?PR?MEMCPY?_?MEMCPY
FF69FCH   FF6A1FH   000024H   BYTE   INSEG    CODE           ?PR?KEY_INIT?KEY
FF6A20H   FF6A42H   000023H   BYTE   INSEG    CODE           ?PR?OLED_SET_POS?SEEKFREE_OLED
FF6A43H   FF6A65H   000023H   BYTE   INSEG    CODE           ?PR?MPU6050_DMP_INIT?MPU6050
FF6A66H   FF6A87H   000022H   BYTE   INSEG    CODE           ?PR?VL53L0X_SIMIIC_WRITE_REG?TOF
FF6A88H   FF6AA7H   000020H   BYTE   INSEG    CODE           ?PR?GETDEVICEID?MPU6050
FF6AA8H   FF6AC7H   000020H   BYTE   INSEG    CODE           ?PR?VL53L0X_SIMIIC_SENDACK?TOF
FF6AC8H   FF6AE5H   00001EH   BYTE   INSEG    CODE           ?PR?UART2_ISR?ISR
FF6AE6H   FF6B03H   00001EH   BYTE   INSEG    CODE           ?PR?UART3_ISR?ISR
FF6B04H   FF6B1DH   00001AH   BYTE   INSEG    CODE           ?PR?MEMSET?_?MEMSET
FF6B1EH   FF6B36H   000019H   BYTE   INSEG    CODE           ?PR?BLUETOOTH_CH9141_UART_CALLBACK?SEEKFREE_BLUETOOTH_CH91
                                                             -41
FF6B37H   FF6B4FH   000019H   BYTE   INSEG    CODE           ?PR?WIRELESS_UART_CALLBACK?SEEKFREE_WIRELESS
FF6B50H   FF6B68H   000019H   BYTE   INSEG    CODE           ?PR?WIRELESS_CH573_CALLBACK?SEEKFREE_WIRELESS_CH573
FF6B69H   FF6B7FH   000017H   BYTE   INSEG    CODE           ?PR?DELAY_MS?ZF_DELAY
FF6B80H   FF6B94H   000015H   BYTE   INSEG    CODE           ?PR?I2C_ACK?MPU6050
FF6B95H   FF6BA9H   000015H   BYTE   INSEG    CODE           ?PR?MPU_WRITE_BYTE?MPU6050
FF6BAAH   FF6BBDH   000014H   BYTE   INSEG    CODE           ?PR?MPU_DELAY_MS?MPU6050
FF6BBEH   FF6BD0H   000013H   BYTE   UNIT     CODE           ?PR?STRCPY?_
FF6BD1H   FF6BE2H   000012H   BYTE   INSEG    CODE           ?PR?I2C_NACK?MPU6050
FF6BE3H   FF6BF4H   000012H   BYTE   INSEG    CODE           ?PR?I2C_START?MPU6050
FF6BF5H   FF6C05H   000011H   BYTE   INSEG    CODE           ?PR?NUM2ABS?MOTOR
FF6C06H   FF6C16H   000011H   BYTE   INSEG    CODE           ?PR?VL53L0X_SIMIIC_STOP?TOF
FF6C17H   FF6C27H   000011H   BYTE   INSEG    CODE           ?PR?BUZZER_INIT?BUZZER
FF6C28H   FF6C37H   000010H   BYTE   INSEG    CODE           ?PR?VL53L0X_DECODE_TIMEOUT?TOF
FF6C38H   FF6C47H   000010H   BYTE   INSEG    CODE           ?PR?ABS?_?ABS
FF6C48H   FF6C56H   00000FH   BYTE   INSEG    CODE           ?PR?I2C_STOP?MPU6050
FF6C57H   FF6C65H   00000FH   BYTE   INSEG    CODE           ?PR?READDMP?MPU6050
FF6C66H   FF6C74H   00000FH   BYTE   INSEG    CODE           ?PR?VL53L0X_SIMIIC_START?TOF
FF6C75H   FF6C82H   00000EH   BYTE   INSEG    CODE           ?PR?PUTCHAR?BOARD
FF6C83H   FF6C8FH   00000DH   BYTE   INSEG    CODE           ?PR?MPU_WRITE_BITS?MPU6050
FF6C90H   FF6C9CH   00000DH   BYTE   INSEG    CODE           ?PR?MPU_WRITE_BIT?MPU6050
FF6C9DH   FF6CA9H   00000DH   BYTE   INSEG    CODE           ?PR?VL53L0X_SIMIIC_DELAY?TOF
FF6CAAH   FF6CB4H   00000BH   BYTE   INSEG    CODE           ?PR?MPU_READ_LEN?MPU6050
FF6CB5H   FF6CBFH   00000BH   BYTE   INSEG    CODE           ?PR?I2C_TIMEOUT_DELAY?MPU6050
FF6CC0H   FF6CCAH   00000BH   BYTE   INSEG    CODE           ?PR?MPU_WRITE_LEN?MPU6050
FF6CCBH   FF6CD5H   00000BH   BYTE   INSEG    CODE           ?PR?I2C_DELAY?MPU6050
FF6CD6H   FF6CDFH   00000AH   BYTE   INSEG    CODE           ?PR?DELAY1MS?MPU6050
FF6CE0H   FF6CE8H   000009H   BYTE   INSEG    CODE           ?PR?MPU_READ_BIT?MPU6050
FF6CE9H   FF6CF1H   000009H   BYTE   INSEG    CODE           ?PR?UI_INIT?UI
FF6CF2H   FF6CF9H   000008H   BYTE   INSEG    CODE           ?PR?INT2_ISR?ISR
FF6CFAH   FF6D01H   000008H   BYTE   INSEG    CODE           ?PR?INT3_ISR?ISR
FF6D02H   FF6D09H   000008H   BYTE   INSEG    CODE           ?PR?INT4_ISR?ISR
FF6D0AH   FF6D11H   000008H   BYTE   INSEG    CODE           ?PR?TM2_ISR?ISR
FF6D12H   FF6D19H   000008H   BYTE   INSEG    CODE           ?PR?TM3_ISR?ISR
FF6D1AH   FF6D20H   000007H   BYTE   INSEG    CODE           ?PR?INT0_ISR?ISR
FF6D21H   FF6D26H   000006H   BYTE   INSEG    CODE           ?PR?UI_SHOW?UI
FF6D27H   FF6EE9H   0001C3H   BYTE   UNIT     HCONST         ?C_INITEDATA
FF6EEAH   FF6F5AH   000071H   BYTE   UNIT     HCONST         ?HC?UI
FF6F5BH   FF6FB2H   000058H   BYTE   UNIT     HCONST         ?HC?ZF_PWM
FF6FB3H   FF6FD2H   000020H   BYTE   UNIT     HCONST         ?HC?MAIN
L251 LINKER/LOCATER V4.66.93.0                                                        07/20/2024  17:24:57  PAGE 7


FF6FD3H   FF6FE8H   000016H   BYTE   UNIT     HCONST         ?HC?TOF
FF6FE9H   FF6FF2H   00000AH   BYTE   UNIT     HCONST         ?HC?SEEKFREE_OLED
FF6FF3H   FF6FF8H   000006H   BYTE   UNIT     HCONST         ?HC?SEEKFREE_18TFT
FF6FF9H   FF6FFEH   000006H   BYTE   UNIT     HCONST         ?HC?SEEKFREE_IPS114_SPI

* * * * * * * * *   R E M O V E D     S E G M E N T S   * * * * * * * *
   *DEL*:           000019H   BYTE   INSEG    CODE           ?PR?DELAY_US?ZF_DELAY
   *DEL*:           000016H   BYTE   INSEG    CODE           ?PR?IAP_SET_TPS?ZF_EEPROM
   *DEL*:           000015H   BYTE   INSEG    CODE           ?PR?EEPROM_TRIG?ZF_EEPROM
   *DEL*:           00000EH   BYTE   INSEG    CODE           ?PR?IAP_ERASE_PAGE?ZF_EEPROM
   *DEL*:           000004H   BYTE   INSEG    CODE           ?PR?IAP_IDLE?ZF_EEPROM
   *DEL*:           000047H   BYTE   INSEG    CODE           ?PR?IAP_READ_BYTES?ZF_EEPROM
   *DEL*:           00006DH   BYTE   INSEG    CODE           ?PR?EXTERN_IAP_WRITE_BYTES?ZF_EEPROM
   *DEL*:           000006H   BYTE   INSEG    CODE           ?PR?IAP_INIT?ZF_EEPROM
   *DEL*:           000047H   BYTE   INSEG    CODE           ?PR?IAP_WRITE_BYTES?ZF_EEPROM
   *DEL*:           00000CH   BYTE   INSEG    CODE           ?PR?IAP_GET_CMD_STATE?ZF_EEPROM
   *DEL*:           000004H   BYTE   UNIT     EDATA          ?ED?IAP_READ_BYTES?ZF_EEPROM
   *DEL*:           000004H   BYTE   UNIT     EDATA          ?ED?IAP_WRITE_BYTES?ZF_EEPROM
   *DEL*:           000204H   BYTE   UNIT     EDATA          ?ED?EXTERN_IAP_WRITE_BYTES?ZF_EEPROM
   *DEL*:           00003EH   BYTE   INSEG    CODE           ?PR?EXIT_INIT?ZF_EXTI
   *DEL*:           00006EH   BYTE   INSEG    CODE           ?PR?GPIO_PULL_SET?ZF_GPIO
   *DEL*:           000017H   BYTE   INSEG    CODE           ?PR?SEND_DATA?ZF_IIC
   *DEL*:           00002FH   BYTE   INSEG    CODE           ?PR?IIC_CHANGE_PIN?ZF_IIC
   *DEL*:           00001CH   BYTE   INSEG    CODE           ?PR?RECV_DATA?ZF_IIC
   *DEL*:           000010H   BYTE   INSEG    CODE           ?PR?START?ZF_IIC
   *DEL*:           000045H   BYTE   INSEG    CODE           ?PR?WAIT?ZF_IIC
   *DEL*:           000018H   BYTE   INSEG    CODE           ?PR?SEND_ACK?ZF_IIC
   *DEL*:           000010H   BYTE   INSEG    CODE           ?PR?RECV_ACK?ZF_IIC
   *DEL*:           000010H   BYTE   INSEG    CODE           ?PR?STOP?ZF_IIC
   *DEL*:           000019H   BYTE   INSEG    CODE           ?PR?SEND_NAK?ZF_IIC
   *DEL*:           00005EH   BYTE   INSEG    CODE           ?PR?IIC_INIT?ZF_IIC
   *DEL*:           000075H   BYTE   INSEG    CODE           ?PR?IIC_READ_REG?ZF_IIC
   *DEL*:           00009CH   BYTE   INSEG    CODE           ?PR?IIC_READ_REG_BYTES?ZF_IIC
   *DEL*:           000060H   BYTE   INSEG    CODE           ?PR?IIC_WRITE_REG?ZF_IIC
   *DEL*:           000015H   BYTE   INSEG    CODE           ?PR?IIC_DELAY_US?ZF_IIC
   *DEL*:           000004H   BYTE   UNIT     EDATA          ?ED?IIC_INIT?ZF_IIC
   *DEL*:           000004H   BYTE   UNIT     EDATA          ?ED?IIC_READ_REG?ZF_IIC
   *DEL*:           000003H   BYTE   UNIT     EDATA          ?ED?IIC_READ_REG_BYTES?ZF_IIC
   *DEL*:           00006CH   BYTE   INSEG    CODE           ?PR?NVIC_SETPRIORITY?ZF_NVIC
   *DEL*:           000121H   BYTE   INSEG    CODE           ?PR?PWM_FREQ?ZF_PWM
   *DEL*:           000004H   BYTE   UNIT     EDATA          ?ED?PWM_FREQ?ZF_PWM
   *DEL*:           00001DH   BYTE   INSEG    CODE           ?PR?SPI_CHANGE_MODE?ZF_SPI
   *DEL*:           0000AEH   BYTE   INSEG    CODE           ?PR?SPI_CHANGE_PIN?ZF_SPI
   *DEL*:           0000DFH   BYTE   INSEG    CODE           ?PR?SPI_INIT?ZF_SPI
   *DEL*:           00000EH   BYTE   INSEG    CODE           ?PR?SPI_MOSI?ZF_SPI
   *DEL*:           000004H   BYTE   UNIT     EDATA          ?ED?SPI_INIT?ZF_SPI
   *DEL*:           00009DH   BYTE   INSEG    CODE           ?PR?PIT_TIMER_US?ZF_TIM
   *DEL*:           00002DH   BYTE   INSEG    CODE           ?PR?UART_PUTBUFF?ZF_UART
   *DEL*:           00001EH   BYTE   INSEG    CODE           ?PR?UART_PUTSTR?ZF_UART
   *DEL*:           000004H   BYTE   UNIT     EDATA          ?ED?UART_PUTBUFF?ZF_UART
   *DEL*:           000002H   BYTE   UNIT     EDATA          ?ED?UART_PUTSTR?ZF_UART
   *DEL*:           000113H   BYTE   INSEG    CODE           ?PR?FIFO_READ_BUFFER?ZF_FIFO
   *DEL*:           000025H   BYTE   INSEG    CODE           ?PR?FIFO_CLEAR?ZF_FIFO
   *DEL*:           000046H   BYTE   INSEG    CODE           ?PR?FIFO_END_OFFSET?ZF_FIFO
   *DEL*:           000015H   BYTE   INSEG    CODE           ?PR?FIFO_USED?ZF_FIFO
   *DEL*:           000043H   BYTE   INSEG    CODE           ?PR?FIFO_INIT?ZF_FIFO
   *DEL*:           000004H   BYTE   UNIT     EDATA          ?ED?FIFO_INIT?ZF_FIFO
   *DEL*:           00000FH   BYTE   UNIT     EDATA          ?ED?FIFO_READ_BUFFER?ZF_FIFO
   *DEL*:           00008BH   BYTE   INSEG    CODE           ?PR?LCD_SHOWUINT16?SEEKFREE_18TFT
   *DEL*:           000082H   BYTE   INSEG    CODE           ?PR?LCD_SHOWINT32_SIMSPI?SEEKFREE_18TFT
   *DEL*:           0000DDH   BYTE   INSEG    CODE           ?PR?LCD_SHOWINT16_SIMSPI?SEEKFREE_18TFT
   *DEL*:           000082H   BYTE   INSEG    CODE           ?PR?LCD_SHOWINT32?SEEKFREE_18TFT
   *DEL*:           0000DDH   BYTE   INSEG    CODE           ?PR?LCD_SHOWINT16?SEEKFREE_18TFT
   *DEL*:           00002BH   BYTE   INSEG    CODE           ?PR?LCD_CLEAR_SIMSPI?SEEKFREE_18TFT
   *DEL*:           00002BH   BYTE   INSEG    CODE           ?PR?LCD_CLEAR?SEEKFREE_18TFT
L251 LINKER/LOCATER V4.66.93.0                                                        07/20/2024  17:24:57  PAGE 8


   *DEL*:           00004EH   BYTE   INSEG    CODE           ?PR?LCD_SHOWSTR_SIMSPI?SEEKFREE_18TFT
   *DEL*:           00004EH   BYTE   INSEG    CODE           ?PR?LCD_SHOWSTR?SEEKFREE_18TFT
   *DEL*:           000029H   BYTE   INSEG    CODE           ?PR?LCD_WRITEINDEX_SIMSPI?SEEKFREE_18TFT
   *DEL*:           000029H   BYTE   INSEG    CODE           ?PR?LCD_WRITEDATA_SIMSPI?SEEKFREE_18TFT
   *DEL*:           00000AH   BYTE   INSEG    CODE           ?PR?LCD_WRITEINDEX?SEEKFREE_18TFT
   *DEL*:           00000AH   BYTE   INSEG    CODE           ?PR?LCD_WRITEDATA?SEEKFREE_18TFT
   *DEL*:           00002CH   BYTE   INSEG    CODE           ?PR?LCD_WRITEDATA_16BIT_SIMSPI?SEEKFREE_18TFT
   *DEL*:           00004CH   BYTE   INSEG    CODE           ?PR?LCD_SET_REGION_SIMSPI?SEEKFREE_18TFT
   *DEL*:           0001F1H   BYTE   INSEG    CODE           ?PR?LCD_INIT_SIMSPI?SEEKFREE_18TFT
   *DEL*:           00009AH   BYTE   INSEG    CODE           ?PR?SHOWIMAGE?SEEKFREE_18TFT
   *DEL*:           000050H   BYTE   INSEG    CODE           ?PR?LCD_SET_REGION?SEEKFREE_18TFT
   *DEL*:           0001EEH   BYTE   INSEG    CODE           ?PR?LCD_INIT?SEEKFREE_18TFT
   *DEL*:           00007BH   BYTE   INSEG    CODE           ?PR?LCD_SHOWUINT8_SIMSPI?SEEKFREE_18TFT
   *DEL*:           00007BH   BYTE   INSEG    CODE           ?PR?LCD_SHOWUINT8?SEEKFREE_18TFT
   *DEL*:           0000B9H   BYTE   INSEG    CODE           ?PR?LCD_SHOWINT8_SIMSPI?SEEKFREE_18TFT
   *DEL*:           0000B9H   BYTE   INSEG    CODE           ?PR?LCD_SHOWINT8?SEEKFREE_18TFT
   *DEL*:           00001FH   BYTE   INSEG    CODE           ?PR?LCD_WRITEDATA_16BIT?SEEKFREE_18TFT
   *DEL*:           0000F8H   BYTE   INSEG    CODE           ?PR?LCD_SHOWFLOAT_SIMSPI?SEEKFREE_18TFT
   *DEL*:           000013H   BYTE   INSEG    CODE           ?PR?LCD_DRAWPOINT_SIMSPI?SEEKFREE_18TFT
   *DEL*:           0000F8H   BYTE   INSEG    CODE           ?PR?LCD_SHOWFLOAT?SEEKFREE_18TFT
   *DEL*:           000013H   BYTE   INSEG    CODE           ?PR?LCD_DRAWPOINT?SEEKFREE_18TFT
   *DEL*:           00008EH   BYTE   INSEG    CODE           ?PR?LCD_SHOWCHAR_SIMSPI?SEEKFREE_18TFT
   *DEL*:           00008EH   BYTE   INSEG    CODE           ?PR?LCD_SHOWCHAR?SEEKFREE_18TFT
   *DEL*:           00008BH   BYTE   INSEG    CODE           ?PR?LCD_SHOWUINT16_SIMSPI?SEEKFREE_18TFT
   *DEL*:           000004H   BYTE   UNIT     EDATA          ?ED?LCD_SET_REGION_SIMSPI?SEEKFREE_18TFT
   *DEL*:           000004H   BYTE   UNIT     EDATA          ?ED?LCD_SHOWCHAR_SIMSPI?SEEKFREE_18TFT
   *DEL*:           000006H   BYTE   UNIT     EDATA          ?ED?LCD_SHOWSTR_SIMSPI?SEEKFREE_18TFT
   *DEL*:           000005H   BYTE   UNIT     EDATA          ?ED?LCD_SHOWINT8_SIMSPI?SEEKFREE_18TFT
   *DEL*:           000004H   BYTE   UNIT     EDATA          ?ED?LCD_SHOWUINT8_SIMSPI?SEEKFREE_18TFT
   *DEL*:           000008H   BYTE   UNIT     EDATA          ?ED?LCD_SHOWINT16_SIMSPI?SEEKFREE_18TFT
   *DEL*:           000006H   BYTE   UNIT     EDATA          ?ED?LCD_SHOWUINT16_SIMSPI?SEEKFREE_18TFT
   *DEL*:           000028H   BYTE   UNIT     EDATA          ?ED?LCD_SHOWINT32_SIMSPI?SEEKFREE_18TFT
   *DEL*:           00002BH   BYTE   UNIT     EDATA          ?ED?LCD_SHOWFLOAT_SIMSPI?SEEKFREE_18TFT
   *DEL*:           000002H   BYTE   UNIT     EDATA          ?ED?LCD_WRITEDATA_16BIT?SEEKFREE_18TFT
   *DEL*:           000004H   BYTE   UNIT     EDATA          ?ED?LCD_SET_REGION?SEEKFREE_18TFT
   *DEL*:           000004H   BYTE   UNIT     EDATA          ?ED?LCD_SHOWCHAR?SEEKFREE_18TFT
   *DEL*:           000006H   BYTE   UNIT     EDATA          ?ED?LCD_SHOWSTR?SEEKFREE_18TFT
   *DEL*:           000005H   BYTE   UNIT     EDATA          ?ED?LCD_SHOWINT8?SEEKFREE_18TFT
   *DEL*:           000004H   BYTE   UNIT     EDATA          ?ED?LCD_SHOWUINT8?SEEKFREE_18TFT
   *DEL*:           000008H   BYTE   UNIT     EDATA          ?ED?LCD_SHOWINT16?SEEKFREE_18TFT
   *DEL*:           000006H   BYTE   UNIT     EDATA          ?ED?LCD_SHOWUINT16?SEEKFREE_18TFT
   *DEL*:           000028H   BYTE   UNIT     EDATA          ?ED?LCD_SHOWINT32?SEEKFREE_18TFT
   *DEL*:           00002BH   BYTE   UNIT     EDATA          ?ED?LCD_SHOWFLOAT?SEEKFREE_18TFT
   *DEL*:           000008H   BYTE   UNIT     EDATA          ?ED?SHOWIMAGE?SEEKFREE_18TFT
   *DEL*:           000011H   BYTE   INSEG    CODE           ?PR?ENCODER_SELF4_CHECK?SEEKFREE_ABSOLUTE_ENCODER
   *DEL*:           000011H   BYTE   INSEG    CODE           ?PR?ENCODER_SELF5_CHECK?SEEKFREE_ABSOLUTE_ENCODER
   *DEL*:           00002FH   BYTE   INSEG    CODE           ?PR?ENCODER_SPI_R_REG_BYTE?SEEKFREE_ABSOLUTE_ENCODER
   *DEL*:           000005H   BYTE   INSEG    CODE           ?PR?ENCODER_DELAY_US?SEEKFREE_ABSOLUTE_ENCODER
   *DEL*:           000038H   BYTE   INSEG    CODE           ?PR?ENCODER_SPI_W_REG_BYTE?SEEKFREE_ABSOLUTE_ENCODER
   *DEL*:           00001CH   BYTE   INSEG    CODE           ?PR?SIMSPI_R_REG_BYTE?SEEKFREE_ABSOLUTE_ENCODER
   *DEL*:           00001AH   BYTE   INSEG    CODE           ?PR?SIMSPI_W_REG_BYTE?SEEKFREE_ABSOLUTE_ENCODER
   *DEL*:           000029H   BYTE   INSEG    CODE           ?PR?ENCODER_INIT_SPI?SEEKFREE_ABSOLUTE_ENCODER
   *DEL*:           000004H   BYTE   INSEG    CODE           ?PR?SPI_WR_BYTE?SEEKFREE_ABSOLUTE_ENCODER
   *DEL*:           000024H   BYTE   INSEG    CODE           ?PR?SET_ZERO_POSITION_SIMSPI?SEEKFREE_ABSOLUTE_ENCODER
   *DEL*:           000023H   BYTE   INSEG    CODE           ?PR?ENCODER_ANGLE_SIMSPI?SEEKFREE_ABSOLUTE_ENCODER
   *DEL*:           00001CH   BYTE   INSEG    CODE           ?PR?SPI_R_REG_BYTE?SEEKFREE_ABSOLUTE_ENCODER
   *DEL*:           00001AH   BYTE   INSEG    CODE           ?PR?SPI_W_REG_BYTE?SEEKFREE_ABSOLUTE_ENCODER
   *DEL*:           00002FH   BYTE   INSEG    CODE           ?PR?ENCODER_SIMSPI_R_REG_BYTE?SEEKFREE_ABSOLUTE_ENCODER
   *DEL*:           000038H   BYTE   INSEG    CODE           ?PR?ENCODER_SIMSPI_W_REG_BYTE?SEEKFREE_ABSOLUTE_ENCODER
   *DEL*:           00000FH   BYTE   INSEG    CODE           ?PR?ENCODER_INIT_SIMSPI?SEEKFREE_ABSOLUTE_ENCODER
   *DEL*:           000024H   BYTE   INSEG    CODE           ?PR?SET_ZERO_POSITION_SPI?SEEKFREE_ABSOLUTE_ENCODER
   *DEL*:           00001FH   BYTE   INSEG    CODE           ?PR?SIMSPI_WR_BYTE?SEEKFREE_ABSOLUTE_ENCODER
   *DEL*:           000023H   BYTE   INSEG    CODE           ?PR?ENCODER_ANGLE_SPI?SEEKFREE_ABSOLUTE_ENCODER
   *DEL*:           000001H   BYTE   UNIT     EDATA          ?ED?ENCODER_SELF4_CHECK?SEEKFREE_ABSOLUTE_ENCODER
   *DEL*:           000001H   BYTE   UNIT     EDATA          ?ED?ENCODER_SELF5_CHECK?SEEKFREE_ABSOLUTE_ENCODER
L251 LINKER/LOCATER V4.66.93.0                                                        07/20/2024  17:24:57  PAGE 9


   *DEL*:           00000FH   BYTE   INSEG    CODE           ?PR?SIMIIC_START?SEEKFREE_IIC
   *DEL*:           000066H   BYTE   INSEG    CODE           ?PR?SIMIIC_READ_REGS?SEEKFREE_IIC
   *DEL*:           000001H   BYTE   INSEG    CODE           ?PR?SIMIIC_INIT?SEEKFREE_IIC
   *DEL*:           000034H   BYTE   INSEG    CODE           ?PR?SIMIIC_READ_REG?SEEKFREE_IIC
   *DEL*:           000011H   BYTE   INSEG    CODE           ?PR?SIMIIC_STOP?SEEKFREE_IIC
   *DEL*:           000022H   BYTE   INSEG    CODE           ?PR?SIMIIC_WRITE_REG?SEEKFREE_IIC
   *DEL*:           000020H   BYTE   INSEG    CODE           ?PR?SIMIIC_SENDACK?SEEKFREE_IIC
   *DEL*:           00003BH   BYTE   INSEG    CODE           ?PR?READ_CH?SEEKFREE_IIC
   *DEL*:           00002EH   BYTE   INSEG    CODE           ?PR?SEND_CH?SEEKFREE_IIC
   *DEL*:           00001CH   BYTE   INSEG    CODE           ?PR?SCCB_WAITACK?SEEKFREE_IIC
   *DEL*:           00000BH   BYTE   INSEG    CODE           ?PR?SIMIIC_DELAY?SEEKFREE_IIC
   *DEL*:           000005H   BYTE   UNIT     EDATA          ?ED?SIMIIC_READ_REGS?SEEKFREE_IIC
   *DEL*:           000055H   BYTE   INSEG    CODE           ?PR?MPU6050_INIT?SEEKFREE_MPU6050
   *DEL*:           00002CH   BYTE   INSEG    CODE           ?PR?MPU6050_SELF1_CHECK?SEEKFREE_MPU6050
   *DEL*:           000044H   BYTE   INSEG    CODE           ?PR?MPU6050_GET_GYRO?SEEKFREE_MPU6050
   *DEL*:           000044H   BYTE   INSEG    CODE           ?PR?MPU6050_GET_ACCDATA?SEEKFREE_MPU6050
   *DEL*:           000006H   BYTE   UNIT     EDATA          ?ED?MPU6050_GET_ACCDATA?SEEKFREE_MPU6050
   *DEL*:           000006H   BYTE   UNIT     EDATA          ?ED?MPU6050_GET_GYRO?SEEKFREE_MPU6050
   *DEL*:           000033H   BYTE   INSEG    CODE           ?PR?OLED_PUTPIXEL?SEEKFREE_OLED
   *DEL*:           000032H   BYTE   INSEG    CODE           ?PR?OLED_HEXASCII_SPI?SEEKFREE_OLED
   *DEL*:           000325H   BYTE   INSEG    CODE           ?PR?OLED_DIS_BMP_SPI?SEEKFREE_OLED
   *DEL*:           0000E8H   BYTE   INSEG    CODE           ?PR?OLED_P8X16STR_SPI?SEEKFREE_OLED
   *DEL*:           00002AH   BYTE   INSEG    CODE           ?PR?OLED_CLRPIXEL_SPI?SEEKFREE_OLED
   *DEL*:           000090H   BYTE   INSEG    CODE           ?PR?OLED_PRINT_CHINESE_SPI?SEEKFREE_OLED
   *DEL*:           000082H   BYTE   INSEG    CODE           ?PR?OLED_PRINTF_INT32?SEEKFREE_OLED
   *DEL*:           00001DH   BYTE   INSEG    CODE           ?PR?OLED_UINT16?SEEKFREE_OLED
   *DEL*:           000031H   BYTE   INSEG    CODE           ?PR?OLED_PUTPIXEL_SPI?SEEKFREE_OLED
   *DEL*:           000021H   BYTE   INSEG    CODE           ?PR?OLED_SET_POS_SPI?SEEKFREE_OLED
   *DEL*:           0000A9H   BYTE   INSEG    CODE           ?PR?OLED_P6X8STR?SEEKFREE_OLED
   *DEL*:           00004BH   BYTE   INSEG    CODE           ?PR?OLED_INT16?SEEKFREE_OLED
   *DEL*:           0000F8H   BYTE   INSEG    CODE           ?PR?OLED_PRINTF_FLOAT_SPI?SEEKFREE_OLED
   *DEL*:           00000AH   BYTE   INSEG    CODE           ?PR?OLED_WRCMD_SPI?SEEKFREE_OLED
   *DEL*:           00000AH   BYTE   INSEG    CODE           ?PR?OLED_WRDAT_SPI?SEEKFREE_OLED
   *DEL*:           000032H   BYTE   INSEG    CODE           ?PR?OLED_HEXASCII?SEEKFREE_OLED
   *DEL*:           000033H   BYTE   INSEG    CODE           ?PR?OLED_FILL_SPI?SEEKFREE_OLED
   *DEL*:           000082H   BYTE   INSEG    CODE           ?PR?OLED_PRINTF_INT32_SPI?SEEKFREE_OLED
   *DEL*:           00001DH   BYTE   INSEG    CODE           ?PR?OLED_UINT16_SPI?SEEKFREE_OLED
   *DEL*:           0000A9H   BYTE   INSEG    CODE           ?PR?OLED_P6X8STR_SPI?SEEKFREE_OLED
   *DEL*:           00004BH   BYTE   INSEG    CODE           ?PR?OLED_INT16_SPI?SEEKFREE_OLED
   *DEL*:           00033BH   BYTE   INSEG    CODE           ?PR?OLED_DIS_BMP?SEEKFREE_OLED
   *DEL*:           0000BFH   BYTE   INSEG    CODE           ?PR?OLED_INIT_SPI?SEEKFREE_OLED
   *DEL*:           00002CH   BYTE   INSEG    CODE           ?PR?OLED_CLRPIXEL?SEEKFREE_OLED
   *DEL*:           000090H   BYTE   INSEG    CODE           ?PR?OLED_PRINT_CHINESE?SEEKFREE_OLED
   *DEL*:           000005H   BYTE   UNIT     EDATA          ?ED?OLED_P6X8STR?SEEKFREE_OLED
   *DEL*:           000007H   BYTE   UNIT     EDATA          ?ED?OLED_UINT16?SEEKFREE_OLED
   *DEL*:           000007H   BYTE   UNIT     EDATA          ?ED?OLED_INT16?SEEKFREE_OLED
   *DEL*:           000028H   BYTE   UNIT     EDATA          ?ED?OLED_PRINTF_INT32?SEEKFREE_OLED
   *DEL*:           00000CH   BYTE   UNIT     EDATA          ?ED?OLED_DIS_BMP?SEEKFREE_OLED
   *DEL*:           00000AH   BYTE   UNIT     EDATA          ?ED?OLED_PRINT_CHINESE?SEEKFREE_OLED
   *DEL*:           000005H   BYTE   UNIT     EDATA          ?ED?OLED_P6X8STR_SPI?SEEKFREE_OLED
   *DEL*:           000005H   BYTE   UNIT     EDATA          ?ED?OLED_P8X16STR_SPI?SEEKFREE_OLED
   *DEL*:           000007H   BYTE   UNIT     EDATA          ?ED?OLED_UINT16_SPI?SEEKFREE_OLED
   *DEL*:           000007H   BYTE   UNIT     EDATA          ?ED?OLED_INT16_SPI?SEEKFREE_OLED
   *DEL*:           000028H   BYTE   UNIT     EDATA          ?ED?OLED_PRINTF_INT32_SPI?SEEKFREE_OLED
   *DEL*:           00002BH   BYTE   UNIT     EDATA          ?ED?OLED_PRINTF_FLOAT_SPI?SEEKFREE_OLED
   *DEL*:           00000CH   BYTE   UNIT     EDATA          ?ED?OLED_DIS_BMP_SPI?SEEKFREE_OLED
   *DEL*:           00000AH   BYTE   UNIT     EDATA          ?ED?OLED_PRINT_CHINESE_SPI?SEEKFREE_OLED
   *DEL*:           00005EH   BYTE   INSEG    CODE           ?PR?AT24C02_READ_BYTES?SEEKFREE_AT24C02
   *DEL*:           000017H   BYTE   INSEG    CODE           ?PR?AT24C02_READ_BYTE?SEEKFREE_AT24C02
   *DEL*:           00005BH   BYTE   INSEG    CODE           ?PR?AT24C02_WRITE_BYTES?SEEKFREE_AT24C02
   *DEL*:           000019H   BYTE   INSEG    CODE           ?PR?AT24C02_WRITE_BYTE?SEEKFREE_AT24C02
   *DEL*:           000002H   BYTE   UNIT     EDATA          ?ED?AT24C02_WRITE_BYTES?SEEKFREE_AT24C02
   *DEL*:           000002H   BYTE   UNIT     EDATA          ?ED?AT24C02_READ_BYTES?SEEKFREE_AT24C02
   *DEL*:           000022H   BYTE   INSEG    CODE           ?PR?BLUETOOTH_CH9141_READ_BUFF?SEEKFREE_BLUETOOTH_CH9141
   *DEL*:           0000ABH   BYTE   INSEG    CODE           ?PR?BLUETOOTH_CH9141_SEND_BUFF?SEEKFREE_BLUETOOTH_CH9141
L251 LINKER/LOCATER V4.66.93.0                                                        07/20/2024  17:24:57  PAGE 10


   *DEL*:           00003CH   BYTE   INSEG    CODE           ?PR?BLUETOOTH_CH9141_INIT?SEEKFREE_BLUETOOTH_CH9141
   *DEL*:           000006H   BYTE   UNIT     EDATA          ?ED?BLUETOOTH_CH9141_SEND_BUFF?SEEKFREE_BLUETOOTH_CH9141
   *DEL*:           000004H   BYTE   UNIT     EDATA          ?ED?BLUETOOTH_CH9141_READ_BUFF?SEEKFREE_BLUETOOTH_CH9141
   *DEL*:           00001FH   BYTE   INSEG    CODE           ?PR?ICM_SIMSPI_WR_BYTE?SEEKFREE_ICM20602
   *DEL*:           000075H   BYTE   INSEG    CODE           ?PR?ICM20602_INIT_SIMIIC?SEEKFREE_ICM20602
   *DEL*:           000040H   BYTE   INSEG    CODE           ?PR?ICM_SIMSPI_R_REG_BYTES?SEEKFREE_ICM20602
   *DEL*:           00001CH   BYTE   INSEG    CODE           ?PR?ICM_SIMSPI_R_REG_BYTE?SEEKFREE_ICM20602
   *DEL*:           000013H   BYTE   INSEG    CODE           ?PR?ICM_SIMSPI_W_REG_BYTE?SEEKFREE_ICM20602
   *DEL*:           000059H   BYTE   INSEG    CODE           ?PR?ICM20602_INIT_SIMSPI?SEEKFREE_ICM20602
   *DEL*:           00002BH   BYTE   INSEG    CODE           ?PR?ICM20602_SELF1_CHECK?SEEKFREE_ICM20602
   *DEL*:           000011H   BYTE   INSEG    CODE           ?PR?ICM20602_SELF4_CHECK?SEEKFREE_ICM20602
   *DEL*:           000044H   BYTE   INSEG    CODE           ?PR?GET_ICM20602_GYRO_SIMIIC?SEEKFREE_ICM20602
   *DEL*:           000044H   BYTE   INSEG    CODE           ?PR?GET_ICM20602_ACCDATA_SIMIIC?SEEKFREE_ICM20602
   *DEL*:           00003DH   BYTE   INSEG    CODE           ?PR?GET_ICM20602_GYRO_SIMSPI?SEEKFREE_ICM20602
   *DEL*:           00003DH   BYTE   INSEG    CODE           ?PR?GET_ICM20602_ACCDATA_SIMSPI?SEEKFREE_ICM20602
   *DEL*:           000006H   BYTE   UNIT     EDATA          ?ED?GET_ICM20602_ACCDATA_SIMIIC?SEEKFREE_ICM20602
   *DEL*:           000006H   BYTE   UNIT     EDATA          ?ED?GET_ICM20602_GYRO_SIMIIC?SEEKFREE_ICM20602
   *DEL*:           000003H   BYTE   UNIT     EDATA          ?ED?ICM_SIMSPI_R_REG_BYTES?SEEKFREE_ICM20602
   *DEL*:           000001H   BYTE   UNIT     EDATA          ?ED?ICM20602_SELF4_CHECK?SEEKFREE_ICM20602
   *DEL*:           000001H   BYTE   UNIT     EDATA          ?ED?ICM20602_INIT_SIMSPI?SEEKFREE_ICM20602
   *DEL*:           000006H   BYTE   UNIT     EDATA          ?ED?GET_ICM20602_ACCDATA_SIMSPI?SEEKFREE_ICM20602
   *DEL*:           000006H   BYTE   UNIT     EDATA          ?ED?GET_ICM20602_GYRO_SIMSPI?SEEKFREE_ICM20602
   *DEL*:           00007BH   BYTE   INSEG    CODE           ?PR?IPS114_SHOWUINT8_SIMSPI?SEEKFREE_IPS114_SPI
   *DEL*:           000077H   BYTE   INSEG    CODE           ?PR?IPS114_SHOWUINT8?SEEKFREE_IPS114_SPI
   *DEL*:           0000B9H   BYTE   INSEG    CODE           ?PR?IPS114_SHOWINT8_SIMSPI?SEEKFREE_IPS114_SPI
   *DEL*:           0000B5H   BYTE   INSEG    CODE           ?PR?IPS114_SHOWINT8?SEEKFREE_IPS114_SPI
   *DEL*:           00001FH   BYTE   INSEG    CODE           ?PR?IPS114_WRITEDATA_16BIT?SEEKFREE_IPS114_SPI
   *DEL*:           0000F8H   BYTE   INSEG    CODE           ?PR?IPS114_SHOWFLOAT_SIMSPI?SEEKFREE_IPS114_SPI
   *DEL*:           000013H   BYTE   INSEG    CODE           ?PR?IPS114_DRAWPOINT_SIMSPI?SEEKFREE_IPS114_SPI
   *DEL*:           0000F8H   BYTE   INSEG    CODE           ?PR?IPS114_SHOWFLOAT?SEEKFREE_IPS114_SPI
   *DEL*:           000013H   BYTE   INSEG    CODE           ?PR?IPS114_DRAWPOINT?SEEKFREE_IPS114_SPI
   *DEL*:           00008EH   BYTE   INSEG    CODE           ?PR?IPS114_SHOWCHAR_SIMSPI?SEEKFREE_IPS114_SPI
   *DEL*:           00008EH   BYTE   INSEG    CODE           ?PR?IPS114_SHOWCHAR?SEEKFREE_IPS114_SPI
   *DEL*:           00008BH   BYTE   INSEG    CODE           ?PR?IPS114_SHOWUINT16_SIMSPI?SEEKFREE_IPS114_SPI
   *DEL*:           00008BH   BYTE   INSEG    CODE           ?PR?IPS114_SHOWUINT16?SEEKFREE_IPS114_SPI
   *DEL*:           000082H   BYTE   INSEG    CODE           ?PR?IPS114_SHOWINT32_SIMSPI?SEEKFREE_IPS114_SPI
   *DEL*:           0000DDH   BYTE   INSEG    CODE           ?PR?IPS114_SHOWINT16_SIMSPI?SEEKFREE_IPS114_SPI
   *DEL*:           000082H   BYTE   INSEG    CODE           ?PR?IPS114_SHOWINT32?SEEKFREE_IPS114_SPI
   *DEL*:           0000D9H   BYTE   INSEG    CODE           ?PR?IPS114_SHOWINT16?SEEKFREE_IPS114_SPI
   *DEL*:           00003CH   BYTE   INSEG    CODE           ?PR?IPS114_CLEAR_SIMSPI?SEEKFREE_IPS114_SPI
   *DEL*:           00003CH   BYTE   INSEG    CODE           ?PR?IPS114_CLEAR?SEEKFREE_IPS114_SPI
   *DEL*:           00002CH   BYTE   INSEG    CODE           ?PR?IPS114_WRITEDATAI_16BIT_SIMSPI?SEEKFREE_IPS114_SPI
   *DEL*:           00004EH   BYTE   INSEG    CODE           ?PR?IPS114_SHOWSTR_SIMSPI?SEEKFREE_IPS114_SPI
   *DEL*:           00004EH   BYTE   INSEG    CODE           ?PR?IPS114_SHOWSTR?SEEKFREE_IPS114_SPI
   *DEL*:           000029H   BYTE   INSEG    CODE           ?PR?IPS114_WRITEINDEX_SIMSPI?SEEKFREE_IPS114_SPI
   *DEL*:           000029H   BYTE   INSEG    CODE           ?PR?IPS114_WRITEDATA_SIMSPI?SEEKFREE_IPS114_SPI
   *DEL*:           00000AH   BYTE   INSEG    CODE           ?PR?IPS114_WRITEINDEX?SEEKFREE_IPS114_SPI
   *DEL*:           00000AH   BYTE   INSEG    CODE           ?PR?IPS114_WRITEDATA?SEEKFREE_IPS114_SPI
   *DEL*:           000044H   BYTE   INSEG    CODE           ?PR?IPS114_SET_REGION_SIMSPI?SEEKFREE_IPS114_SPI
   *DEL*:           00014FH   BYTE   INSEG    CODE           ?PR?IPS114_INIT_SIMSPI?SEEKFREE_IPS114_SPI
   *DEL*:           000048H   BYTE   INSEG    CODE           ?PR?IPS114_SET_REGION?SEEKFREE_IPS114_SPI
   *DEL*:           00016DH   BYTE   INSEG    CODE           ?PR?IPS114_INIT?SEEKFREE_IPS114_SPI
   *DEL*:           000004H   BYTE   UNIT     EDATA          ?ED?IPS114_SET_REGION_SIMSPI?SEEKFREE_IPS114_SPI
   *DEL*:           000002H   BYTE   UNIT     EDATA          ?ED?IPS114_CLEAR_SIMSPI?SEEKFREE_IPS114_SPI
   *DEL*:           000004H   BYTE   UNIT     EDATA          ?ED?IPS114_SHOWCHAR_SIMSPI?SEEKFREE_IPS114_SPI
   *DEL*:           000006H   BYTE   UNIT     EDATA          ?ED?IPS114_SHOWSTR_SIMSPI?SEEKFREE_IPS114_SPI
   *DEL*:           000005H   BYTE   UNIT     EDATA          ?ED?IPS114_SHOWINT8_SIMSPI?SEEKFREE_IPS114_SPI
   *DEL*:           000004H   BYTE   UNIT     EDATA          ?ED?IPS114_SHOWUINT8_SIMSPI?SEEKFREE_IPS114_SPI
   *DEL*:           000008H   BYTE   UNIT     EDATA          ?ED?IPS114_SHOWINT16_SIMSPI?SEEKFREE_IPS114_SPI
   *DEL*:           000006H   BYTE   UNIT     EDATA          ?ED?IPS114_SHOWUINT16_SIMSPI?SEEKFREE_IPS114_SPI
   *DEL*:           000028H   BYTE   UNIT     EDATA          ?ED?IPS114_SHOWINT32_SIMSPI?SEEKFREE_IPS114_SPI
   *DEL*:           00002BH   BYTE   UNIT     EDATA          ?ED?IPS114_SHOWFLOAT_SIMSPI?SEEKFREE_IPS114_SPI
   *DEL*:           000002H   BYTE   UNIT     EDATA          ?ED?IPS114_WRITEDATA_16BIT?SEEKFREE_IPS114_SPI
   *DEL*:           000004H   BYTE   UNIT     EDATA          ?ED?IPS114_SET_REGION?SEEKFREE_IPS114_SPI
   *DEL*:           000002H   BYTE   UNIT     EDATA          ?ED?IPS114_CLEAR?SEEKFREE_IPS114_SPI
L251 LINKER/LOCATER V4.66.93.0                                                        07/20/2024  17:24:57  PAGE 11


   *DEL*:           000004H   BYTE   UNIT     EDATA          ?ED?IPS114_SHOWCHAR?SEEKFREE_IPS114_SPI
   *DEL*:           000006H   BYTE   UNIT     EDATA          ?ED?IPS114_SHOWSTR?SEEKFREE_IPS114_SPI
   *DEL*:           000005H   BYTE   UNIT     EDATA          ?ED?IPS114_SHOWINT8?SEEKFREE_IPS114_SPI
   *DEL*:           000004H   BYTE   UNIT     EDATA          ?ED?IPS114_SHOWUINT8?SEEKFREE_IPS114_SPI
   *DEL*:           000008H   BYTE   UNIT     EDATA          ?ED?IPS114_SHOWINT16?SEEKFREE_IPS114_SPI
   *DEL*:           000006H   BYTE   UNIT     EDATA          ?ED?IPS114_SHOWUINT16?SEEKFREE_IPS114_SPI
   *DEL*:           000028H   BYTE   UNIT     EDATA          ?ED?IPS114_SHOWINT32?SEEKFREE_IPS114_SPI
   *DEL*:           00002BH   BYTE   UNIT     EDATA          ?ED?IPS114_SHOWFLOAT?SEEKFREE_IPS114_SPI
   *DEL*:           000070H   BYTE   INSEG    CODE           ?PR?CCD_SEND_DATA?SEEKFREE_TSL1401
   *DEL*:           000016H   BYTE   INSEG    CODE           ?PR?CCD_INIT?SEEKFREE_TSL1401
   *DEL*:           000035H   BYTE   INSEG    CODE           ?PR?CCD_COLLECT?SEEKFREE_TSL1401
   *DEL*:           000003H   BYTE   UNIT     EDATA          ?ED?CCD_SEND_DATA?SEEKFREE_TSL1401
   *DEL*:           00003AH   BYTE   INSEG    CODE           ?PR?CRC_CHECK?SEEKFREE_VIRSCO
   *DEL*:           000069H   BYTE   INSEG    CODE           ?PR?DATA_CONVERSION?SEEKFREE_VIRSCO
   *DEL*:           000004H   BYTE   UNIT     EDATA          ?ED?DATA_CONVERSION?SEEKFREE_VIRSCO
   *DEL*:           000022H   BYTE   INSEG    CODE           ?PR?WIRELESS_UART_READ_BUFF?SEEKFREE_WIRELESS
   *DEL*:           00005DH   BYTE   INSEG    CODE           ?PR?WIRELESS_UART_SEND_BUFF?SEEKFREE_WIRELESS
   *DEL*:           00003CH   BYTE   INSEG    CODE           ?PR?WIRELESS_UART_INIT?SEEKFREE_WIRELESS
   *DEL*:           000002H   BYTE   UNIT     EDATA          ?ED?WIRELESS_UART_SEND_BUFF?SEEKFREE_WIRELESS
   *DEL*:           000004H   BYTE   UNIT     EDATA          ?ED?WIRELESS_UART_READ_BUFF?SEEKFREE_WIRELESS
   *DEL*:           000022H   BYTE   INSEG    CODE           ?PR?WIRELESS_CH573_READ_BUFF?SEEKFREE_WIRELESS_CH573
   *DEL*:           00005DH   BYTE   INSEG    CODE           ?PR?WIRELESS_CH573_SEND_BUFF?SEEKFREE_WIRELESS_CH573
   *DEL*:           00003CH   BYTE   INSEG    CODE           ?PR?WIRELESS_CH573_INIT?SEEKFREE_WIRELESS_CH573
   *DEL*:           000002H   BYTE   UNIT     EDATA          ?ED?WIRELESS_CH573_SEND_BUFF?SEEKFREE_WIRELESS_CH573
   *DEL*:           000004H   BYTE   UNIT     EDATA          ?ED?WIRELESS_CH573_READ_BUFF?SEEKFREE_WIRELESS_CH573
   *DEL*:           000012H   BYTE   INSEG    CODE           ?PR?MOTOR_TEST?MOTOR
   *DEL*:           000013H   BYTE   INSEG    CODE           ?PR?MPU_SET_GYRO_FSR?MPU6050
   *DEL*:           000058H   BYTE   INSEG    CODE           ?PR?MPU_GET_ACCELEROMETER?MPU6050
   *DEL*:           000041H   BYTE   INSEG    CODE           ?PR?MPU_SET_LPF?MPU6050
   *DEL*:           000016H   BYTE   INSEG    CODE           ?PR?MPU_READ_BYTE?MPU6050
   *DEL*:           000013H   BYTE   INSEG    CODE           ?PR?MPU_SET_ACCEL_FSR?MPU6050
   *DEL*:           000031H   BYTE   INSEG    CODE           ?PR?ZERO_ALL?MPU6050
   *DEL*:           000069H   BYTE   INSEG    CODE           ?PR?MPU_INIT?MPU6050
   *DEL*:           00003BH   BYTE   INSEG    CODE           ?PR?MPU_GET_TEMPERATURE?MPU6050
   *DEL*:           000037H   BYTE   INSEG    CODE           ?PR?MPU_SET_RATE?MPU6050
   *DEL*:           000001H   BYTE   UNIT     EDATA          ?ED?MPU_READ_BYTE?MPU6050
   *DEL*:           000002H   BYTE   UNIT     EDATA          ?ED?MPU_GET_TEMPERATURE?MPU6050
   *DEL*:           00000EH   BYTE   UNIT     EDATA          ?ED?MPU_GET_ACCELEROMETER?MPU6050
   *DEL*:           00002DH   BYTE   INSEG    CODE           ?PR?OLED_CHANGE_VALUE?UI
   *DEL*:           00005FH   BYTE   INSEG    CODE           ?PR?SONAR?HCSR04
   *DEL*:           00002CH   BYTE   INSEG    CODE           ?PR?HC_SR04_INIT?HCSR04



OVERLAY MAP OF MODULE:   .\Out_File\SEEKFREE (board)


FUNCTION/MODULE                               EDATA_GROUP
--> CALLED FUNCTION/MODULE                    START  STOP
=========================================================
UART1_Isr/isr                                 ----- -----

*** NEW ROOT ********************************

UART2_Isr/isr                                 ----- -----

*** NEW ROOT ********************************

UART3_Isr/isr                                 ----- -----

*** NEW ROOT ********************************

UART4_Isr/isr                                 ----- -----
  +--> wireless_uart_callback/SEEKFREE_WIRELESS
  +--> bluetooth_ch9141_uart_callback/SEEKFREE_BLUETOOTH_CH9141
L251 LINKER/LOCATER V4.66.93.0                                                        07/20/2024  17:24:57  PAGE 12


  +--> wireless_ch573_callback/SEEKFREE_WIRELESS_CH573

wireless_uart_callback/SEEKFREE_WIRELESS      ----- -----
  +--> fifo_write_buffer/zf_fifo

fifo_write_buffer/zf_fifo                     03EEH 03F9H
  +--> memcpy?_/memcpy
  +--> fifo_head_offset/zf_fifo

memcpy?_/memcpy                               ----- -----

fifo_head_offset/zf_fifo                      ----- -----

bluetooth_ch9141_uart_callback/SEEKFREE_+     ----- -----
... BLUETOOTH_CH9141
  +--> fifo_write_buffer/zf_fifo

wireless_ch573_callback/SEEKFREE_WIRELES+     ----- -----
... S_CH573
  +--> fifo_write_buffer/zf_fifo

*** NEW ROOT ********************************

INT0_Isr/isr                                  ----- -----

*** NEW ROOT ********************************

INT1_Isr/isr                                  ----- -----

*** NEW ROOT ********************************

INT2_Isr/isr                                  ----- -----

*** NEW ROOT ********************************

INT3_Isr/isr                                  ----- -----

*** NEW ROOT ********************************

INT4_Isr/isr                                  ----- -----

*** NEW ROOT ********************************

TM0_Isr/isr                                   ----- -----

*** NEW ROOT ********************************

TM1_Isr/isr                                   ----- -----

*** NEW ROOT ********************************

TM2_Isr/isr                                   ----- -----

*** NEW ROOT ********************************

TM3_Isr/isr                                   ----- -----

*** NEW ROOT ********************************

TM4_Isr/isr                                   ----- -----
  +--> Get_Speed/motor
  +--> ADC_GetValue/ADC
  +--> Get_Ratio/isr
  +--> vl53l0x_get_distance/TOF
  +--> Num2Abs/motor
L251 LINKER/LOCATER V4.66.93.0                                                        07/20/2024  17:24:57  PAGE 13


  +--> Elem_Circle/Element
  +--> Elem_Barrier/Element
  +--> Limit_Out/motor
  +--> PID_Calculate/PID
  +--> PID_Incremental_Calc/PID
  +--> Left_SetSpeed/motor
  +--> Right_SetSpeed/motor
  +--> pwm_duty/zf_pwm

Get_Speed/motor                               ----- -----
  +--> ctimer_count_read/zf_tim
  +--> ctimer_count_clean/zf_tim

ctimer_count_read/zf_tim                      ----- -----

ctimer_count_clean/zf_tim                     ----- -----

ADC_GetValue/ADC                              ----- -----
  +--> adc_once/zf_adc

adc_once/zf_adc                               ----- -----

Get_Ratio/isr                                 ----- -----

vl53l0x_get_distance/TOF                      03FAH 03FCH
  +--> vl53l0x_simiic_read_regs_1/TOF
  +--> abs?_/ABS

vl53l0x_simiic_read_regs_1/TOF                03FDH 0402H
  +--> vl53l0x_simiic_start/TOF
  +--> vl53l0x_send_ch/TOF
  +--> vl53l0x_read_ch/TOF
  +--> vl53l0x_simiic_stop/TOF

vl53l0x_simiic_start/TOF                      ----- -----
  +--> vl53l0x_simiic_delay/TOF

vl53l0x_simiic_delay/TOF                      ----- -----

vl53l0x_send_ch/TOF                           ----- -----
  +--> vl53l0x_simiic_delay/TOF
  +--> vl53l0x_sccb_waitack/TOF

vl53l0x_sccb_waitack/TOF                      ----- -----
  +--> vl53l0x_simiic_delay/TOF

vl53l0x_read_ch/TOF                           ----- -----
  +--> vl53l0x_simiic_delay/TOF
  +--> vl53l0x_simiic_sendack/TOF

vl53l0x_simiic_sendack/TOF                    ----- -----
  +--> vl53l0x_simiic_delay/TOF

vl53l0x_simiic_stop/TOF                       ----- -----
  +--> vl53l0x_simiic_delay/TOF

abs?_/ABS                                     ----- -----

Num2Abs/motor                                 ----- -----

Elem_Circle/Element                           ----- -----

Elem_Barrier/Element                          ----- -----

Limit_Out/motor                               0402H 0405H
L251 LINKER/LOCATER V4.66.93.0                                                        07/20/2024  17:24:57  PAGE 14



PID_Calculate/PID                             03FAH 03FDH

PID_Incremental_Calc/PID                      03FAH 0401H
  +--> Limit_Out/motor

Left_SetSpeed/motor                           ----- -----
  +--> Num2Abs/motor
  +--> pwm_duty/zf_pwm

pwm_duty/zf_pwm                               ----- -----

Right_SetSpeed/motor                          ----- -----
  +--> Num2Abs/motor
  +--> pwm_duty/zf_pwm

*** NEW ROOT ********************************

?C_C51STARTUP                                 ----- -----

*** NEW ROOT ********************************

?C_C51STARTUP?3                               ----- -----
  +--> main/main

main/main                                     ----- -----
  +--> Init_all/main
  +--> EnableGlobalIRQ/board
  +--> PRINTF/PRINTF
  +--> ui_show/UI
  +--> GetKey_Value/Key
  +--> oled_all_static_state/UI
  +--> MPU6050_Refresh_DMP/MPU6050
  +--> MPU_Get_Gyroscope/MPU6050
  +--> Filter_Window/main
  +--> Speed_Gain/main
  +--> Elem_Up_Down/Element

Init_all/main                                 ----- -----
  +--> DisableGlobalIRQ/board
  +--> board_init/board
  +--> gpio_mode/zf_gpio
  +--> Key_Init/Key
  +--> vl53l0x_init/TOF
  +--> ui_init/UI
  +--> MPU6050_DMP_Init/MPU6050
  +--> pit_timer_ms/zf_tim
  +--> ctimer_count_init/zf_tim
  +--> Motor_Init/motor
  +--> Buzzer_Init/Buzzer
  +--> ADC_InitAll/ADC
  +--> PID_Init/PID
  +--> PID_Incremental_Init/PID

DisableGlobalIRQ/board                        ----- -----

board_init/board                              ----- -----
  +--> delay_init/zf_delay
  +--> uart_init/zf_uart

delay_init/zf_delay                           ----- -----
  +--> ?C?SLDIV/?C?SLDIV

?C?SLDIV/?C?SLDIV                             ----- -----
  +--> ?C?ULIDIV/?C?ULDIV
L251 LINKER/LOCATER V4.66.93.0                                                        07/20/2024  17:24:57  PAGE 15



?C?ULIDIV/?C?ULDIV                            ----- -----

uart_init/zf_uart                             0406H 040BH
  +--> ?C?ULIDIV/?C?ULDIV

gpio_mode/zf_gpio                             ----- -----

Key_Init/Key                                  ----- -----
  +--> gpio_mode/zf_gpio

vl53l0x_init/TOF                              0406H 0417H
  +--> memset?_/memset
  +--> vl53l0x_simiic_read_reg/TOF
  +--> vl53l0x_simiic_write_reg/TOF
  +--> vl53l0x_simiic_read_regs/TOF
  +--> vl53l0x_set_signal_rate_limit/TOF
  +--> vl53l0x_get_spad_info/TOF
  +--> PRINTF/PRINTF
  +--> vl53l0x_simiic_write_dats/TOF
  +--> vl53l0x_get_measurement_timing_budget/TOF
  +--> vl53l0x_set_measurement_timing_budget/TOF
  +--> vl53l0x_perform_single_ref_calibration/TOF
  +--> delay_ms/zf_delay

memset?_/memset                               ----- -----

vl53l0x_simiic_read_reg/TOF                   ----- -----
  +--> vl53l0x_simiic_start/TOF
  +--> vl53l0x_send_ch/TOF
  +--> vl53l0x_read_ch/TOF
  +--> vl53l0x_simiic_stop/TOF

vl53l0x_simiic_write_reg/TOF                  ----- -----
  +--> vl53l0x_simiic_start/TOF
  +--> vl53l0x_send_ch/TOF
  +--> vl53l0x_simiic_stop/TOF

vl53l0x_simiic_read_regs/TOF                  0442H 0447H
  +--> vl53l0x_simiic_start/TOF
  +--> vl53l0x_send_ch/TOF
  +--> vl53l0x_read_ch/TOF
  +--> vl53l0x_simiic_stop/TOF

vl53l0x_set_signal_rate_limit/TOF             0418H 041AH
  +--> vl53l0x_simiic_write_dats/TOF

vl53l0x_simiic_write_dats/TOF                 043BH 043FH
  +--> vl53l0x_simiic_start/TOF
  +--> vl53l0x_send_ch/TOF
  +--> vl53l0x_simiic_stop/TOF

vl53l0x_get_spad_info/TOF                     0418H 041FH
  +--> vl53l0x_simiic_write_reg/TOF
  +--> vl53l0x_simiic_read_regs/TOF

PRINTF/PRINTF                                 0418H 043FH
  +--> OUT/PRINTF

OUT/PRINTF                                    ----- -----
  +--> PUTCH/PRINTF

PUTCH/PRINTF                                  ----- -----
  +--> putchar/board
  +--> OUT/PRINTF
L251 LINKER/LOCATER V4.66.93.0                                                        07/20/2024  17:24:57  PAGE 16



putchar/board                                 ----- -----
  +--> uart_putchar/zf_uart

uart_putchar/zf_uart                          ----- -----

vl53l0x_get_measurement_timing_budget/TO+     0418H 0432H
... F
  +--> vl53l0x_get_sequence_step_enables/TOF
  +--> vl53l0x_get_sequence_step_timeouts/TOF

vl53l0x_get_sequence_step_enables/TOF         043BH 043BH
  +--> vl53l0x_simiic_read_regs/TOF

vl53l0x_get_sequence_step_timeouts/TOF        043BH 0440H
  +--> vl53l0x_get_vcsel_pulse_period/TOF
  +--> vl53l0x_simiic_read_regs/TOF
  +--> vl53l0x_timeout_mclks_to_microseconds/TOF
  +--> vl53l0x_decode_timeout/TOF

vl53l0x_get_vcsel_pulse_period/TOF            0441H 0441H
  +--> vl53l0x_simiic_read_regs/TOF

vl53l0x_timeout_mclks_to_microseconds/TO+     ----- -----
... F
  +--> ?C?ULIDIV/?C?ULDIV

vl53l0x_decode_timeout/TOF                    ----- -----

vl53l0x_set_measurement_timing_budget/TO+     0418H 043AH
... F
  +--> vl53l0x_get_sequence_step_enables/TOF
  +--> vl53l0x_get_sequence_step_timeouts/TOF
  +--> vl53l0x_timeout_microseconds_to_mclks/TOF
  +--> vl53l0x_encode_timeout/TOF
  +--> vl53l0x_simiic_write_dats/TOF

vl53l0x_timeout_microseconds_to_mclks/TO+     ----- -----
... F
  +--> ?C?ULIDIV/?C?ULDIV

vl53l0x_encode_timeout/TOF                    ----- -----

vl53l0x_perform_single_ref_calibration/T+     0418H 041AH
... OF
  +--> vl53l0x_simiic_write_reg/TOF
  +--> vl53l0x_simiic_read_regs/TOF

delay_ms/zf_delay                             ----- -----

ui_init/UI                                    ----- -----
  +--> oled_init/SEEKFREE_OLED
  +--> value_name_init/UI
  +--> oled_all_static_state/UI

oled_init/SEEKFREE_OLED                       ----- -----
  +--> delay_ms/zf_delay
  +--> oled_wrcmd/SEEKFREE_OLED
  +--> oled_fill/SEEKFREE_OLED
  +--> oled_set_pos/SEEKFREE_OLED

oled_wrcmd/SEEKFREE_OLED                      ----- -----

oled_fill/SEEKFREE_OLED                       ----- -----
  +--> oled_wrcmd/SEEKFREE_OLED
L251 LINKER/LOCATER V4.66.93.0                                                        07/20/2024  17:24:57  PAGE 17


  +--> oled_wrdat/SEEKFREE_OLED

oled_wrdat/SEEKFREE_OLED                      ----- -----

oled_set_pos/SEEKFREE_OLED                    ----- -----
  +--> oled_wrcmd/SEEKFREE_OLED

value_name_init/UI                            ----- -----
  +--> STRCPY?_/STRCPY?_

STRCPY?_/STRCPY?_                             ----- -----

oled_all_static_state/UI                      ----- -----
  +--> oled_p8x16str/SEEKFREE_OLED

oled_p8x16str/SEEKFREE_OLED                   0431H 0435H
  +--> oled_set_pos/SEEKFREE_OLED
  +--> oled_wrdat/SEEKFREE_OLED

MPU6050_DMP_Init/MPU6050                      ----- -----
  +--> initMPU6050/MPU6050
  +--> getDeviceID/MPU6050
  +--> dmpInitialize/MPU6050
  +--> MPU_Write_Bit/MPU6050

initMPU6050/MPU6050                           ----- -----
  +--> MPU_Write_Bits/MPU6050
  +--> MPU_Write_Bit/MPU6050

MPU_Write_Bits/MPU6050                        ----- -----
  +--> i2c_write_bits/MPU6050

i2c_write_bits/MPU6050                        040CH 040CH
  +--> i2c_mem_read/MPU6050
  +--> i2c_mem_write/MPU6050

i2c_mem_read/MPU6050                          0414H 0417H
  +--> i2c_start/MPU6050
  +--> i2c_write_byte/MPU6050
  +--> i2c_wait_ack/MPU6050
  +--> i2c_read_byte/MPU6050
  +--> i2c_stop/MPU6050

i2c_start/MPU6050                             ----- -----
  +--> I2C_SDA_H/MPU6050
  +--> I2C_SCL_H/MPU6050
  +--> i2c_delay/MPU6050
  +--> I2C_SDA_L/MPU6050
  +--> I2C_SCL_L/MPU6050

I2C_SDA_H/MPU6050                             ----- -----

I2C_SCL_H/MPU6050                             ----- -----

i2c_delay/MPU6050                             ----- -----

I2C_SDA_L/MPU6050                             ----- -----

I2C_SCL_L/MPU6050                             ----- -----

i2c_write_byte/MPU6050                        ----- -----
  +--> I2C_SCL_L/MPU6050
  +--> I2C_SDA_H/MPU6050
  +--> I2C_SDA_L/MPU6050
  +--> i2c_delay/MPU6050
L251 LINKER/LOCATER V4.66.93.0                                                        07/20/2024  17:24:57  PAGE 18


  +--> I2C_SCL_H/MPU6050

i2c_wait_ack/MPU6050                          ----- -----
  +--> I2C_SCL_H/MPU6050
  +--> i2c_delay/MPU6050
  +--> i2c_timeout_delay/MPU6050
  +--> i2c_stop/MPU6050
  +--> I2C_SDA_Read/MPU6050
  +--> I2C_SCL_L/MPU6050

i2c_timeout_delay/MPU6050                     ----- -----

i2c_stop/MPU6050                              ----- -----
  +--> I2C_SDA_L/MPU6050
  +--> I2C_SCL_H/MPU6050
  +--> i2c_delay/MPU6050
  +--> I2C_SDA_H/MPU6050

I2C_SDA_Read/MPU6050                          ----- -----

i2c_read_byte/MPU6050                         ----- -----
  +--> I2C_SCL_L/MPU6050
  +--> i2c_delay/MPU6050
  +--> I2C_SCL_H/MPU6050
  +--> I2C_SDA_Read/MPU6050
  +--> i2c_nack/MPU6050
  +--> i2c_ack/MPU6050

i2c_nack/MPU6050                              ----- -----
  +--> I2C_SCL_L/MPU6050
  +--> I2C_SDA_H/MPU6050
  +--> i2c_delay/MPU6050
  +--> I2C_SCL_H/MPU6050

i2c_ack/MPU6050                               ----- -----
  +--> I2C_SCL_L/MPU6050
  +--> I2C_SDA_L/MPU6050
  +--> i2c_delay/MPU6050
  +--> I2C_SCL_H/MPU6050
  +--> I2C_SDA_H/MPU6050

i2c_mem_write/MPU6050                         040FH 0412H
  +--> i2c_start/MPU6050
  +--> i2c_write_byte/MPU6050
  +--> i2c_wait_ack/MPU6050
  +--> i2c_stop/MPU6050

MPU_Write_Bit/MPU6050                         ----- -----
  +--> i2c_write_bit/MPU6050

i2c_write_bit/MPU6050                         040CH 040CH
  +--> i2c_mem_read/MPU6050
  +--> i2c_mem_write/MPU6050

getDeviceID/MPU6050                           0406H 0406H
  +--> MPU_Read_Bits/MPU6050

MPU_Read_Bits/MPU6050                         ----- -----
  +--> i2c_read_bits/MPU6050

i2c_read_bits/MPU6050                         040CH 040FH
  +--> i2c_mem_read/MPU6050

dmpInitialize/MPU6050                         0406H 040BH
  +--> MPU_Write_Bit/MPU6050
L251 LINKER/LOCATER V4.66.93.0                                                        07/20/2024  17:24:57  PAGE 19


  +--> MPU_Delay_Ms/MPU6050
  +--> MPU_Write_Byte/MPU6050
  +--> MPU_Read_Len/MPU6050
  +--> MPU_Read_Bit/MPU6050
  +--> MPU_Read_Bits/MPU6050
  +--> loadfirmware/MPU6050
  +--> loadcfgupd/MPU6050
  +--> MPU_Write_Bits/MPU6050
  +--> xdmpUpdates/MPU6050
  +--> getFIFOCount/MPU6050

MPU_Delay_Ms/MPU6050                          ----- -----
  +--> Delay1ms/MPU6050

Delay1ms/MPU6050                              ----- -----

MPU_Write_Byte/MPU6050                        040EH 040EH
  +--> i2c_mem_write/MPU6050

MPU_Read_Len/MPU6050                          ----- -----
  +--> i2c_mem_read/MPU6050

MPU_Read_Bit/MPU6050                          ----- -----
  +--> i2c_read_bit/MPU6050

i2c_read_bit/MPU6050                          040CH 040DH
  +--> i2c_mem_read/MPU6050

loadfirmware/MPU6050                          040CH 040DH
  +--> MPU_Write_Byte/MPU6050
  +--> MPU_Write_Len/MPU6050

MPU_Write_Len/MPU6050                         ----- -----
  +--> i2c_mem_write/MPU6050

loadcfgupd/MPU6050                            040CH 040DH
  +--> MPU_Write_Byte/MPU6050
  +--> MPU_Write_Len/MPU6050

xdmpUpdates/MPU6050                           040CH 040CH
  +--> MPU_Write_Byte/MPU6050
  +--> MPU_Write_Len/MPU6050

getFIFOCount/MPU6050                          040CH 040DH
  +--> MPU_Read_Len/MPU6050

pit_timer_ms/zf_tim                           ----- -----
  +--> ?C?SLDIV/?C?SLDIV

ctimer_count_init/zf_tim                      ----- -----

Motor_Init/motor                              ----- -----
  +--> pwm_init/zf_pwm

pwm_init/zf_pwm                               0406H 040DH
  +--> pwm_set_gpio/zf_pwm
  +--> ?C?ULIDIV/?C?ULDIV

pwm_set_gpio/zf_pwm                           ----- -----
  +--> gpio_mode/zf_gpio

Buzzer_Init/Buzzer                            ----- -----
  +--> pwm_init/zf_pwm

ADC_InitAll/ADC                               ----- -----
L251 LINKER/LOCATER V4.66.93.0                                                        07/20/2024  17:24:57  PAGE 20


  +--> adc_init/zf_adc

adc_init/zf_adc                               ----- -----

PID_Init/PID                                  0406H 0419H

PID_Incremental_Init/PID                      0406H 0416H

EnableGlobalIRQ/board                         ----- -----

ui_show/UI                                    ----- -----
  +--> refresh_value/UI
  +--> oled_show/UI

refresh_value/UI                              ----- -----

oled_show/UI                                  ----- -----
  +--> refresh_value/UI
  +--> oled_printf_float/SEEKFREE_OLED

oled_printf_float/SEEKFREE_OLED               0406H 0430H
  +--> zf_sprintf/SEEKFREE_PRINTF
  +--> oled_p8x16str/SEEKFREE_OLED

zf_sprintf/SEEKFREE_PRINTF                    0431H 048FH
  +--> number_conversion_ascii/SEEKFREE_PRINTF
  +--> printf_reverse_order/SEEKFREE_PRINTF
  +--> memcpy?_/memcpy

number_conversion_ascii/SEEKFREE_PRINTF       0490H 0490H
  +--> ?C?SLDIV/?C?SLDIV
  +--> ?C?ULIDIV/?C?ULDIV

printf_reverse_order/SEEKFREE_PRINTF          ----- -----

GetKey_Value/Key                              ----- -----

MPU6050_Refresh_DMP/MPU6050                   ----- -----
  +--> getFIFOCount/MPU6050
  +--> MPU_Read_Len/MPU6050
  +--> MPU_Write_Bit/MPU6050
  +--> readdmp/MPU6050
  +--> atan2?_/atan2

readdmp/MPU6050                               ----- -----
  +--> MPU_Read_Len/MPU6050

atan2?_/atan2                                 ----- -----

MPU_Get_Gyroscope/MPU6050                     0406H 0413H
  +--> MPU_Read_Len/MPU6050

Filter_Window/main                            ----- -----

Speed_Gain/main                               ----- -----

Elem_Up_Down/Element                          ----- -----

*** NEW ROOT ********************************

?C_C51STARTUP?2                               ----- -----



PUBLIC SYMBOLS OF MODULE:  .\Out_File\SEEKFREE (board)
L251 LINKER/LOCATER V4.66.93.0                                                        07/20/2024  17:24:57  PAGE 21




      VALUE       CLASS    TYPE      PUBLIC SYMBOL NAME
      =================================================
      00FF111EH   CODE     NEAR LAB  ?C?CASTF
      000000FFH   NUMBER   ---       ?C?CODESEG
      00FF10EBH   CODE     NEAR LAB  ?C?FCASTC
      00FF10E6H   CODE     NEAR LAB  ?C?FCASTI
      00FF10E1H   CODE     NEAR LAB  ?C?FCASTL
      00FF18BFH   CODE     ---       ?C?FP2SERIES
      00FF0EB4H   CODE     ---       ?C?FPADD
      00FF108FH   CODE     ---       ?C?FPCMP
      00FF108DH   CODE     ---       ?C?FPCMP3
      00FF17C4H   CODE     ---       ?C?FPCONVERT
      00FF100CH   CODE     ---       ?C?FPDIV
      00FF1237H   CODE     ---       ?C?FPGETOPN2
      00FF0F6CH   CODE     ---       ?C?FPMUL
      00FF1274H   CODE     ---       ?C?FPNANRESULT
      00FF10D3H   CODE     ---       ?C?FPNEG
      00FF127CH   CODE     ---       ?C?FPOVERFLOW
      00FF1250H   CODE     ---       ?C?FPRESULT
      00FF1266H   CODE     ---       ?C?FPRESULT2
      00FF187CH   CODE     ---       ?C?FPROUND
      00FF18C8H   CODE     ---       ?C?FPSERIES
      00FF0EB1H   CODE     ---       ?C?FPSUB
      00FF1279H   CODE     ---       ?C?FPUNDERFLOW
      00FF191CH   CODE     ---       ?C?FTNPWR
      00FF652DH   CODE     ---       ?C?INITEDATA
      00FF6EE8H   HCONST   WORD      ?C?INITEDATA_END
      00FF1996H   CODE     ---       ?C?LIMUL
      00FF1985H   CODE     ---       ?C?LMUL
      00FF12B5H   CODE     ---       ?C?PRNFMT
      00FF1953H   CODE     ---       ?C?SIDIV
      00FF19F2H   CODE     NEAR LAB  ?C?SLDIV
      00FF0000H   CODE     ---       ?C?STARTUP
      00FF19A1H   CODE     NEAR LAB  ?C?ULDIV
      00FF199FH   CODE     NEAR LAB  ?C?ULIDIV
      00000001H   NUMBER   ---       ?C?XDATASEG
      00FF0000H   CODE     ---       ?C_STARTUP
*DEL*:1FFFFFF8H   EDATA    BYTE      ?data_conversion?BYTE
*DEL*:1FFFFFF8H   EDATA    BYTE      ?fifo_init?BYTE
*DEL*:1FFFFFFCH   EDATA    BYTE      ?fifo_read_buffer?BYTE
      000003EAH   EDATA    BYTE      ?fifo_write_buffer?BYTE
*DEL*:1FFFFFFAH   EDATA    BYTE      ?iic_init?BYTE
*DEL*:1FFFFFFCH   EDATA    BYTE      ?ips114_showfloat?BYTE
*DEL*:1FFFFFFCH   EDATA    BYTE      ?ips114_showfloat_simspi?BYTE
*DEL*:1FFFFFFCH   EDATA    BYTE      ?lcd_showfloat?BYTE
*DEL*:1FFFFFFCH   EDATA    BYTE      ?lcd_showfloat_simspi?BYTE
      000003FAH   EDATA    BYTE      ?Limit_Out?BYTE
*DEL*:1FFFFFFCH   EDATA    BYTE      ?MPU_Get_Accelerometer?BYTE
      00000402H   EDATA    BYTE      ?MPU_Get_Gyroscope?BYTE
      00000487H   EDATA    BYTE      ?number_conversion_ascii?BYTE
      00000402H   EDATA    BYTE      ?oled_printf_float?BYTE
*DEL*:1FFFFFFCH   EDATA    BYTE      ?oled_printf_float_spi?BYTE
      000003F2H   EDATA    BYTE      ?PID_Calculate?BYTE
      000003F2H   EDATA    BYTE      ?PID_Incremental_Calc?BYTE
      000003FEH   EDATA    BYTE      ?PID_Incremental_Init?BYTE
      000003FEH   EDATA    BYTE      ?PID_Init?BYTE
      00000440H   EDATA    ---       ?printf?BYTE
*DEL*:1FFFFFFAH   EDATA    BYTE      ?pwm_freq?BYTE
      00000404H   EDATA    BYTE      ?pwm_init?BYTE
*DEL*:1FFFFFF7H   EDATA    BYTE      ?spi_init?BYTE
      00000400H   EDATA    BYTE      ?uart_init?BYTE
      00000459H   EDATA    BYTE      ?zf_sprintf?BYTE
      00FF6C38H   CODE     ---       abs?_
L251 LINKER/LOCATER V4.66.93.0                                                        07/20/2024  17:24:57  PAGE 22


      00000550H   EDATA    FLOAT     Act_PwmL
      000004FCH   EDATA    FLOAT     Act_PwmR
      00000664H   EDATA    ---       ADC_Array_Original
*SFR* 000000BCH   DATA     BYTE      ADC_CONTR
      00FF4873H   CODE     ---       ADC_GetValue
      00FF5FEEH   CODE     ---       adc_init
      00FF68E0H   CODE     ---       ADC_InitAll
      00FF682EH   CODE     ---       adc_once
      000006A0H   EDATA    ---       ADC_proc
*SFR* 000000BDH   DATA     BYTE      ADC_RES
*SFR* 000000BEH   DATA     BYTE      ADC_RESL
*SFR* 000000DEH   DATA     BYTE      ADCCFG
      000006B9H   EDATA    FLOAT     Adjust_Val
      00000531H   EDATA    FLOAT     Angle_Edge
      00FF1217H   CODE     ---       asin?_
*DEL*:00000000H   CODE     ---       at24c02_read_byte
*DEL*:00000000H   CODE     ---       at24c02_read_bytes
*DEL*:00000000H   CODE     ---       at24c02_write_byte
*DEL*:00000000H   CODE     ---       at24c02_write_bytes
      00FF6389H   CODE     ---       atan2?_
      00FF16E4H   CODE     ---       ATAN?_
*SFR* 000000EFH   DATA     BYTE      AUXINTIF
*SFR* 0000008EH   DATA     BYTE      AUXR
      000006FAH   EDATA    CHAR      Barrier_Executed
      000006ECH   EDATA    CHAR      Barrier_Flag1
      000006EFH   EDATA    CHAR      Barrier_Flag2
      000006F0H   EDATA    CHAR      Barrier_Flag3
*DEL*:00000000H   CODE     ---       bluetooth_ch9141_init
*DEL*:00000000H   CODE     ---       bluetooth_ch9141_read_buff
*DEL*:00000000H   CODE     ---       bluetooth_ch9141_send_buff
      00FF6B1EH   CODE     ---       bluetooth_ch9141_uart_callback
      00FF5A1CH   CODE     ---       board_init
      000003E9H   EDATA    ---       busy
      00FF6C17H   CODE     ---       Buzzer_Init
*DEL*:00000000H   CODE     ---       ccd_collect
      0000013EH   EDATA    ---       ccd_data
*DEL*:00000000H   CODE     ---       ccd_init
*DEL*:00000000H   CODE     ---       ccd_send_data
      00000700H   EDATA    INT       circle_Delay1
      000006EDH   EDATA    INT       Circle_Delay2
      000006F1H   EDATA    FLOAT     Circle_Flag1
      000006F5H   EDATA    FLOAT     Circle_Flag2
      000006F9H   EDATA    CHAR      Circle_Flag3
      00000763H   EDATA    CHAR      clear_Num
      00000524H   EDATA    CHAR      count
      0000051EH   EDATA    INT       CountDown
*DEL*:00000000H   CODE     ---       CRC_CHECK
      00FF6254H   CODE     ---       ctimer_count_clean
      00FF633FH   CODE     ---       ctimer_count_init
      00FF62A5H   CODE     ---       ctimer_count_read
*DEL*:00000000H   CODE     ---       data_conversion
      00FF6CD6H   CODE     ---       Delay1ms
      00FF6689H   CODE     ---       delay_init
      00FF6B69H   CODE     ---       delay_ms
*DEL*:00000000H   CODE     ---       delay_us
      0000054CH   EDATA    FLOAT     Diff
      00000548H   EDATA    FLOAT     Diff_Mid
      000006E7H   EDATA    FLOAT     Dis_Bar
      000006B5H   EDATA    FLOAT     Dis_Process
      00FF0016H   CODE     ---       DisableGlobalIRQ
      00000535H   EDATA    CHAR      Distance_Num
      00FF1A55H   CODE     ---       dmpcfgupddata
      000004C1H   EDATA    ---       dmpdatas
      00FF3DB7H   CODE     ---       dmpInitialize
      00FF1B15H   CODE     ---       dmpmemorydata
L251 LINKER/LOCATER V4.66.93.0                                                        07/20/2024  17:24:57  PAGE 23


      00FF1A26H   CODE     ---       dmpUpdates
      000006FBH   EDATA    CHAR      Down_Flag
*SFR* 000000A8H.7 DATA     BIT       EA
      00000540H   EDATA    CHAR      Edge_Delay
*DEL*:00000000H   CODE     ---       eeprom_trig
      00FF4BF1H   CODE     ---       Elem_Barrier
      00FF3FE3H   CODE     ---       Elem_Circle
      00FF64D9H   CODE     ---       Elem_Up_Down
      00FF000EH   CODE     ---       EnableGlobalIRQ
*DEL*:00000000H   CODE     ---       encoder_angle_simspi
*DEL*:00000000H   CODE     ---       encoder_angle_spi
*DEL*:00000000H   CODE     ---       encoder_delay_us
*DEL*:00000000H   CODE     ---       encoder_init_simspi
*DEL*:00000000H   CODE     ---       encoder_init_spi
*DEL*:00000000H   CODE     ---       encoder_self4_check
*DEL*:00000000H   CODE     ---       encoder_self5_check
*DEL*:00000000H   CODE     ---       encoder_simspi_r_reg_byte
*DEL*:00000000H   CODE     ---       encoder_simspi_w_reg_byte
*DEL*:00000000H   CODE     ---       encoder_spi_r_reg_byte
*DEL*:00000000H   CODE     ---       encoder_spi_w_reg_byte
*SFR* 000000A8H.4 DATA     BIT       ES
*SFR* 000000A8H.1 DATA     BIT       ET0
*SFR* 000000A8H.3 DATA     BIT       ET1
*SFR* 000000A8H.0 DATA     BIT       EX0
*SFR* 000000A8H.2 DATA     BIT       EX1
*DEL*:00000000H   CODE     ---       exit_init
      00000508H   EDATA    FLOAT     Exp_Speed
      0000050EH   EDATA    FLOAT     Exp_Speed_gain
      00000525H   EDATA    FLOAT     Exp_Speed_L
      00000529H   EDATA    FLOAT     Exp_Speed_R
*DEL*:00000000H   CODE     ---       extern_iap_write_bytes
*SFR* 000000D0H.5 DATA     BIT       F0
*DEL*:00000000H   CODE     ---       fifo_clear
*DEL*:00000000H   CODE     ---       fifo_end_offset
      00FF6455H   CODE     ---       fifo_head_offset
*DEL*:00000000H   CODE     ---       fifo_init
*DEL*:00000000H   CODE     ---       fifo_read_buffer
*DEL*:00000000H   CODE     ---       fifo_used
      00FF50A0H   CODE     ---       fifo_write_buffer
      00FF688AH   CODE     ---       Filter_Window
      00000536H   EDATA    FLOAT     Flag_Out_L
      0000053CH   EDATA    FLOAT     Flag_Out_R
      0000050DH   EDATA    CHAR      Flag_Stop
*DEL*:00000000H   CODE     ---       get_icm20602_accdata_simiic
*DEL*:00000000H   CODE     ---       get_icm20602_accdata_simspi
*DEL*:00000000H   CODE     ---       get_icm20602_gyro_simiic
*DEL*:00000000H   CODE     ---       get_icm20602_gyro_simspi
      00FF49BEH   CODE     ---       Get_Ratio
      00FF525BH   CODE     ---       Get_Speed
      00FF6A88H   CODE     ---       getDeviceID
      00FF0026H   CODE     ---       getFIFOCount
      00FF5D05H   CODE     ---       GetKey_Value
      00FF31A1H   CODE     ---       gpio_mode
*DEL*:00000000H   CODE     ---       gpio_pull_set
      00000542H   EDATA    INT       gx
      00000544H   EDATA    INT       gy
      00000546H   EDATA    INT       gz
*DEL*:00000000H   CODE     ---       HC_SR04_Init
      00FF6B80H   CODE     ---       i2c_ack
      00FF6CCBH   CODE     ---       i2c_delay
      00FF5B9BH   CODE     ---       i2c_mem_read
      00FF5F8FH   CODE     ---       i2c_mem_write
      00FF6BD1H   CODE     ---       i2c_nack
      00FF6795H   CODE     ---       i2c_read_bit
      00FF5E5BH   CODE     ---       i2c_read_bits
L251 LINKER/LOCATER V4.66.93.0                                                        07/20/2024  17:24:57  PAGE 24


      00FF66C2H   CODE     ---       i2c_read_byte
      00FF005EH   CODE     ---       I2C_SCL_H
      00FF0086H   CODE     ---       I2C_SCL_L
      00FF001EH   CODE     ---       I2C_SDA_H
      00FF0056H   CODE     ---       I2C_SDA_L
      00FF0006H   CODE     ---       I2C_SDA_Read
      00FF6BE3H   CODE     ---       i2c_start
      00FF6C48H   CODE     ---       i2c_stop
      00FF6CB5H   CODE     ---       i2c_timeout_delay
      00FF690BH   CODE     ---       i2c_wait_ack
      00FF604CH   CODE     ---       i2c_write_bit
      00FF5B1EH   CODE     ---       i2c_write_bits
      00FF67C8H   CODE     ---       i2c_write_byte
*SFR* 000000F6H   DATA     BYTE      IAP_ADDRE
*SFR* 000000C3H   DATA     BYTE      IAP_ADDRH
*SFR* 000000C4H   DATA     BYTE      IAP_ADDRL
*SFR* 000000C5H   DATA     BYTE      IAP_CMD
*SFR* 000000C7H   DATA     BYTE      IAP_CONTR
*SFR* 000000C2H   DATA     BYTE      IAP_DATA
*DEL*:00000000H   CODE     ---       iap_erase_page
*DEL*:00000000H   CODE     ---       iap_get_cmd_state
*DEL*:00000000H   CODE     ---       iap_idle
*DEL*:00000000H   CODE     ---       iap_init
*DEL*:00000000H   CODE     ---       iap_read_bytes
*DEL*:00000000H   CODE     ---       iap_set_tps
*SFR* 000000F5H   DATA     BYTE      IAP_TPS
*SFR* 000000C6H   DATA     BYTE      IAP_TRIG
*DEL*:00000000H   CODE     ---       iap_write_bytes
*DEL*:00000000H   CODE     ---       icm20602_init_simiic
*DEL*:00000000H   CODE     ---       icm20602_init_simspi
*DEL*:00000000H   CODE     ---       icm20602_self1_check
*DEL*:00000000H   CODE     ---       icm20602_self4_check
      0000073AH   EDATA    INT       icm_acc_x
      0000073CH   EDATA    INT       icm_acc_y
      0000073EH   EDATA    INT       icm_acc_z
      00000740H   EDATA    INT       icm_gyro_x
      00000742H   EDATA    INT       icm_gyro_y
      00000744H   EDATA    INT       icm_gyro_z
*DEL*:00000000H   CODE     ---       icm_simspi_r_reg_byte
*DEL*:00000000H   CODE     ---       icm_simspi_r_reg_bytes
*DEL*:00000000H   CODE     ---       icm_simspi_w_reg_byte
*DEL*:00000000H   CODE     ---       icm_simspi_wr_byte
*SFR* 000000A8H   DATA     BYTE      IE
*SFR* 000000AFH   DATA     BYTE      IE2
      00000750H   EDATA    BYTE      IIC_ad_main
      00000752H   EDATA    BYTE      IIC_ad_sub
      00000753H   EDATA    ---       IIC_buf
*DEL*:00000000H   CODE     ---       iic_change_pin
*DEL*:00000000H   CODE     ---       iic_delay_us
*DEL*:00000000H   CODE     ---       iic_init
      00000751H   EDATA    BYTE      IIC_num
*DEL*:00000000H   CODE     ---       iic_read_reg
*DEL*:00000000H   CODE     ---       iic_read_reg_bytes
*DEL*:00000000H   CODE     ---       iic_write_reg
      00FF4AF5H   CODE     ---       Init_all
      00FF67FBH   CODE     ---       initMPU6050
      00FF6D1AH   CODE     ---       INT0_Isr
      00FF0011H   CODE     ---       INT1_Isr
      00FF6CF2H   CODE     ---       INT2_Isr
      00FF6CFAH   CODE     ---       INT3_Isr
      00FF6D02H   CODE     ---       INT4_Isr
*SFR* 0000008FH   DATA     BYTE      INTCLKO
*SFR* 000000B8H   DATA     BYTE      IP
*SFR* 000000B5H   DATA     BYTE      IP2
*SFR* 000000B6H   DATA     BYTE      IP2H
L251 LINKER/LOCATER V4.66.93.0                                                        07/20/2024  17:24:57  PAGE 25


*SFR* 000000B7H   DATA     BYTE      IPH
*DEL*:00000000H   CODE     ---       ips114_clear
*DEL*:00000000H   CODE     ---       ips114_clear_simspi
*DEL*:00000000H   CODE     ---       ips114_drawpoint
*DEL*:00000000H   CODE     ---       ips114_drawpoint_simspi
*DEL*:00000000H   CODE     ---       ips114_init
*DEL*:00000000H   CODE     ---       ips114_init_simspi
*DEL*:00000000H   CODE     ---       ips114_set_region
*DEL*:00000000H   CODE     ---       ips114_set_region_simspi
*DEL*:00000000H   CODE     ---       ips114_showchar
*DEL*:00000000H   CODE     ---       ips114_showchar_simspi
*DEL*:00000000H   CODE     ---       ips114_showfloat
*DEL*:00000000H   CODE     ---       ips114_showfloat_simspi
*DEL*:00000000H   CODE     ---       ips114_showint16
*DEL*:00000000H   CODE     ---       ips114_showint16_simspi
*DEL*:00000000H   CODE     ---       ips114_showint32
*DEL*:00000000H   CODE     ---       ips114_showint32_simspi
*DEL*:00000000H   CODE     ---       ips114_showint8
*DEL*:00000000H   CODE     ---       ips114_showint8_simspi
*DEL*:00000000H   CODE     ---       ips114_showstr
*DEL*:00000000H   CODE     ---       ips114_showstr_simspi
*DEL*:00000000H   CODE     ---       ips114_showuint16
*DEL*:00000000H   CODE     ---       ips114_showuint16_simspi
*DEL*:00000000H   CODE     ---       ips114_showuint8
*DEL*:00000000H   CODE     ---       ips114_showuint8_simspi
*DEL*:00000000H   CODE     ---       ips114_writeData
*DEL*:00000000H   CODE     ---       ips114_writedata_16bit
*DEL*:00000000H   CODE     ---       ips114_writeData_simspi
*DEL*:00000000H   CODE     ---       ips114_writeDatai_16bit_simspi
*DEL*:00000000H   CODE     ---       ips114_writeIndex
*DEL*:00000000H   CODE     ---       ips114_writeIndex_simspi
      00000541H   EDATA    CHAR      Isr_Flag_10
*SFR* 00000088H.0 DATA     BIT       IT0
*SFR* 00000088H.2 DATA     BIT       IT1
      00FF69FCH   CODE     ---       Key_Init
      000006B4H   EDATA    CHAR      KeyValue
*DEL*:00000000H   CODE     ---       lcd_clear
*DEL*:00000000H   CODE     ---       lcd_clear_simspi
*DEL*:00000000H   CODE     ---       lcd_drawpoint
*DEL*:00000000H   CODE     ---       lcd_drawpoint_simspi
*DEL*:00000000H   CODE     ---       lcd_init
*DEL*:00000000H   CODE     ---       lcd_init_simspi
*DEL*:00000000H   CODE     ---       lcd_set_region
*DEL*:00000000H   CODE     ---       lcd_set_region_simspi
*DEL*:00000000H   CODE     ---       lcd_showchar
*DEL*:00000000H   CODE     ---       lcd_showchar_simspi
*DEL*:00000000H   CODE     ---       lcd_showfloat
*DEL*:00000000H   CODE     ---       lcd_showfloat_simspi
*DEL*:00000000H   CODE     ---       lcd_showint16
*DEL*:00000000H   CODE     ---       lcd_showint16_simspi
*DEL*:00000000H   CODE     ---       lcd_showint32
*DEL*:00000000H   CODE     ---       lcd_showint32_simspi
*DEL*:00000000H   CODE     ---       lcd_showint8
*DEL*:00000000H   CODE     ---       lcd_showint8_simspi
*DEL*:00000000H   CODE     ---       lcd_showstr
*DEL*:00000000H   CODE     ---       lcd_showstr_simspi
*DEL*:00000000H   CODE     ---       lcd_showuint16
*DEL*:00000000H   CODE     ---       lcd_showuint16_simspi
*DEL*:00000000H   CODE     ---       lcd_showuint8
*DEL*:00000000H   CODE     ---       lcd_showuint8_simspi
*DEL*:00000000H   CODE     ---       lcd_writeData
*DEL*:00000000H   CODE     ---       lcd_writedata_16bit
*DEL*:00000000H   CODE     ---       lcd_writeData_16bit_simspi
*DEL*:00000000H   CODE     ---       lcd_writeData_simspi
*DEL*:00000000H   CODE     ---       lcd_writeIndex
L251 LINKER/LOCATER V4.66.93.0                                                        07/20/2024  17:24:57  PAGE 26


*DEL*:00000000H   CODE     ---       lcd_writeIndex_simspi
      00FF53DFH   CODE     ---       Left_SetSpeed
      000002B8H   EDATA    ---       Left_Wheel
      00FF68B5H   CODE     ---       Limit_Out
      00FF55FFH   CODE     ---       loadcfgupd
      00FF5A9DH   CODE     ---       loadfirmware
      00FF43B4H   CODE     ---       main
      00FF69D7H   CODE     ---       memcpy?_
      00FF6B04H   CODE     ---       memset?_
      00000762H   EDATA    CHAR      Mode
      00FF63CEH   CODE     ---       Motor_Init
*DEL*:00000000H   CODE     ---       Motor_Test
      00FF6A43H   CODE     ---       MPU6050_DMP_Init
*DEL*:00000000H   CODE     ---       mpu6050_get_accdata
*DEL*:00000000H   CODE     ---       mpu6050_get_gyro
*DEL*:00000000H   CODE     ---       mpu6050_init
      00FF3B1DH   CODE     ---       MPU6050_Refresh_DMP
*DEL*:00000000H   CODE     ---       mpu6050_self1_check
      0000072EH   EDATA    INT       mpu_acc_x
      00000730H   EDATA    INT       mpu_acc_y
      00000732H   EDATA    INT       mpu_acc_z
      00FF6BAAH   CODE     ---       MPU_Delay_Ms
*DEL*:00000000H   CODE     ---       MPU_Get_Accelerometer
      00FF60A8H   CODE     ---       MPU_Get_Gyroscope
*DEL*:00000000H   CODE     ---       MPU_Get_Temperature
      00000734H   EDATA    INT       mpu_gyro_x
      00000736H   EDATA    INT       mpu_gyro_y
      00000738H   EDATA    INT       mpu_gyro_z
*DEL*:00000000H   CODE     ---       MPU_Init
      00FF6CE0H   CODE     ---       MPU_Read_Bit
      00FF0046H   CODE     ---       MPU_Read_Bits
*DEL*:00000000H   CODE     ---       MPU_Read_Byte
      00FF6CAAH   CODE     ---       MPU_Read_Len
*DEL*:00000000H   CODE     ---       MPU_Set_Accel_Fsr
*DEL*:00000000H   CODE     ---       MPU_Set_Gyro_Fsr
*DEL*:00000000H   CODE     ---       MPU_Set_LPF
*DEL*:00000000H   CODE     ---       MPU_Set_Rate
      000004EBH   EDATA    CHAR      mpu_state
      00FF6C90H   CODE     ---       MPU_Write_Bit
      00FF6C83H   CODE     ---       MPU_Write_Bits
      00FF6B95H   CODE     ---       MPU_Write_Byte
      00FF6CC0H   CODE     ---       MPU_Write_Len
      00FF6BF5H   CODE     ---       Num2Abs
      00FF5872H   CODE     ---       number_conversion_ascii
*DEL*:00000000H   CODE     ---       NVIC_SetPriority
      00FF0C86H   CODE     ---       oled_6x8
      00FF00A6H   CODE     ---       oled_8x16
      00FF6497H   CODE     ---       oled_all_static_state
*DEL*:00000000H   CODE     ---       oled_change_value
*DEL*:00000000H   CODE     ---       oled_clrpixel
*DEL*:00000000H   CODE     ---       oled_clrpixel_spi
*DEL*:00000000H   CODE     ---       oled_dis_bmp
*DEL*:00000000H   CODE     ---       oled_dis_bmp_spi
      00FF6762H   CODE     ---       oled_fill
*DEL*:00000000H   CODE     ---       oled_fill_spi
*DEL*:00000000H   CODE     ---       oled_hexascii
*DEL*:00000000H   CODE     ---       oled_hexascii_spi
      00FF56A5H   CODE     ---       oled_init
*DEL*:00000000H   CODE     ---       oled_init_spi
*DEL*:00000000H   CODE     ---       oled_int16
*DEL*:00000000H   CODE     ---       oled_int16_spi
*DEL*:00000000H   CODE     ---       oled_p6x8str
*DEL*:00000000H   CODE     ---       oled_p6x8str_spi
      00FF4ED4H   CODE     ---       oled_p8x16str
*DEL*:00000000H   CODE     ---       oled_p8x16str_spi
L251 LINKER/LOCATER V4.66.93.0                                                        07/20/2024  17:24:57  PAGE 27


*DEL*:00000000H   CODE     ---       oled_print_chinese
*DEL*:00000000H   CODE     ---       oled_print_chinese_spi
      00FF4CECH   CODE     ---       oled_printf_float
*DEL*:00000000H   CODE     ---       oled_printf_float_spi
*DEL*:00000000H   CODE     ---       oled_printf_int32
*DEL*:00000000H   CODE     ---       oled_printf_int32_spi
*DEL*:00000000H   CODE     ---       oled_putpixel
*DEL*:00000000H   CODE     ---       oled_putpixel_spi
      00FF6A20H   CODE     ---       oled_set_pos
*DEL*:00000000H   CODE     ---       oled_set_pos_spi
      00FF6412H   CODE     ---       oled_show
*DEL*:00000000H   CODE     ---       oled_uint16
*DEL*:00000000H   CODE     ---       oled_uint16_spi
      00FF6935H   CODE     ---       oled_wrcmd
*DEL*:00000000H   CODE     ---       oled_wrcmd_spi
      00FF695EH   CODE     ---       oled_wrdat
*DEL*:00000000H   CODE     ---       oled_wrdat_spi
*SFR* 00000080H   DATA     BYTE      P0
*SFR* 00000080H.7 DATA     BIT       P07
*SFR* 00000094H   DATA     BYTE      P0M0
*SFR* 00000093H   DATA     BYTE      P0M1
*SFR* 00000090H   DATA     BYTE      P1
*SFR* 00000092H   DATA     BYTE      P1M0
*SFR* 00000091H   DATA     BYTE      P1M1
*SFR* 000000A0H   DATA     BYTE      P2
*SFR* 000000A0H.0 DATA     BIT       P20
*SFR* 000000A0H.1 DATA     BIT       P21
*SFR* 000000A0H.2 DATA     BIT       P22
*SFR* 000000A0H.3 DATA     BIT       P23
*SFR* 000000A0H.4 DATA     BIT       P24
*SFR* 000000A0H.5 DATA     BIT       P25
*SFR* 000000A0H.6 DATA     BIT       P26
*SFR* 000000A0H.7 DATA     BIT       P27
*SFR* 00000096H   DATA     BYTE      P2M0
*SFR* 00000095H   DATA     BYTE      P2M1
*SFR* 000000B0H   DATA     BYTE      P3
*SFR* 000000B0H.2 DATA     BIT       P32
*SFR* 000000B0H.3 DATA     BIT       P33
*SFR* 000000B0H.5 DATA     BIT       P35
*SFR* 000000B2H   DATA     BYTE      P3M0
*SFR* 000000B1H   DATA     BYTE      P3M1
*SFR* 000000C0H   DATA     BYTE      P4
*SFR* 000000C0H.0 DATA     BIT       P40
*SFR* 000000C0H.1 DATA     BIT       P41
*SFR* 000000C0H.2 DATA     BIT       P42
*SFR* 000000C0H.3 DATA     BIT       P43
*SFR* 000000B4H   DATA     BYTE      P4M0
*SFR* 000000B3H   DATA     BYTE      P4M1
*SFR* 000000C8H   DATA     BYTE      P5
*SFR* 000000C8H.0 DATA     BIT       P50
*SFR* 000000C8H.1 DATA     BIT       P51
*SFR* 000000C8H.2 DATA     BIT       P52
*SFR* 000000C8H.3 DATA     BIT       P53
*SFR* 000000CAH   DATA     BYTE      P5M0
*SFR* 000000C9H   DATA     BYTE      P5M1
*SFR* 000000E8H   DATA     BYTE      P6
*SFR* 000000CCH   DATA     BYTE      P6M0
*SFR* 000000CBH   DATA     BYTE      P6M1
*SFR* 000000F8H   DATA     BYTE      P7
*SFR* 000000F8H.0 DATA     BIT       P70
*SFR* 000000F8H.1 DATA     BIT       P71
*SFR* 000000F8H.2 DATA     BIT       P72
*SFR* 000000F8H.3 DATA     BIT       P73
*SFR* 000000E2H   DATA     BYTE      P7M0
*SFR* 000000E1H   DATA     BYTE      P7M1
L251 LINKER/LOCATER V4.66.93.0                                                        07/20/2024  17:24:57  PAGE 28


*SFR* 000000A2H   DATA     BYTE      P_SW1
*SFR* 000000BAH   DATA     BYTE      P_SW2
      00000008H   EDATA    CHAR      page
      00FF5555H   CODE     ---       PID_Calculate
      00FF4561H   CODE     ---       PID_Incremental_Calc
      00FF5904H   CODE     ---       PID_Incremental_Init
      00FF5F2FH   CODE     ---       PID_Init
      00FF57DEH   CODE     ---       pit_timer_ms
*DEL*:00000000H   CODE     ---       pit_timer_us
      000004ECH   EDATA    FLOAT     Pitch
      0000051AH   EDATA    FLOAT     Plus
      00000516H   EDATA    FLOAT     Plus_Mid
      00FF115BH   CODE     NEAR LAB  printf
      00FF6559H   CODE     ---       printf_reverse_order
*SFR* 000000D0H   DATA     BYTE      PSW
      00FF6C75H   CODE     ---       putchar
      00FF6F7BH   HCONST   ---       PWM_ARR_ADDR
      00FF6F83H   HCONST   ---       PWM_CCER_ADDR
      00FF6F93H   HCONST   ---       PWM_CCMR_ADDR
      00FF6F5BH   HCONST   ---       PWM_CCR_ADDR
      00FF549DH   CODE     ---       pwm_duty
*DEL*:00000000H   CODE     ---       pwm_freq
      00FF3598H   CODE     ---       pwm_init
      00FF387CH   CODE     ---       pwm_set_gpio
      000004B1H   EDATA    ---       Q
      00000500H   EDATA    FLOAT     Ratio
      00000554H   EDATA    FLOAT     Ratio_Mid
*DEL*:00000000H   CODE     ---       read_ch
      0000050CH   EDATA    CHAR      Read_Nums
      00FF6C57H   CODE     ---       readdmp
*DEL*:00000000H   CODE     ---       recv_ack
*DEL*:00000000H   CODE     ---       recv_data
      00FF5748H   CODE     ---       refresh_value
      00FF5321H   CODE     ---       Right_SetSpeed
      0000027BH   EDATA    ---       Right_Wheel
      00000499H   EDATA    FLOAT     Roll
*SFR* 000000FFH   DATA     BYTE      RSTCFG
*SFR* 0000009BH   DATA     BYTE      S2BUF
*SFR* 0000009AH   DATA     BYTE      S2CON
*SFR* 000000ADH   DATA     BYTE      S3BUF
*SFR* 000000ACH   DATA     BYTE      S3CON
*SFR* 000000FEH   DATA     BYTE      S4BUF
*SFR* 000000FDH   DATA     BYTE      S4CON
*SFR* 00000099H   DATA     BYTE      SBUF
*SFR* 00000098H   DATA     BYTE      SCON
*DEL*:00000000H   CODE     ---       send_ack
*DEL*:00000000H   CODE     ---       send_ch
*DEL*:00000000H   CODE     ---       send_data
*DEL*:00000000H   CODE     ---       send_nak
*DEL*:00000000H   CODE     ---       set_zero_position_simspi
*DEL*:00000000H   CODE     ---       set_zero_position_spi
*DEL*:00000000H   CODE     ---       showimage
*DEL*:00000000H   CODE     ---       simiic_delay
*DEL*:00000000H   CODE     ---       simiic_init
*DEL*:00000000H   CODE     ---       simiic_read_reg
*DEL*:00000000H   CODE     ---       simiic_read_regs
*DEL*:00000000H   CODE     ---       simiic_sendack
*DEL*:00000000H   CODE     ---       simiic_start
*DEL*:00000000H   CODE     ---       simiic_stop
*DEL*:00000000H   CODE     ---       simiic_write_reg
*DEL*:00000000H   CODE     ---       simspi_r_reg_byte
*DEL*:00000000H   CODE     ---       simspi_w_reg_byte
*DEL*:00000000H   CODE     ---       simspi_wr_byte
      00000520H   EDATA    FLOAT     Slow
*DEL*:00000000H   CODE     ---       sonar
L251 LINKER/LOCATER V4.66.93.0                                                        07/20/2024  17:24:57  PAGE 29


*SFR* 000000CEH   DATA     BYTE      SPCTL
*SFR* 000000CFH   DATA     BYTE      SPDAT
      000006EBH   EDATA    CHAR      Special_Elem
      0000053AH   EDATA    INT       Speed_Delay
      00FF5C15H   CODE     ---       Speed_Gain
      0000070CH   EDATA    FLOAT     Speed_L
      00000710H   EDATA    FLOAT     Speed_R
*DEL*:00000000H   CODE     ---       spi_change_mode
*DEL*:00000000H   CODE     ---       spi_change_pin
*DEL*:00000000H   CODE     ---       spi_init
*DEL*:00000000H   CODE     ---       spi_mosi
*DEL*:00000000H   CODE     ---       spi_r_reg_byte
*DEL*:00000000H   CODE     ---       spi_w_reg_byte
*DEL*:00000000H   CODE     ---       spi_wr_byte
*SFR* 000000CDH   DATA     BYTE      SPSTAT
      00FF1187H   CODE     ---       sqrt?_
*DEL*:00000000H   CODE     ---       start
*DEL*:00000000H   CODE     ---       stop
      00FF6BBEH   CODE     NEAR LAB  strcpy?_
      000006FCH   EDATA    FLOAT     Sum_Angle_Bar
      0000052DH   EDATA    FLOAT     Sum_Dis
      00000504H   EDATA    FLOAT     sum_L
      00000512H   EDATA    FLOAT     sum_R
      00000757H   EDATA    LONG      sys_clk
*SFR* 000000D6H   DATA     BYTE      T2H
*SFR* 000000D7H   DATA     BYTE      T2L
*SFR* 000000D4H   DATA     BYTE      T3H
*SFR* 000000D5H   DATA     BYTE      T3L
*SFR* 000000D2H   DATA     BYTE      T4H
*SFR* 000000D3H   DATA     BYTE      T4L
*SFR* 000000DDH   DATA     BYTE      T4T3M
*SFR* 00000088H   DATA     BYTE      TCON
      00FF0696H   CODE     ---       tft_ascii
*SFR* 0000008CH   DATA     BYTE      TH0
*SFR* 0000008DH   DATA     BYTE      TH1
      00000720H   EDATA    INT       time
*SFR* 0000008AH   DATA     BYTE      TL0
*SFR* 0000008BH   DATA     BYTE      TL1
      00FF0012H   CODE     ---       TM0_Isr
      00FF0019H   CODE     ---       TM1_Isr
      00FF6D0AH   CODE     ---       TM2_Isr
      00FF6D12H   CODE     ---       TM3_Isr
      00FF2D9AH   CODE     ---       TM4_Isr
*SFR* 00000089H   DATA     BYTE      TMOD
*SFR* 00000088H.4 DATA     BIT       TR0
*SFR* 00000088H.6 DATA     BIT       TR1
      0000013DH   EDATA    BYTE      tsl1401_finish_flag
      0000023EH   EDATA    ---       Turn
      000002F5H   EDATA    ---       Turn_PID
      00FF65D5H   CODE     ---       UART1_Isr
      00000321H   EDATA    ---       uart1_rx_buff
      00000385H   EDATA    ---       uart1_tx_buff
      00FF6AC8H   CODE     ---       UART2_Isr
      00FF6AE6H   CODE     ---       UART3_Isr
      00FF5EC6H   CODE     ---       UART4_Isr
      00FF41F5H   CODE     ---       uart_init
*DEL*:00000000H   CODE     ---       uart_putbuff
      00FF6158H   CODE     ---       uart_putchar
*DEL*:00000000H   CODE     ---       uart_putstr
      00FF6CE9H   CODE     ---       ui_init
      00FF6D21H   CODE     ---       ui_show
      00000009H   EDATA    ---       value
      00000079H   EDATA    ---       value_name
      00FF4DE4H   CODE     ---       value_name_init
      00000746H   EDATA    ---       virtual_scope_data
L251 LINKER/LOCATER V4.66.93.0                                                        07/20/2024  17:24:57  PAGE 30


      0000075FH   EDATA    WORD      vl53l0x_distance_mm
      00000761H   EDATA    BYTE      vl53l0x_finsh_flag
      00FF5DEEH   CODE     ---       vl53l0x_get_distance
      00FF229EH   CODE     ---       vl53l0x_init
*DEL*:00000000H   CODE     ---       wait
      00FF6B50H   CODE     ---       wireless_ch573_callback
*DEL*:00000000H   CODE     ---       wireless_ch573_init
*DEL*:00000000H   CODE     ---       wireless_ch573_read_buff
*DEL*:00000000H   CODE     ---       wireless_ch573_send_buff
      00000765H   EDATA    INT       wireless_type
      00FF6B37H   CODE     ---       wireless_uart_callback
*DEL*:00000000H   CODE     ---       wireless_uart_init
*DEL*:00000000H   CODE     ---       wireless_uart_read_buff
*DEL*:00000000H   CODE     ---       wireless_uart_send_buff
*SFR* 000000E9H   DATA     BYTE      WTST
      0000049DH   EDATA    FLOAT     x1
      00000767H   EDATA    WORD      x10_ms
      00FF5991H   CODE     ---       xdmpUpdates
      000004A1H   EDATA    FLOAT     y1
      000004ADH   EDATA    FLOAT     Yaw
      000004A5H   EDATA    FLOAT     z1
      00000491H   EDATA    FLOAT     z_add
      00000495H   EDATA    FLOAT     z_last
      000004A9H   EDATA    FLOAT     z_now
*DEL*:00000000H   CODE     ---       zero_all
      0000075BH   EDATA    WORD      zf_delay_ms
      0000075DH   EDATA    WORD      zf_delay_us
      00FF28A0H   CODE     ---       zf_sprintf



SYMBOL TABLE OF MODULE:  .\Out_File\SEEKFREE (board)

      VALUE       REP       CLASS    TYPE      SYMBOL NAME
      ====================================================
      ---         MODULE    ---      ---       board
      00FF000EH   PUBLIC    CODE     ---       EnableGlobalIRQ
      00FF5A1CH   PUBLIC    CODE     ---       board_init
      00FF0016H   PUBLIC    CODE     ---       DisableGlobalIRQ
      00FF6C75H   PUBLIC    CODE     ---       putchar
      00000757H   PUBLIC    EDATA    LONG      sys_clk
      00000094H   SFRSYM    DATA     BYTE      P0M0
      000000D0H   SFRSYM    DATA     BYTE      PSW
      000000FDH   SFRSYM    DATA     BYTE      S4CON
      000000ACH   SFRSYM    DATA     BYTE      S3CON
      0000009AH   SFRSYM    DATA     BYTE      S2CON
      000000B7H   SFRSYM    DATA     BYTE      IPH
      000000E9H   SFRSYM    DATA     BYTE      WTST
      000000FFH   SFRSYM    DATA     BYTE      RSTCFG
      0000008EH   SFRSYM    DATA     BYTE      AUXR
      000000AFH   SFRSYM    DATA     BYTE      IE2
      00000088H   SFRSYM    DATA     BYTE      TCON
      00000089H   SFRSYM    DATA     BYTE      TMOD
      00000098H   SFRSYM    DATA     BYTE      SCON
      000000BCH   SFRSYM    DATA     BYTE      ADC_CONTR
      000000DEH   SFRSYM    DATA     BYTE      ADCCFG
      000000B8H   SFRSYM    DATA     BYTE      IP
      000000A8H   SFRSYM    DATA     BYTE      IE
      000000BAH   SFRSYM    DATA     BYTE      P_SW2
      000000A2H   SFRSYM    DATA     BYTE      P_SW1
      000000F8H   SFRSYM    DATA     BYTE      P7
      000000A8H.7 SFRSYM    DATA     BIT       EA
      000000E1H   SFRSYM    DATA     BYTE      P7M1
      000000E8H   SFRSYM    DATA     BYTE      P6
      000000C8H   SFRSYM    DATA     BYTE      P5
L251 LINKER/LOCATER V4.66.93.0                                                        07/20/2024  17:24:57  PAGE 31


      000000CBH   SFRSYM    DATA     BYTE      P6M1
      000000E2H   SFRSYM    DATA     BYTE      P7M0
      000000C0H   SFRSYM    DATA     BYTE      P4
      000000C9H   SFRSYM    DATA     BYTE      P5M1
      000000CCH   SFRSYM    DATA     BYTE      P6M0
      000000B0H   SFRSYM    DATA     BYTE      P3
      000000B3H   SFRSYM    DATA     BYTE      P4M1
      000000CAH   SFRSYM    DATA     BYTE      P5M0
      000000A0H   SFRSYM    DATA     BYTE      P2
      000000B1H   SFRSYM    DATA     BYTE      P3M1
      000000B4H   SFRSYM    DATA     BYTE      P4M0
      00000090H   SFRSYM    DATA     BYTE      P1
      00000095H   SFRSYM    DATA     BYTE      P2M1
      000000B2H   SFRSYM    DATA     BYTE      P3M0
      00000080H   SFRSYM    DATA     BYTE      P0
      00000091H   SFRSYM    DATA     BYTE      P1M1
      00000096H   SFRSYM    DATA     BYTE      P2M0
      00000092H   SFRSYM    DATA     BYTE      P1M0
      00000093H   SFRSYM    DATA     BYTE      P0M1

      00FF5A1CH   BLOCK     CODE     ---       LVL=0
      00FF5A1CH   LINE      CODE     ---       #177
      00FF5A1CH   LINE      CODE     ---       #179
      00FF5A1FH   LINE      CODE     ---       #197
      00FF5A22H   LINE      CODE     ---       #199
      00FF5A25H   LINE      CODE     ---       #200
      00FF5A28H   LINE      CODE     ---       #201
      00FF5A34H   LINE      CODE     ---       #203
      00FF5A37H   LINE      CODE     ---       #204
      00FF5A3AH   LINE      CODE     ---       #205
      00FF5A3DH   LINE      CODE     ---       #206
      00FF5A40H   LINE      CODE     ---       #207
      00FF5A43H   LINE      CODE     ---       #208
      00FF5A46H   LINE      CODE     ---       #209
      00FF5A49H   LINE      CODE     ---       #210
      00FF5A4CH   LINE      CODE     ---       #211
      00FF5A4FH   LINE      CODE     ---       #212
      00FF5A52H   LINE      CODE     ---       #213
      00FF5A55H   LINE      CODE     ---       #214
      00FF5A58H   LINE      CODE     ---       #215
      00FF5A5BH   LINE      CODE     ---       #216
      00FF5A5EH   LINE      CODE     ---       #217
      00FF5A61H   LINE      CODE     ---       #218
      00FF5A64H   LINE      CODE     ---       #220
      00FF5A67H   LINE      CODE     ---       #221
      00FF5A6AH   LINE      CODE     ---       #222
      00FF5A6DH   LINE      CODE     ---       #223
      00FF5A70H   LINE      CODE     ---       #224
      00FF5A73H   LINE      CODE     ---       #225
      00FF5A76H   LINE      CODE     ---       #226
      00FF5A79H   LINE      CODE     ---       #227
      00FF5A7CH   LINE      CODE     ---       #228
      00FF5A7FH   LINE      CODE     ---       #229
      00FF5A82H   LINE      CODE     ---       #231
      ---         BLOCKEND  ---      ---       LVL=0

      00FF6C75H   BLOCK     CODE     ---       LVL=0
      R15         REGSYM    ---      CHAR      c
      00FF6C75H   LINE      CODE     ---       #237
      00FF6C79H   LINE      CODE     ---       #239
      00FF6C7EH   LINE      CODE     ---       #241
      00FF6C80H   LINE      CODE     ---       #242
      ---         BLOCKEND  ---      ---       LVL=0

      00FF0016H   BLOCK     CODE     ---       LVL=0
L251 LINKER/LOCATER V4.66.93.0                                                        07/20/2024  17:24:57  PAGE 32


      00FF0016H   LINE      CODE     ---       #245
      00FF0016H   LINE      CODE     ---       #247
      00FF0018H   LINE      CODE     ---       #248
      ---         BLOCKEND  ---      ---       LVL=0

      00FF000EH   BLOCK     CODE     ---       LVL=0
      00FF000EH   LINE      CODE     ---       #251
      00FF000EH   LINE      CODE     ---       #253
      00FF0010H   LINE      CODE     ---       #254
      ---         BLOCKEND  ---      ---       LVL=0

      ---         MODULE    ---      ---       common
      00000765H   PUBLIC    EDATA    INT       wireless_type
      000000D0H   SFRSYM    DATA     BYTE      PSW
      000000B7H   SFRSYM    DATA     BYTE      IPH
      00000088H   SFRSYM    DATA     BYTE      TCON
      00000098H   SFRSYM    DATA     BYTE      SCON
      000000BCH   SFRSYM    DATA     BYTE      ADC_CONTR
      000000DEH   SFRSYM    DATA     BYTE      ADCCFG
      000000B8H   SFRSYM    DATA     BYTE      IP
      000000A8H   SFRSYM    DATA     BYTE      IE
      000000F8H   SFRSYM    DATA     BYTE      P7
      000000E8H   SFRSYM    DATA     BYTE      P6
      000000C8H   SFRSYM    DATA     BYTE      P5
      000000C0H   SFRSYM    DATA     BYTE      P4
      000000B0H   SFRSYM    DATA     BYTE      P3
      000000A0H   SFRSYM    DATA     BYTE      P2
      00000090H   SFRSYM    DATA     BYTE      P1
      00000080H   SFRSYM    DATA     BYTE      P0

      ---         MODULE    ---      ---       SEEKFREE_PRINTF
      00FF5872H   PUBLIC    CODE     ---       number_conversion_ascii
      00FF28A0H   PUBLIC    CODE     ---       zf_sprintf
      00FF6559H   PUBLIC    CODE     ---       printf_reverse_order
      00000487H   PUBLIC    EDATA    BYTE      ?number_conversion_ascii?BYTE
      00000459H   PUBLIC    EDATA    BYTE      ?zf_sprintf?BYTE
      000000D0H   SFRSYM    DATA     BYTE      PSW
      000000B7H   SFRSYM    DATA     BYTE      IPH
      00000088H   SFRSYM    DATA     BYTE      TCON
      00000098H   SFRSYM    DATA     BYTE      SCON
      000000BCH   SFRSYM    DATA     BYTE      ADC_CONTR
      000000DEH   SFRSYM    DATA     BYTE      ADCCFG
      000000B8H   SFRSYM    DATA     BYTE      IP
      000000A8H   SFRSYM    DATA     BYTE      IE
      000000F8H   SFRSYM    DATA     BYTE      P7
      000000E8H   SFRSYM    DATA     BYTE      P6
      000000C8H   SFRSYM    DATA     BYTE      P5
      000000C0H   SFRSYM    DATA     BYTE      P4
      000000B0H   SFRSYM    DATA     BYTE      P3
      000000A0H   SFRSYM    DATA     BYTE      P2
      00000090H   SFRSYM    DATA     BYTE      P1
      00000080H   SFRSYM    DATA     BYTE      P0

      00FF5872H   BLOCK     CODE     ---       LVL=0
      DR24        REGSYM    ---      DWORD     dat
      REG=7       REGSYM    ---      ---       p
      R10         REGSYM    ---      BYTE      neg_type
      00000490H   SYMBOL    EDATA    BYTE      radix
      00FF587AH   BLOCK     CODE     NEAR LAB  LVL=1
      DR20        REGSYM    ---      LONG      neg_dat
      DR24        REGSYM    ---      DWORD     pos_dat
      R14         REGSYM    ---      BYTE      temp_data
      R15         REGSYM    ---      BYTE      valid_num
      ---         BLOCKEND  ---      ---       LVL=1
      00FF5872H   LINE      CODE     ---       #25
L251 LINKER/LOCATER V4.66.93.0                                                        07/20/2024  17:24:57  PAGE 33


      00FF587AH   LINE      CODE     ---       #26
      00FF587AH   LINE      CODE     ---       #29
      00FF587AH   LINE      CODE     ---       #30
      00FF587CH   LINE      CODE     ---       #32
      00FF5880H   LINE      CODE     ---       #34
      00FF5882H   LINE      CODE     ---       #35
      00FF5892H   LINE      CODE     ---       #36
      00FF5892H   LINE      CODE     ---       #38
      00FF58A8H   LINE      CODE     ---       #39
      00FF58B7H   LINE      CODE     ---       #40
      00FF58B9H   LINE      CODE     ---       #42
      00FF58BFH   LINE      CODE     ---       #43
      00FF58C1H   LINE      CODE     ---       #44
      00FF58C3H   LINE      CODE     ---       #45
      00FF58C5H   LINE      CODE     ---       #48
      00FF58C5H   LINE      CODE     ---       #49
      00FF58C5H   LINE      CODE     ---       #51
      00FF58D4H   LINE      CODE     ---       #52
      00FF58DEH   LINE      CODE     ---       #53
      00FF58E1H   LINE      CODE     ---       #55
      00FF58E4H   LINE      CODE     ---       #57
      00FF58F3H   LINE      CODE     ---       #58
      00FF58F5H   LINE      CODE     ---       #60
      00FF58FBH   LINE      CODE     ---       #61
      00FF58FDH   LINE      CODE     ---       #62
      00FF58FFH   LINE      CODE     ---       #63
      00FF58FFH   LINE      CODE     ---       #64
      00FF5901H   LINE      CODE     ---       #65
      ---         BLOCKEND  ---      ---       LVL=0

      00FF6559H   BLOCK     CODE     ---       LVL=0
      REG=7       REGSYM    ---      ---       d_buff
      DR24        REGSYM    ---      DWORD     len
      00FF655DH   BLOCK     CODE     NEAR LAB  LVL=1
      DR4         REGSYM    ---      DWORD     i
      R3          REGSYM    ---      CHAR      temp_data
      ---         BLOCKEND  ---      ---       LVL=1
      00FF6559H   LINE      CODE     ---       #67
      00FF655DH   LINE      CODE     ---       #68
      00FF655DH   LINE      CODE     ---       #71
      00FF6561H   LINE      CODE     ---       #73
      00FF6570H   LINE      CODE     ---       #74
      00FF657EH   LINE      CODE     ---       #75
      00FF6585H   LINE      CODE     ---       #76
      00FF6596H   LINE      CODE     ---       #77
      ---         BLOCKEND  ---      ---       LVL=0

      00FF28A0H   BLOCK     CODE     ---       LVL=0
      REG=3       REGSYM    ---      ---       buff
      0000045DH   SYMBOL    EDATA    ---       format
      00FF28A8H   BLOCK     CODE     NEAR LAB  LVL=1
      00000461H   SYMBOL    EDATA    DWORD     buff_len
      00000465H   SYMBOL    EDATA    ---       arg
      00FF28BDH   BLOCK     CODE     NEAR LAB  LVL=2
      00000469H   SYMBOL    EDATA    CHAR      ret
      00FF29E7H   BLOCK     CODE     NEAR LAB  LVL=3
      0000046AH   SYMBOL    EDATA    CHAR      ch
      ---         BLOCKEND  ---      ---       LVL=3
      00FF2A00H   BLOCK     CODE     NEAR LAB  LVL=3
      0000046AH   SYMBOL    EDATA    ---       vstr
      0000048BH   SYMBOL    EDATA    LONG      ival
      0000048FH   SYMBOL    EDATA    BYTE      vlen
      ---         BLOCKEND  ---      ---       LVL=3
      00FF2A79H   BLOCK     CODE     NEAR LAB  LVL=3
      0000046AH   SYMBOL    EDATA    ---       vstr
L251 LINKER/LOCATER V4.66.93.0                                                        07/20/2024  17:24:57  PAGE 34


      0000048BH   SYMBOL    EDATA    FLOAT     ival
      0000048FH   SYMBOL    EDATA    BYTE      vlen
      ---         BLOCKEND  ---      ---       LVL=3
      00FF2BB4H   BLOCK     CODE     NEAR LAB  LVL=3
      0000046AH   SYMBOL    EDATA    ---       vstr
      0000048BH   SYMBOL    EDATA    DWORD     ival
      0000048FH   SYMBOL    EDATA    BYTE      vlen
      ---         BLOCKEND  ---      ---       LVL=3
      00FF2C0CH   BLOCK     CODE     NEAR LAB  LVL=3
      0000046AH   SYMBOL    EDATA    ---       vstr
      0000048BH   SYMBOL    EDATA    DWORD     ival
      0000048FH   SYMBOL    EDATA    BYTE      vlen
      ---         BLOCKEND  ---      ---       LVL=3
      00FF2C63H   BLOCK     CODE     NEAR LAB  LVL=3
      0000046AH   SYMBOL    EDATA    ---       vstr
      0000048BH   SYMBOL    EDATA    DWORD     ival
      0000048FH   SYMBOL    EDATA    BYTE      vlen
      ---         BLOCKEND  ---      ---       LVL=3
      00FF2CC5H   BLOCK     CODE     NEAR LAB  LVL=3
      0000046AH   SYMBOL    EDATA    ---       pc
      ---         BLOCKEND  ---      ---       LVL=3
      00FF2D07H   BLOCK     CODE     NEAR LAB  LVL=3
      0000046AH   SYMBOL    EDATA    ---       vstr
      0000048BH   SYMBOL    EDATA    DWORD     ival
      ---         BLOCKEND  ---      ---       LVL=3
      ---         BLOCKEND  ---      ---       LVL=2
      ---         BLOCKEND  ---      ---       LVL=1
      00FF28A0H   LINE      CODE     ---       #212
      00FF28A8H   LINE      CODE     ---       #213
      00FF28A8H   LINE      CODE     ---       #214
      00FF28AEH   LINE      CODE     ---       #216
      00FF28BAH   LINE      CODE     ---       #218
      00FF28BDH   LINE      CODE     ---       #219
      00FF28BDH   LINE      CODE     ---       #220
      00FF28C8H   LINE      CODE     ---       #221
      00FF28D0H   LINE      CODE     ---       #223
      00FF29E7H   LINE      CODE     ---       #225
      00FF29E7H   LINE      CODE     ---       #229
      00FF29E7H   LINE      CODE     ---       #232
      00FF29E7H   LINE      CODE     ---       #233
      00FF29E7H   LINE      CODE     ---       #234
      00FF29FDH   LINE      CODE     ---       #235
      00FF29FDH   LINE      CODE     ---       #236
      00FF29FDH   LINE      CODE     ---       #237
      00FF29FDH   LINE      CODE     ---       #239
      00FF2A00H   LINE      CODE     ---       #242
      00FF2A00H   LINE      CODE     ---       #243
      00FF2A00H   LINE      CODE     ---       #244
      00FF2A00H   LINE      CODE     ---       #246
      00FF2A19H   LINE      CODE     ---       #247
      00FF2A2CH   LINE      CODE     ---       #249
      00FF2A36H   LINE      CODE     ---       #251
      00FF2A43H   LINE      CODE     ---       #252
      00FF2A48H   LINE      CODE     ---       #253
      00FF2A48H   LINE      CODE     ---       #254
      00FF2A57H   LINE      CODE     ---       #255
      00FF2A6AH   LINE      CODE     ---       #256
      00FF2A72H   LINE      CODE     ---       #257
      00FF2A76H   LINE      CODE     ---       #260
      00FF2A79H   LINE      CODE     ---       #262
      00FF2A79H   LINE      CODE     ---       #263
      00FF2A79H   LINE      CODE     ---       #264
      00FF2A79H   LINE      CODE     ---       #266
      00FF2A92H   LINE      CODE     ---       #267
      00FF2AA8H   LINE      CODE     ---       #269
L251 LINKER/LOCATER V4.66.93.0                                                        07/20/2024  17:24:57  PAGE 35


      00FF2AB3H   LINE      CODE     ---       #271
      00FF2AC0H   LINE      CODE     ---       #272
      00FF2AC5H   LINE      CODE     ---       #273
      00FF2AC5H   LINE      CODE     ---       #274
      00FF2AD4H   LINE      CODE     ---       #275
      00FF2AE7H   LINE      CODE     ---       #276
      00FF2AEFH   LINE      CODE     ---       #277
      00FF2B01H   LINE      CODE     ---       #279
      00FF2B25H   LINE      CODE     ---       #280
      00FF2B2BH   LINE      CODE     ---       #282
      00FF2B3DH   LINE      CODE     ---       #283
      00FF2B3FH   LINE      CODE     ---       #286
      00FF2B59H   LINE      CODE     ---       #287
      00FF2B5FH   LINE      CODE     ---       #288
      00FF2B5FH   LINE      CODE     ---       #290
      00FF2B64H   LINE      CODE     ---       #292
      00FF2B6EH   LINE      CODE     ---       #293
      00FF2B73H   LINE      CODE     ---       #294
      00FF2B7CH   LINE      CODE     ---       #296
      00FF2B84H   LINE      CODE     ---       #297
      00FF2B8BH   LINE      CODE     ---       #299
      00FF2B9AH   LINE      CODE     ---       #300
      00FF2BADH   LINE      CODE     ---       #301
      00FF2BB1H   LINE      CODE     ---       #303
      00FF2BB4H   LINE      CODE     ---       #306
      00FF2BB4H   LINE      CODE     ---       #307
      00FF2BB4H   LINE      CODE     ---       #309
      00FF2BCDH   LINE      CODE     ---       #310
      00FF2BDFH   LINE      CODE     ---       #312
      00FF2BEAH   LINE      CODE     ---       #313
      00FF2BFDH   LINE      CODE     ---       #314
      00FF2C05H   LINE      CODE     ---       #315
      00FF2C09H   LINE      CODE     ---       #316
      00FF2C0CH   LINE      CODE     ---       #318
      00FF2C0CH   LINE      CODE     ---       #319
      00FF2C0CH   LINE      CODE     ---       #321
      00FF2C25H   LINE      CODE     ---       #322
      00FF2C37H   LINE      CODE     ---       #324
      00FF2C42H   LINE      CODE     ---       #325
      00FF2C55H   LINE      CODE     ---       #326
      00FF2C5DH   LINE      CODE     ---       #327
      00FF2C61H   LINE      CODE     ---       #329
      00FF2C63H   LINE      CODE     ---       #331
      00FF2C63H   LINE      CODE     ---       #332
      00FF2C63H   LINE      CODE     ---       #333
      00FF2C63H   LINE      CODE     ---       #335
      00FF2C7CH   LINE      CODE     ---       #336
      00FF2C8EH   LINE      CODE     ---       #338
      00FF2C99H   LINE      CODE     ---       #339
      00FF2CACH   LINE      CODE     ---       #340
      00FF2CB4H   LINE      CODE     ---       #341
      00FF2CC2H   LINE      CODE     ---       #342
      00FF2CC5H   LINE      CODE     ---       #345
      00FF2CC5H   LINE      CODE     ---       #346
      00FF2CC5H   LINE      CODE     ---       #347
      00FF2CDAH   LINE      CODE     ---       #348
      00FF2CDCH   LINE      CODE     ---       #350
      00FF2CE6H   LINE      CODE     ---       #351
      00FF2CE8H   LINE      CODE     ---       #352
      00FF2CF2H   LINE      CODE     ---       #353
      00FF2CFCH   LINE      CODE     ---       #354
      00FF2D05H   LINE      CODE     ---       #355
      00FF2D07H   LINE      CODE     ---       #357
      00FF2D07H   LINE      CODE     ---       #358
      00FF2D07H   LINE      CODE     ---       #360
L251 LINKER/LOCATER V4.66.93.0                                                        07/20/2024  17:24:57  PAGE 36


      00FF2D20H   LINE      CODE     ---       #362
      00FF2D2EH   LINE      CODE     ---       #364
      00FF2D39H   LINE      CODE     ---       #365
      00FF2D4AH   LINE      CODE     ---       #366
      00FF2D4EH   LINE      CODE     ---       #367
      00FF2D56H   LINE      CODE     ---       #369
      00FF2D58H   LINE      CODE     ---       #372
      00FF2D58H   LINE      CODE     ---       #374
      00FF2D5DH   LINE      CODE     ---       #375
      00FF2D5FH   LINE      CODE     ---       #376
      00FF2D65H   LINE      CODE     ---       #377
      00FF2D67H   LINE      CODE     ---       #379
      00FF2D67H   LINE      CODE     ---       #380
      00FF2D67H   LINE      CODE     ---       #381
      00FF2D67H   LINE      CODE     ---       #384
      00FF2D71H   LINE      CODE     ---       #385
      00FF2D73H   LINE      CODE     ---       #386
      00FF2D7DH   LINE      CODE     ---       #387
      00FF2D7DH   LINE      CODE     ---       #388
      00FF2D87H   LINE      CODE     ---       #389
      00FF2D93H   LINE      CODE     ---       #392
      00FF2D97H   LINE      CODE     ---       #393
      ---         BLOCKEND  ---      ---       LVL=0

      ---         MODULE    ---      ---       zf_adc
      00FF682EH   PUBLIC    CODE     ---       adc_once
      00FF5FEEH   PUBLIC    CODE     ---       adc_init
      00000094H   SFRSYM    DATA     BYTE      P0M0
      000000D0H   SFRSYM    DATA     BYTE      PSW
      000000B7H   SFRSYM    DATA     BYTE      IPH
      000000BEH   SFRSYM    DATA     BYTE      ADC_RESL
      00000088H   SFRSYM    DATA     BYTE      TCON
      00000098H   SFRSYM    DATA     BYTE      SCON
      000000BCH   SFRSYM    DATA     BYTE      ADC_CONTR
      000000DEH   SFRSYM    DATA     BYTE      ADCCFG
      000000B8H   SFRSYM    DATA     BYTE      IP
      000000BDH   SFRSYM    DATA     BYTE      ADC_RES
      000000A8H   SFRSYM    DATA     BYTE      IE
      000000F8H   SFRSYM    DATA     BYTE      P7
      000000E8H   SFRSYM    DATA     BYTE      P6
      000000C8H   SFRSYM    DATA     BYTE      P5
      000000C0H   SFRSYM    DATA     BYTE      P4
      000000B0H   SFRSYM    DATA     BYTE      P3
      000000A0H   SFRSYM    DATA     BYTE      P2
      00000090H   SFRSYM    DATA     BYTE      P1
      00000080H   SFRSYM    DATA     BYTE      P0
      00000091H   SFRSYM    DATA     BYTE      P1M1
      00000092H   SFRSYM    DATA     BYTE      P1M0
      00000093H   SFRSYM    DATA     BYTE      P0M1

      00FF5FEEH   BLOCK     CODE     ---       LVL=0
      WR4         REGSYM    ---      INT       adcn
      WR2         REGSYM    ---      INT       speed
      00FF5FEEH   LINE      CODE     ---       #32
      00FF5FF2H   LINE      CODE     ---       #34
      00FF5FF5H   LINE      CODE     ---       #36
      00FF5FF8H   LINE      CODE     ---       #37
      00FF5FFEH   LINE      CODE     ---       #39
      00FF600AH   LINE      CODE     ---       #42
      00FF601FH   LINE      CODE     ---       #43
      00FF6023H   LINE      CODE     ---       #44
      00FF6025H   LINE      CODE     ---       #45
      00FF6029H   LINE      CODE     ---       #48
      00FF603EH   LINE      CODE     ---       #49
      00FF6042H   LINE      CODE     ---       #50
L251 LINKER/LOCATER V4.66.93.0                                                        07/20/2024  17:24:57  PAGE 37


      00FF6042H   LINE      CODE     ---       #52
      00FF6048H   LINE      CODE     ---       #54
      00FF604BH   LINE      CODE     ---       #55
      ---         BLOCKEND  ---      ---       LVL=0

      00FF682EH   BLOCK     CODE     ---       LVL=0
      WR6         REGSYM    ---      INT       adcn
      WR4         REGSYM    ---      INT       resolution
      WR6         REGSYM    ---      WORD      adc_value
      00FF682EH   LINE      CODE     ---       #66
      00FF682EH   LINE      CODE     ---       #67
      00FF682EH   LINE      CODE     ---       #70
      00FF6831H   LINE      CODE     ---       #71
      00FF6835H   LINE      CODE     ---       #73
      00FF6838H   LINE      CODE     ---       #74
      00FF683DH   LINE      CODE     ---       #75
      00FF6840H   LINE      CODE     ---       #77
      00FF6842H   LINE      CODE     ---       #78
      00FF6846H   LINE      CODE     ---       #79
      00FF684CH   LINE      CODE     ---       #81
      00FF684FH   LINE      CODE     ---       #82
      00FF6852H   LINE      CODE     ---       #84
      00FF685BH   LINE      CODE     ---       #87
      00FF685BH   LINE      CODE     ---       #88
      ---         BLOCKEND  ---      ---       LVL=0

      ---         MODULE    ---      ---       zf_delay
      00FF6689H   PUBLIC    CODE     ---       delay_init
      00FF6B69H   PUBLIC    CODE     ---       delay_ms
      0000075BH   PUBLIC    EDATA    WORD      zf_delay_ms
      0000075DH   PUBLIC    EDATA    WORD      zf_delay_us
      000000D0H   SFRSYM    DATA     BYTE      PSW
      000000B7H   SFRSYM    DATA     BYTE      IPH
      00000088H   SFRSYM    DATA     BYTE      TCON
      00000098H   SFRSYM    DATA     BYTE      SCON
      000000BCH   SFRSYM    DATA     BYTE      ADC_CONTR
      000000DEH   SFRSYM    DATA     BYTE      ADCCFG
      000000B8H   SFRSYM    DATA     BYTE      IP
      000000A8H   SFRSYM    DATA     BYTE      IE
      000000F8H   SFRSYM    DATA     BYTE      P7
      000000E8H   SFRSYM    DATA     BYTE      P6
      000000C8H   SFRSYM    DATA     BYTE      P5
      000000C0H   SFRSYM    DATA     BYTE      P4
      000000B0H   SFRSYM    DATA     BYTE      P3
      000000A0H   SFRSYM    DATA     BYTE      P2
      00000090H   SFRSYM    DATA     BYTE      P1
      00000080H   SFRSYM    DATA     BYTE      P0

      00FF6689H   BLOCK     CODE     ---       LVL=0
      00FF6689H   LINE      CODE     ---       #34
      00FF6689H   LINE      CODE     ---       #36
      00FF669AH   LINE      CODE     ---       #37
      00FF66ABH   LINE      CODE     ---       #38
      00FF66C1H   LINE      CODE     ---       #40
      ---         BLOCKEND  ---      ---       LVL=0

      00FF6B69H   BLOCK     CODE     ---       LVL=0
      WR4         REGSYM    ---      WORD      ms
      00FF6B6BH   BLOCK     CODE     NEAR LAB  LVL=1
      WR6         REGSYM    ---      WORD      i
      ---         BLOCKEND  ---      ---       LVL=1
      00FF6B69H   LINE      CODE     ---       #48
      00FF6B6BH   LINE      CODE     ---       #49
      00FF6B6BH   LINE      CODE     ---       #51
      00FF6B6BH   LINE      CODE     ---       #52
L251 LINKER/LOCATER V4.66.93.0                                                        07/20/2024  17:24:57  PAGE 38


      00FF6B6FH   LINE      CODE     ---       #54
      00FF6B77H   LINE      CODE     ---       #55
      00FF6B7FH   LINE      CODE     ---       #56
      ---         BLOCKEND  ---      ---       LVL=0
      DR0         REGSYM    ---      DWORD     us
      WR6         REGSYM    ---      WORD      i

      ---         MODULE    ---      ---       zf_eeprom
      000000D0H   SFRSYM    DATA     BYTE      PSW
      000000D0H.5 SFRSYM    DATA     BIT       F0
      000000C6H   SFRSYM    DATA     BYTE      IAP_TRIG
      000000B7H   SFRSYM    DATA     BYTE      IPH
      000000C2H   SFRSYM    DATA     BYTE      IAP_DATA
      000000C7H   SFRSYM    DATA     BYTE      IAP_CONTR
      00000088H   SFRSYM    DATA     BYTE      TCON
      00000098H   SFRSYM    DATA     BYTE      SCON
      000000F5H   SFRSYM    DATA     BYTE      IAP_TPS
      000000BCH   SFRSYM    DATA     BYTE      ADC_CONTR
      000000C4H   SFRSYM    DATA     BYTE      IAP_ADDRL
      000000C3H   SFRSYM    DATA     BYTE      IAP_ADDRH
      000000F6H   SFRSYM    DATA     BYTE      IAP_ADDRE
      000000DEH   SFRSYM    DATA     BYTE      ADCCFG
      000000B8H   SFRSYM    DATA     BYTE      IP
      000000C5H   SFRSYM    DATA     BYTE      IAP_CMD
      000000A8H   SFRSYM    DATA     BYTE      IE
      000000F8H   SFRSYM    DATA     BYTE      P7
      000000A8H.7 SFRSYM    DATA     BIT       EA
      000000E8H   SFRSYM    DATA     BYTE      P6
      000000C8H   SFRSYM    DATA     BYTE      P5
      000000C0H   SFRSYM    DATA     BYTE      P4
      000000B0H   SFRSYM    DATA     BYTE      P3
      000000A0H   SFRSYM    DATA     BYTE      P2
      00000090H   SFRSYM    DATA     BYTE      P1
      00000080H   SFRSYM    DATA     BYTE      P0
      R11         REGSYM    ---      BYTE      write_time
      REG=3       REGSYM    ---      ---       buf
      REG=3       REGSYM    ---      ---       buf
      WR6         REGSYM    ---      WORD      addr
      REG=3       REGSYM    ---      ---       buf
      WR6         REGSYM    ---      WORD      i

      ---         MODULE    ---      ---       zf_exti
      000000D0H   SFRSYM    DATA     BYTE      PSW
      000000B7H   SFRSYM    DATA     BYTE      IPH
      00000088H.2 SFRSYM    DATA     BIT       IT1
      000000A8H.2 SFRSYM    DATA     BIT       EX1
      00000088H.0 SFRSYM    DATA     BIT       IT0
      000000A8H.0 SFRSYM    DATA     BIT       EX0
      00000088H   SFRSYM    DATA     BYTE      TCON
      00000098H   SFRSYM    DATA     BYTE      SCON
      000000BCH   SFRSYM    DATA     BYTE      ADC_CONTR
      000000DEH   SFRSYM    DATA     BYTE      ADCCFG
      000000B8H   SFRSYM    DATA     BYTE      IP
      0000008FH   SFRSYM    DATA     BYTE      INTCLKO
      000000A8H   SFRSYM    DATA     BYTE      IE
      000000F8H   SFRSYM    DATA     BYTE      P7
      000000E8H   SFRSYM    DATA     BYTE      P6
      000000C8H   SFRSYM    DATA     BYTE      P5
      000000C0H   SFRSYM    DATA     BYTE      P4
      000000B0H   SFRSYM    DATA     BYTE      P3
      000000A0H   SFRSYM    DATA     BYTE      P2
      00000090H   SFRSYM    DATA     BYTE      P1
      00000080H   SFRSYM    DATA     BYTE      P0
      WR4         REGSYM    ---      INT       int_n
      WR2         REGSYM    ---      INT       mode
L251 LINKER/LOCATER V4.66.93.0                                                        07/20/2024  17:24:57  PAGE 39



      ---         MODULE    ---      ---       zf_gpio
      00FF31A1H   PUBLIC    CODE     ---       gpio_mode
      00000094H   SFRSYM    DATA     BYTE      P0M0
      000000D0H   SFRSYM    DATA     BYTE      PSW
      000000B7H   SFRSYM    DATA     BYTE      IPH
      00000088H   SFRSYM    DATA     BYTE      TCON
      00000098H   SFRSYM    DATA     BYTE      SCON
      000000BCH   SFRSYM    DATA     BYTE      ADC_CONTR
      000000DEH   SFRSYM    DATA     BYTE      ADCCFG
      000000B8H   SFRSYM    DATA     BYTE      IP
      000000A8H   SFRSYM    DATA     BYTE      IE
      000000F8H   SFRSYM    DATA     BYTE      P7
      000000E1H   SFRSYM    DATA     BYTE      P7M1
      000000E8H   SFRSYM    DATA     BYTE      P6
      000000C8H   SFRSYM    DATA     BYTE      P5
      000000CBH   SFRSYM    DATA     BYTE      P6M1
      000000E2H   SFRSYM    DATA     BYTE      P7M0
      000000C0H   SFRSYM    DATA     BYTE      P4
      000000C9H   SFRSYM    DATA     BYTE      P5M1
      000000CCH   SFRSYM    DATA     BYTE      P6M0
      000000B0H   SFRSYM    DATA     BYTE      P3
      000000B3H   SFRSYM    DATA     BYTE      P4M1
      000000CAH   SFRSYM    DATA     BYTE      P5M0
      000000A0H   SFRSYM    DATA     BYTE      P2
      000000B1H   SFRSYM    DATA     BYTE      P3M1
      000000B4H   SFRSYM    DATA     BYTE      P4M0
      00000090H   SFRSYM    DATA     BYTE      P1
      00000095H   SFRSYM    DATA     BYTE      P2M1
      000000B2H   SFRSYM    DATA     BYTE      P3M0
      00000080H   SFRSYM    DATA     BYTE      P0
      00000091H   SFRSYM    DATA     BYTE      P1M1
      00000096H   SFRSYM    DATA     BYTE      P2M0
      00000092H   SFRSYM    DATA     BYTE      P1M0
      00000093H   SFRSYM    DATA     BYTE      P0M1
      WR4         REGSYM    ---      INT       pin
      WR2         REGSYM    ---      INT       pull

      00FF31A1H   BLOCK     CODE     ---       LVL=0
      WR4         REGSYM    ---      INT       pin
      WR2         REGSYM    ---      INT       mode
      00FF31A1H   LINE      CODE     ---       #54
      00FF31A5H   LINE      CODE     ---       #56
      00FF31ACH   LINE      CODE     ---       #58
      00FF31B4H   LINE      CODE     ---       #60
      00FF31CCH   LINE      CODE     ---       #61
      00FF31CEH   LINE      CODE     ---       #62
      00FF31CEH   LINE      CODE     ---       #63
      00FF31D4H   LINE      CODE     ---       #65
      00FF31ECH   LINE      CODE     ---       #66
      00FF31EEH   LINE      CODE     ---       #67
      00FF31EEH   LINE      CODE     ---       #68
      00FF31F4H   LINE      CODE     ---       #70
      00FF320CH   LINE      CODE     ---       #71
      00FF320EH   LINE      CODE     ---       #72
      00FF320EH   LINE      CODE     ---       #74
      00FF3214H   LINE      CODE     ---       #76
      00FF322CH   LINE      CODE     ---       #77
      00FF322EH   LINE      CODE     ---       #78
      00FF322EH   LINE      CODE     ---       #79
      00FF3234H   LINE      CODE     ---       #81
      00FF324CH   LINE      CODE     ---       #82
      00FF324EH   LINE      CODE     ---       #83
      00FF324EH   LINE      CODE     ---       #84
      00FF3254H   LINE      CODE     ---       #86
L251 LINKER/LOCATER V4.66.93.0                                                        07/20/2024  17:24:57  PAGE 40


      00FF326CH   LINE      CODE     ---       #87
      00FF326EH   LINE      CODE     ---       #88
      00FF326EH   LINE      CODE     ---       #89
      00FF3274H   LINE      CODE     ---       #91
      00FF328CH   LINE      CODE     ---       #92
      00FF328EH   LINE      CODE     ---       #93
      00FF328EH   LINE      CODE     ---       #94
      00FF3297H   LINE      CODE     ---       #96
      00FF32AFH   LINE      CODE     ---       #97
      00FF32B1H   LINE      CODE     ---       #98
      00FF32B2H   LINE      CODE     ---       #100
      00FF32BBH   LINE      CODE     ---       #102
      00FF32C3H   LINE      CODE     ---       #104
      00FF32D8H   LINE      CODE     ---       #105
      00FF32DCH   LINE      CODE     ---       #106
      00FF32DCH   LINE      CODE     ---       #107
      00FF32E2H   LINE      CODE     ---       #109
      00FF32F7H   LINE      CODE     ---       #110
      00FF32FBH   LINE      CODE     ---       #111
      00FF32FBH   LINE      CODE     ---       #112
      00FF3301H   LINE      CODE     ---       #114
      00FF3316H   LINE      CODE     ---       #115
      00FF331AH   LINE      CODE     ---       #116
      00FF331AH   LINE      CODE     ---       #118
      00FF3320H   LINE      CODE     ---       #120
      00FF3335H   LINE      CODE     ---       #121
      00FF3339H   LINE      CODE     ---       #122
      00FF3339H   LINE      CODE     ---       #123
      00FF333FH   LINE      CODE     ---       #125
      00FF3354H   LINE      CODE     ---       #126
      00FF3358H   LINE      CODE     ---       #127
      00FF3358H   LINE      CODE     ---       #128
      00FF335EH   LINE      CODE     ---       #130
      00FF3373H   LINE      CODE     ---       #131
      00FF3377H   LINE      CODE     ---       #132
      00FF3377H   LINE      CODE     ---       #133
      00FF337DH   LINE      CODE     ---       #135
      00FF3392H   LINE      CODE     ---       #136
      00FF3396H   LINE      CODE     ---       #137
      00FF3396H   LINE      CODE     ---       #138
      00FF339FH   LINE      CODE     ---       #140
      00FF33B6H   LINE      CODE     ---       #141
      00FF33B6H   LINE      CODE     ---       #142
      00FF33B9H   LINE      CODE     ---       #145
      00FF33C2H   LINE      CODE     ---       #147
      00FF33CAH   LINE      CODE     ---       #149
      00FF33DDH   LINE      CODE     ---       #150
      00FF33E1H   LINE      CODE     ---       #151
      00FF33E1H   LINE      CODE     ---       #152
      00FF33E7H   LINE      CODE     ---       #154
      00FF33FAH   LINE      CODE     ---       #155
      00FF33FEH   LINE      CODE     ---       #156
      00FF33FEH   LINE      CODE     ---       #157
      00FF3404H   LINE      CODE     ---       #159
      00FF3417H   LINE      CODE     ---       #160
      00FF341BH   LINE      CODE     ---       #161
      00FF341BH   LINE      CODE     ---       #163
      00FF3421H   LINE      CODE     ---       #165
      00FF3434H   LINE      CODE     ---       #166
      00FF3438H   LINE      CODE     ---       #167
      00FF3438H   LINE      CODE     ---       #168
      00FF343EH   LINE      CODE     ---       #170
      00FF3451H   LINE      CODE     ---       #171
      00FF3455H   LINE      CODE     ---       #172
      00FF3455H   LINE      CODE     ---       #173
L251 LINKER/LOCATER V4.66.93.0                                                        07/20/2024  17:24:57  PAGE 41


      00FF345BH   LINE      CODE     ---       #175
      00FF346EH   LINE      CODE     ---       #176
      00FF3472H   LINE      CODE     ---       #177
      00FF3472H   LINE      CODE     ---       #178
      00FF3478H   LINE      CODE     ---       #180
      00FF348BH   LINE      CODE     ---       #181
      00FF348FH   LINE      CODE     ---       #182
      00FF348FH   LINE      CODE     ---       #183
      00FF3498H   LINE      CODE     ---       #185
      00FF34ABH   LINE      CODE     ---       #186
      00FF34AFH   LINE      CODE     ---       #187
      00FF34B0H   LINE      CODE     ---       #189
      00FF34B9H   LINE      CODE     ---       #191
      00FF34C1H   LINE      CODE     ---       #193
      00FF34D4H   LINE      CODE     ---       #194
      00FF34D6H   LINE      CODE     ---       #195
      00FF34D6H   LINE      CODE     ---       #196
      00FF34DCH   LINE      CODE     ---       #198
      00FF34EFH   LINE      CODE     ---       #199
      00FF34F1H   LINE      CODE     ---       #200
      00FF34F1H   LINE      CODE     ---       #201
      00FF34F7H   LINE      CODE     ---       #203
      00FF350AH   LINE      CODE     ---       #204
      00FF350CH   LINE      CODE     ---       #205
      00FF350CH   LINE      CODE     ---       #207
      00FF3512H   LINE      CODE     ---       #209
      00FF3525H   LINE      CODE     ---       #210
      00FF3527H   LINE      CODE     ---       #211
      00FF3527H   LINE      CODE     ---       #212
      00FF352DH   LINE      CODE     ---       #214
      00FF3540H   LINE      CODE     ---       #215
      00FF3542H   LINE      CODE     ---       #216
      00FF3542H   LINE      CODE     ---       #217
      00FF3548H   LINE      CODE     ---       #219
      00FF355BH   LINE      CODE     ---       #220
      00FF355DH   LINE      CODE     ---       #221
      00FF355DH   LINE      CODE     ---       #222
      00FF3563H   LINE      CODE     ---       #224
      00FF3576H   LINE      CODE     ---       #225
      00FF3578H   LINE      CODE     ---       #226
      00FF3578H   LINE      CODE     ---       #227
      00FF357EH   LINE      CODE     ---       #229
      00FF3593H   LINE      CODE     ---       #230
      00FF3597H   LINE      CODE     ---       #231
      00FF3597H   LINE      CODE     ---       #233
      ---         BLOCKEND  ---      ---       LVL=0

      ---         MODULE    ---      ---       zf_iic
      000000D0H   SFRSYM    DATA     BYTE      PSW
      000000B7H   SFRSYM    DATA     BYTE      IPH
      00000088H   SFRSYM    DATA     BYTE      TCON
      00000098H   SFRSYM    DATA     BYTE      SCON
      000000BCH   SFRSYM    DATA     BYTE      ADC_CONTR
      000000DEH   SFRSYM    DATA     BYTE      ADCCFG
      000000B8H   SFRSYM    DATA     BYTE      IP
      000000A8H   SFRSYM    DATA     BYTE      IE
      000000BAH   SFRSYM    DATA     BYTE      P_SW2
      000000F8H   SFRSYM    DATA     BYTE      P7
      000000E8H   SFRSYM    DATA     BYTE      P6
      000000C8H   SFRSYM    DATA     BYTE      P5
      000000C0H   SFRSYM    DATA     BYTE      P4
      000000B0H   SFRSYM    DATA     BYTE      P3
      000000A0H   SFRSYM    DATA     BYTE      P2
      00000090H   SFRSYM    DATA     BYTE      P1
      00000080H   SFRSYM    DATA     BYTE      P0
L251 LINKER/LOCATER V4.66.93.0                                                        07/20/2024  17:24:57  PAGE 42


      WR6         REGSYM    ---      WORD      x
      R10         REGSYM    ---      BYTE      i
      WR12        REGSYM    ---      WORD      count
      R15         REGSYM    ---      BYTE      ret
      R11         REGSYM    ---      BYTE      ret
      R11         REGSYM    ---      CHAR      dat
      R11         REGSYM    ---      BYTE      ret
      R11         REGSYM    ---      BYTE      ret
      R11         REGSYM    ---      BYTE      ret
      R11         REGSYM    ---      BYTE      ret
      WR6         REGSYM    ---      INT       iic_n
      R13         REGSYM    ---      BYTE      dev_add
      R14         REGSYM    ---      BYTE      reg
      R15         REGSYM    ---      BYTE      dat
      R15         REGSYM    ---      BYTE      dev_add
      R14         REGSYM    ---      BYTE      reg
      REG=3       REGSYM    ---      ---       dat
      WR6         REGSYM    ---      INT       iic_n

      ---         MODULE    ---      ---       zf_nvic
      000000D0H   SFRSYM    DATA     BYTE      PSW
      000000B7H   SFRSYM    DATA     BYTE      IPH
      000000B5H   SFRSYM    DATA     BYTE      IP2
      00000088H   SFRSYM    DATA     BYTE      TCON
      00000098H   SFRSYM    DATA     BYTE      SCON
      000000BCH   SFRSYM    DATA     BYTE      ADC_CONTR
      000000DEH   SFRSYM    DATA     BYTE      ADCCFG
      000000B8H   SFRSYM    DATA     BYTE      IP
      000000B6H   SFRSYM    DATA     BYTE      IP2H
      000000A8H   SFRSYM    DATA     BYTE      IE
      000000F8H   SFRSYM    DATA     BYTE      P7
      000000E8H   SFRSYM    DATA     BYTE      P6
      000000C8H   SFRSYM    DATA     BYTE      P5
      000000C0H   SFRSYM    DATA     BYTE      P4
      000000B0H   SFRSYM    DATA     BYTE      P3
      000000A0H   SFRSYM    DATA     BYTE      P2
      00000090H   SFRSYM    DATA     BYTE      P1
      00000080H   SFRSYM    DATA     BYTE      P0
      WR4         REGSYM    ---      INT       irqn
      R3          REGSYM    ---      BYTE      priority

      ---         MODULE    ---      ---       zf_pwm
      00FF549DH   PUBLIC    CODE     ---       pwm_duty
      00FF387CH   PUBLIC    CODE     ---       pwm_set_gpio
      00FF3598H   PUBLIC    CODE     ---       pwm_init
      00FF6F5BH   PUBLIC    HCONST   ---       PWM_CCR_ADDR
      00FF6F7BH   PUBLIC    HCONST   ---       PWM_ARR_ADDR
      00FF6F83H   PUBLIC    HCONST   ---       PWM_CCER_ADDR
      00FF6F93H   PUBLIC    HCONST   ---       PWM_CCMR_ADDR
      00000404H   PUBLIC    EDATA    BYTE      ?pwm_init?BYTE
      000000D0H   SFRSYM    DATA     BYTE      PSW
      000000B7H   SFRSYM    DATA     BYTE      IPH
      00000088H   SFRSYM    DATA     BYTE      TCON
      00000098H   SFRSYM    DATA     BYTE      SCON
      000000BCH   SFRSYM    DATA     BYTE      ADC_CONTR
      000000DEH   SFRSYM    DATA     BYTE      ADCCFG
      000000B8H   SFRSYM    DATA     BYTE      IP
      000000A8H   SFRSYM    DATA     BYTE      IE
      000000BAH   SFRSYM    DATA     BYTE      P_SW2
      000000F8H   SFRSYM    DATA     BYTE      P7
      000000E8H   SFRSYM    DATA     BYTE      P6
      000000C8H   SFRSYM    DATA     BYTE      P5
      000000C0H   SFRSYM    DATA     BYTE      P4
      000000B0H   SFRSYM    DATA     BYTE      P3
      000000A0H   SFRSYM    DATA     BYTE      P2
L251 LINKER/LOCATER V4.66.93.0                                                        07/20/2024  17:24:57  PAGE 43


      00000090H   SFRSYM    DATA     BYTE      P1
      00000080H   SFRSYM    DATA     BYTE      P0

      00FF387CH   BLOCK     CODE     ---       LVL=0
      WR6         REGSYM    ---      INT       pwmch
      00FF387CH   LINE      CODE     ---       #49
      00FF387CH   LINE      CODE     ---       #51
      00FF39EFH   LINE      CODE     ---       #53
      00FF39EFH   LINE      CODE     ---       #55
      00FF39F3H   LINE      CODE     ---       #56
      00FF39F6H   LINE      CODE     ---       #58
      00FF39F6H   LINE      CODE     ---       #60
      00FF39FAH   LINE      CODE     ---       #61
      00FF39FDH   LINE      CODE     ---       #63
      00FF39FDH   LINE      CODE     ---       #65
      00FF3A01H   LINE      CODE     ---       #66
      00FF3A04H   LINE      CODE     ---       #68
      00FF3A04H   LINE      CODE     ---       #70
      00FF3A08H   LINE      CODE     ---       #71
      00FF3A0BH   LINE      CODE     ---       #73
      00FF3A0BH   LINE      CODE     ---       #75
      00FF3A0FH   LINE      CODE     ---       #76
      00FF3A12H   LINE      CODE     ---       #78
      00FF3A12H   LINE      CODE     ---       #80
      00FF3A16H   LINE      CODE     ---       #81
      00FF3A19H   LINE      CODE     ---       #84
      00FF3A19H   LINE      CODE     ---       #86
      00FF3A1DH   LINE      CODE     ---       #87
      00FF3A20H   LINE      CODE     ---       #89
      00FF3A20H   LINE      CODE     ---       #91
      00FF3A24H   LINE      CODE     ---       #92
      00FF3A27H   LINE      CODE     ---       #94
      00FF3A27H   LINE      CODE     ---       #96
      00FF3A2BH   LINE      CODE     ---       #97
      00FF3A2EH   LINE      CODE     ---       #99
      00FF3A2EH   LINE      CODE     ---       #101
      00FF3A32H   LINE      CODE     ---       #102
      00FF3A35H   LINE      CODE     ---       #104
      00FF3A35H   LINE      CODE     ---       #106
      00FF3A39H   LINE      CODE     ---       #107
      00FF3A3CH   LINE      CODE     ---       #109
      00FF3A3CH   LINE      CODE     ---       #111
      00FF3A40H   LINE      CODE     ---       #112
      00FF3A43H   LINE      CODE     ---       #115
      00FF3A43H   LINE      CODE     ---       #117
      00FF3A47H   LINE      CODE     ---       #118
      00FF3A49H   LINE      CODE     ---       #120
      00FF3A49H   LINE      CODE     ---       #122
      00FF3A4DH   LINE      CODE     ---       #123
      00FF3A4FH   LINE      CODE     ---       #125
      00FF3A4FH   LINE      CODE     ---       #127
      00FF3A53H   LINE      CODE     ---       #128
      00FF3A55H   LINE      CODE     ---       #130
      00FF3A55H   LINE      CODE     ---       #132
      00FF3A59H   LINE      CODE     ---       #133
      00FF3A5BH   LINE      CODE     ---       #135
      00FF3A5BH   LINE      CODE     ---       #137
      00FF3A5FH   LINE      CODE     ---       #138
      00FF3A61H   LINE      CODE     ---       #140
      00FF3A61H   LINE      CODE     ---       #142
      00FF3A65H   LINE      CODE     ---       #143
      00FF3A67H   LINE      CODE     ---       #147
      00FF3A67H   LINE      CODE     ---       #149
      00FF3A6BH   LINE      CODE     ---       #150
      00FF3A6DH   LINE      CODE     ---       #152
L251 LINKER/LOCATER V4.66.93.0                                                        07/20/2024  17:24:57  PAGE 44


      00FF3A6DH   LINE      CODE     ---       #154
      00FF3A71H   LINE      CODE     ---       #155
      00FF3A73H   LINE      CODE     ---       #157
      00FF3A73H   LINE      CODE     ---       #159
      00FF3A77H   LINE      CODE     ---       #160
      00FF3A79H   LINE      CODE     ---       #162
      00FF3A79H   LINE      CODE     ---       #164
      00FF3A7DH   LINE      CODE     ---       #165
      00FF3A7FH   LINE      CODE     ---       #167
      00FF3A7FH   LINE      CODE     ---       #169
      00FF3A83H   LINE      CODE     ---       #170
      00FF3A85H   LINE      CODE     ---       #172
      00FF3A85H   LINE      CODE     ---       #174
      00FF3A89H   LINE      CODE     ---       #175
      00FF3A8BH   LINE      CODE     ---       #177
      00FF3A8BH   LINE      CODE     ---       #179
      00FF3A8FH   LINE      CODE     ---       #180
      00FF3A91H   LINE      CODE     ---       #182
      00FF3A91H   LINE      CODE     ---       #184
      00FF3A95H   LINE      CODE     ---       #185
      00FF3A97H   LINE      CODE     ---       #189
      00FF3A97H   LINE      CODE     ---       #191
      00FF3A9BH   LINE      CODE     ---       #192
      00FF3A9DH   LINE      CODE     ---       #194
      00FF3A9DH   LINE      CODE     ---       #196
      00FF3AA1H   LINE      CODE     ---       #197
      00FF3AA3H   LINE      CODE     ---       #199
      00FF3AA3H   LINE      CODE     ---       #201
      00FF3AA5H   LINE      CODE     ---       #202
      00FF3AA7H   LINE      CODE     ---       #204
      00FF3AA7H   LINE      CODE     ---       #206
      00FF3AABH   LINE      CODE     ---       #207
      00FF3AADH   LINE      CODE     ---       #210
      00FF3AADH   LINE      CODE     ---       #212
      00FF3AB1H   LINE      CODE     ---       #213
      00FF3AB3H   LINE      CODE     ---       #215
      00FF3AB3H   LINE      CODE     ---       #217
      00FF3AB7H   LINE      CODE     ---       #218
      00FF3AB9H   LINE      CODE     ---       #220
      00FF3AB9H   LINE      CODE     ---       #222
      00FF3ABFH   LINE      CODE     ---       #223
      00FF3AC1H   LINE      CODE     ---       #225
      00FF3AC1H   LINE      CODE     ---       #227
      00FF3AC9H   LINE      CODE     ---       #228
      00FF3ACBH   LINE      CODE     ---       #232
      00FF3ACBH   LINE      CODE     ---       #234
      00FF3AD3H   LINE      CODE     ---       #235
      00FF3AD5H   LINE      CODE     ---       #237
      00FF3AD5H   LINE      CODE     ---       #239
      00FF3ADDH   LINE      CODE     ---       #240
      00FF3ADFH   LINE      CODE     ---       #242
      00FF3ADFH   LINE      CODE     ---       #244
      00FF3AE7H   LINE      CODE     ---       #245
      00FF3AE9H   LINE      CODE     ---       #247
      00FF3AE9H   LINE      CODE     ---       #249
      00FF3AF1H   LINE      CODE     ---       #250
      00FF3AF3H   LINE      CODE     ---       #254
      00FF3AF3H   LINE      CODE     ---       #256
      00FF3AFBH   LINE      CODE     ---       #257
      00FF3AFDH   LINE      CODE     ---       #259
      00FF3AFDH   LINE      CODE     ---       #261
      00FF3B05H   LINE      CODE     ---       #262
      00FF3B07H   LINE      CODE     ---       #264
      00FF3B07H   LINE      CODE     ---       #266
      00FF3B0FH   LINE      CODE     ---       #267
L251 LINKER/LOCATER V4.66.93.0                                                        07/20/2024  17:24:57  PAGE 45


      00FF3B11H   LINE      CODE     ---       #269
      00FF3B11H   LINE      CODE     ---       #271
      00FF3B1CH   LINE      CODE     ---       #272
      00FF3B1CH   LINE      CODE     ---       #275
      00FF3B1CH   LINE      CODE     ---       #277
      ---         BLOCKEND  ---      ---       LVL=0

      00FF3598H   BLOCK     CODE     ---       LVL=0
      WR14        REGSYM    ---      INT       pwmch
      00000406H   SYMBOL    EDATA    DWORD     freq
      0000040AH   SYMBOL    EDATA    DWORD     duty
      00FF35A0H   BLOCK     CODE     NEAR LAB  LVL=1
      DR4         REGSYM    ---      DWORD     match_temp
      DR28        REGSYM    ---      DWORD     period_temp
      WR26        REGSYM    ---      WORD      freq_div
      ---         BLOCKEND  ---      ---       LVL=1
      00FF3598H   LINE      CODE     ---       #290
      00FF35A0H   LINE      CODE     ---       #291
      00FF35A0H   LINE      CODE     ---       #295
      00FF35A0H   LINE      CODE     ---       #298
      00FF35A3H   LINE      CODE     ---       #301
      00FF35A6H   LINE      CODE     ---       #305
      00FF35B7H   LINE      CODE     ---       #306
      00FF35B7H   LINE      CODE     ---       #307
      00FF35C0H   LINE      CODE     ---       #309
      00FF35E1H   LINE      CODE     ---       #312
      00FF35EAH   LINE      CODE     ---       #315
      00FF3615H   LINE      CODE     ---       #316
      00FF3636H   LINE      CODE     ---       #319
      00FF3682H   LINE      CODE     ---       #322
      00FF3691H   LINE      CODE     ---       #323
      00FF369CH   LINE      CODE     ---       #325
      00FF36A5H   LINE      CODE     ---       #326
      00FF36ABH   LINE      CODE     ---       #327
      00FF36AEH   LINE      CODE     ---       #330
      00FF36E6H   LINE      CODE     ---       #331
      00FF3709H   LINE      CODE     ---       #334
      00FF375BH   LINE      CODE     ---       #338
      00FF376AH   LINE      CODE     ---       #339
      00FF3775H   LINE      CODE     ---       #341
      00FF377EH   LINE      CODE     ---       #342
      00FF378BH   LINE      CODE     ---       #343
      00FF378BH   LINE      CODE     ---       #346
      00FF37B7H   LINE      CODE     ---       #347
      00FF37E5H   LINE      CODE     ---       #350
      00FF380BH   LINE      CODE     ---       #351
      00FF3837H   LINE      CODE     ---       #354
      00FF384EH   LINE      CODE     ---       #355
      00FF3879H   LINE      CODE     ---       #360
      ---         BLOCKEND  ---      ---       LVL=0

      00FF549DH   BLOCK     CODE     ---       LVL=0
      WR30        REGSYM    ---      INT       pwmch
      DR24        REGSYM    ---      DWORD     duty
      00FF54A1H   BLOCK     CODE     NEAR LAB  LVL=1
      DR0         REGSYM    ---      DWORD     match_temp
      DR20        REGSYM    ---      DWORD     arr
      ---         BLOCKEND  ---      ---       LVL=1
      00FF549DH   LINE      CODE     ---       #370
      00FF54A1H   LINE      CODE     ---       #371
      00FF54A1H   LINE      CODE     ---       #373
      00FF54E5H   LINE      CODE     ---       #377
      00FF5506H   LINE      CODE     ---       #381
      00FF552CH   LINE      CODE     ---       #382
      00FF5554H   LINE      CODE     ---       #386
L251 LINKER/LOCATER V4.66.93.0                                                        07/20/2024  17:24:57  PAGE 46


      ---         BLOCKEND  ---      ---       LVL=0
      WR30        REGSYM    ---      INT       pwmch
      DR24        REGSYM    ---      DWORD     freq
      DR0         REGSYM    ---      DWORD     match_temp
      DR24        REGSYM    ---      DWORD     period_temp
      WR28        REGSYM    ---      WORD      freq_div

      ---         MODULE    ---      ---       zf_spi
      000000CFH   SFRSYM    DATA     BYTE      SPDAT
      000000D0H   SFRSYM    DATA     BYTE      PSW
      000000B7H   SFRSYM    DATA     BYTE      IPH
      000000CDH   SFRSYM    DATA     BYTE      SPSTAT
      00000088H   SFRSYM    DATA     BYTE      TCON
      00000098H   SFRSYM    DATA     BYTE      SCON
      000000BCH   SFRSYM    DATA     BYTE      ADC_CONTR
      000000DEH   SFRSYM    DATA     BYTE      ADCCFG
      000000B8H   SFRSYM    DATA     BYTE      IP
      000000A8H   SFRSYM    DATA     BYTE      IE
      000000A2H   SFRSYM    DATA     BYTE      P_SW1
      000000CEH   SFRSYM    DATA     BYTE      SPCTL
      000000F8H   SFRSYM    DATA     BYTE      P7
      000000E8H   SFRSYM    DATA     BYTE      P6
      000000C8H   SFRSYM    DATA     BYTE      P5
      000000C0H   SFRSYM    DATA     BYTE      P4
      000000B0H   SFRSYM    DATA     BYTE      P3
      000000A0H   SFRSYM    DATA     BYTE      P2
      00000090H   SFRSYM    DATA     BYTE      P1
      00000080H   SFRSYM    DATA     BYTE      P0
      WR14        REGSYM    ---      INT       spi_n
      R13         REGSYM    ---      BYTE      mode
      R11         REGSYM    ---      BYTE      dat
      WR14        REGSYM    ---      INT       spi_n
      R7          REGSYM    ---      BYTE      mode

      ---         MODULE    ---      ---       zf_tim
      00FF62A5H   PUBLIC    CODE     ---       ctimer_count_read
      00FF57DEH   PUBLIC    CODE     ---       pit_timer_ms
      00FF633FH   PUBLIC    CODE     ---       ctimer_count_init
      00FF6254H   PUBLIC    CODE     ---       ctimer_count_clean
      000000D0H   SFRSYM    DATA     BYTE      PSW
      000000B7H   SFRSYM    DATA     BYTE      IPH
      000000DDH   SFRSYM    DATA     BYTE      T4T3M
      00000088H.6 SFRSYM    DATA     BIT       TR1
      00000088H.4 SFRSYM    DATA     BIT       TR0
      000000D3H   SFRSYM    DATA     BYTE      T4L
      000000D5H   SFRSYM    DATA     BYTE      T3L
      000000D7H   SFRSYM    DATA     BYTE      T2L
      0000008BH   SFRSYM    DATA     BYTE      TL1
      0000008AH   SFRSYM    DATA     BYTE      TL0
      000000D2H   SFRSYM    DATA     BYTE      T4H
      000000D4H   SFRSYM    DATA     BYTE      T3H
      000000D6H   SFRSYM    DATA     BYTE      T2H
      0000008DH   SFRSYM    DATA     BYTE      TH1
      0000008CH   SFRSYM    DATA     BYTE      TH0
      000000A8H.3 SFRSYM    DATA     BIT       ET1
      000000A8H.1 SFRSYM    DATA     BIT       ET0
      0000008EH   SFRSYM    DATA     BYTE      AUXR
      000000AFH   SFRSYM    DATA     BYTE      IE2
      00000088H   SFRSYM    DATA     BYTE      TCON
      00000089H   SFRSYM    DATA     BYTE      TMOD
      00000098H   SFRSYM    DATA     BYTE      SCON
      000000BCH   SFRSYM    DATA     BYTE      ADC_CONTR
      000000DEH   SFRSYM    DATA     BYTE      ADCCFG
      000000B8H   SFRSYM    DATA     BYTE      IP
      000000A8H   SFRSYM    DATA     BYTE      IE
L251 LINKER/LOCATER V4.66.93.0                                                        07/20/2024  17:24:57  PAGE 47


      000000F8H   SFRSYM    DATA     BYTE      P7
      000000E8H   SFRSYM    DATA     BYTE      P6
      000000C8H   SFRSYM    DATA     BYTE      P5
      000000C0H   SFRSYM    DATA     BYTE      P4
      000000B0H   SFRSYM    DATA     BYTE      P3
      000000A0H   SFRSYM    DATA     BYTE      P2
      00000090H   SFRSYM    DATA     BYTE      P1
      00000080H   SFRSYM    DATA     BYTE      P0

      00FF633FH   BLOCK     CODE     ---       LVL=0
      WR6         REGSYM    ---      INT       tim_n
      00FF633FH   LINE      CODE     ---       #39
      00FF633FH   LINE      CODE     ---       #42
      00FF6353H   LINE      CODE     ---       #44
      00FF6353H   LINE      CODE     ---       #46
      00FF6356H   LINE      CODE     ---       #47
      00FF6359H   LINE      CODE     ---       #48
      00FF635CH   LINE      CODE     ---       #49
      00FF635EH   LINE      CODE     ---       #50
      00FF635FH   LINE      CODE     ---       #53
      00FF635FH   LINE      CODE     ---       #55
      00FF6362H   LINE      CODE     ---       #56
      00FF6365H   LINE      CODE     ---       #57
      00FF6368H   LINE      CODE     ---       #58
      00FF636AH   LINE      CODE     ---       #59
      00FF636BH   LINE      CODE     ---       #62
      00FF636BH   LINE      CODE     ---       #64
      00FF636EH   LINE      CODE     ---       #65
      00FF6371H   LINE      CODE     ---       #66
      00FF6374H   LINE      CODE     ---       #67
      00FF6375H   LINE      CODE     ---       #70
      00FF6375H   LINE      CODE     ---       #72
      00FF6378H   LINE      CODE     ---       #73
      00FF637BH   LINE      CODE     ---       #74
      00FF637EH   LINE      CODE     ---       #75
      00FF637FH   LINE      CODE     ---       #78
      00FF637FH   LINE      CODE     ---       #80
      00FF6382H   LINE      CODE     ---       #81
      00FF6385H   LINE      CODE     ---       #82
      00FF6388H   LINE      CODE     ---       #83
      00FF6388H   LINE      CODE     ---       #86
      00FF6388H   LINE      CODE     ---       #87
      ---         BLOCKEND  ---      ---       LVL=0

      00FF62A5H   BLOCK     CODE     ---       LVL=0
      WR4         REGSYM    ---      INT       tim_n
      00FF62A7H   BLOCK     CODE     NEAR LAB  LVL=1
      WR6         REGSYM    ---      WORD      dat
      ---         BLOCKEND  ---      ---       LVL=1
      00FF62A5H   LINE      CODE     ---       #95
      00FF62A7H   LINE      CODE     ---       #96
      00FF62A7H   LINE      CODE     ---       #97
      00FF62A9H   LINE      CODE     ---       #99
      00FF62BDH   LINE      CODE     ---       #101
      00FF62BDH   LINE      CODE     ---       #103
      00FF62C3H   LINE      CODE     ---       #104
      00FF62C5H   LINE      CODE     ---       #105
      00FF62C7H   LINE      CODE     ---       #107
      00FF62C7H   LINE      CODE     ---       #109
      00FF62CDH   LINE      CODE     ---       #110
      00FF62CFH   LINE      CODE     ---       #111
      00FF62D1H   LINE      CODE     ---       #113
      00FF62D1H   LINE      CODE     ---       #115
      00FF62D7H   LINE      CODE     ---       #116
      00FF62D9H   LINE      CODE     ---       #117
L251 LINKER/LOCATER V4.66.93.0                                                        07/20/2024  17:24:57  PAGE 48


      00FF62DBH   LINE      CODE     ---       #119
      00FF62DBH   LINE      CODE     ---       #121
      00FF62E1H   LINE      CODE     ---       #122
      00FF62E3H   LINE      CODE     ---       #123
      00FF62E5H   LINE      CODE     ---       #125
      00FF62E5H   LINE      CODE     ---       #127
      00FF62EBH   LINE      CODE     ---       #128
      00FF62F1H   LINE      CODE     ---       #129
      00FF62F1H   LINE      CODE     ---       #132
      00FF62F1H   LINE      CODE     ---       #133
      00FF62F1H   LINE      CODE     ---       #134
      ---         BLOCKEND  ---      ---       LVL=0

      00FF6254H   BLOCK     CODE     ---       LVL=0
      WR6         REGSYM    ---      INT       tim_n
      00FF6254H   LINE      CODE     ---       #143
      00FF6254H   LINE      CODE     ---       #145
      00FF6268H   LINE      CODE     ---       #147
      00FF6268H   LINE      CODE     ---       #149
      00FF626AH   LINE      CODE     ---       #150
      00FF626DH   LINE      CODE     ---       #151
      00FF6270H   LINE      CODE     ---       #152
      00FF6272H   LINE      CODE     ---       #153
      00FF6273H   LINE      CODE     ---       #155
      00FF6273H   LINE      CODE     ---       #157
      00FF6275H   LINE      CODE     ---       #158
      00FF6278H   LINE      CODE     ---       #159
      00FF627BH   LINE      CODE     ---       #160
      00FF627DH   LINE      CODE     ---       #161
      00FF627EH   LINE      CODE     ---       #163
      00FF627EH   LINE      CODE     ---       #165
      00FF6281H   LINE      CODE     ---       #166
      00FF6284H   LINE      CODE     ---       #167
      00FF6287H   LINE      CODE     ---       #168
      00FF628AH   LINE      CODE     ---       #169
      00FF628BH   LINE      CODE     ---       #171
      00FF628BH   LINE      CODE     ---       #173
      00FF628EH   LINE      CODE     ---       #174
      00FF6291H   LINE      CODE     ---       #175
      00FF6294H   LINE      CODE     ---       #176
      00FF6297H   LINE      CODE     ---       #177
      00FF6298H   LINE      CODE     ---       #179
      00FF6298H   LINE      CODE     ---       #181
      00FF629BH   LINE      CODE     ---       #182
      00FF629EH   LINE      CODE     ---       #183
      00FF62A1H   LINE      CODE     ---       #184
      00FF62A4H   LINE      CODE     ---       #185
      00FF62A4H   LINE      CODE     ---       #187
      00FF62A4H   LINE      CODE     ---       #188
      ---         BLOCKEND  ---      ---       LVL=0

      00FF57DEH   BLOCK     CODE     ---       LVL=0
      WR30        REGSYM    ---      INT       tim_n
      WR28        REGSYM    ---      WORD      time_ms
      00FF57E0H   BLOCK     CODE     NEAR LAB  LVL=1
      WR28        REGSYM    ---      WORD      temp
      ---         BLOCKEND  ---      ---       LVL=1
      00FF57DEH   LINE      CODE     ---       #198
      00FF57E0H   LINE      CODE     ---       #199
      00FF57E0H   LINE      CODE     ---       #201
      00FF57FDH   LINE      CODE     ---       #203
      00FF5801H   LINE      CODE     ---       #205
      00FF5805H   LINE      CODE     ---       #206
      00FF580BH   LINE      CODE     ---       #207
      00FF580FH   LINE      CODE     ---       #208
L251 LINKER/LOCATER V4.66.93.0                                                        07/20/2024  17:24:57  PAGE 49


      00FF5811H   LINE      CODE     ---       #209
      00FF5813H   LINE      CODE     ---       #210
      00FF5814H   LINE      CODE     ---       #211
      00FF581AH   LINE      CODE     ---       #213
      00FF581EH   LINE      CODE     ---       #214
      00FF5824H   LINE      CODE     ---       #215
      00FF5828H   LINE      CODE     ---       #216
      00FF582AH   LINE      CODE     ---       #217
      00FF582CH   LINE      CODE     ---       #218
      00FF582DH   LINE      CODE     ---       #219
      00FF5833H   LINE      CODE     ---       #221
      00FF5839H   LINE      CODE     ---       #222
      00FF583DH   LINE      CODE     ---       #223
      00FF5840H   LINE      CODE     ---       #224
      00FF5843H   LINE      CODE     ---       #225
      00FF5844H   LINE      CODE     ---       #226
      00FF584AH   LINE      CODE     ---       #228
      00FF5850H   LINE      CODE     ---       #229
      00FF5854H   LINE      CODE     ---       #230
      00FF5857H   LINE      CODE     ---       #231
      00FF585AH   LINE      CODE     ---       #232
      00FF585BH   LINE      CODE     ---       #233
      00FF5861H   LINE      CODE     ---       #235
      00FF5867H   LINE      CODE     ---       #236
      00FF586BH   LINE      CODE     ---       #237
      00FF586EH   LINE      CODE     ---       #238
      00FF5871H   LINE      CODE     ---       #239
      ---         BLOCKEND  ---      ---       LVL=0
      WR30        REGSYM    ---      INT       tim_n
      WR28        REGSYM    ---      WORD      time_us
      WR28        REGSYM    ---      WORD      temp

      ---         MODULE    ---      ---       zf_uart
      00FF6158H   PUBLIC    CODE     ---       uart_putchar
      00FF41F5H   PUBLIC    CODE     ---       uart_init
      00000321H   PUBLIC    EDATA    ---       uart1_rx_buff
      00000385H   PUBLIC    EDATA    ---       uart1_tx_buff
      000003E9H   PUBLIC    EDATA    ---       busy
      00000400H   PUBLIC    EDATA    BYTE      ?uart_init?BYTE
      000000D0H   SFRSYM    DATA     BYTE      PSW
      000000FDH   SFRSYM    DATA     BYTE      S4CON
      000000ACH   SFRSYM    DATA     BYTE      S3CON
      0000009AH   SFRSYM    DATA     BYTE      S2CON
      000000FEH   SFRSYM    DATA     BYTE      S4BUF
      000000ADH   SFRSYM    DATA     BYTE      S3BUF
      0000009BH   SFRSYM    DATA     BYTE      S2BUF
      000000B7H   SFRSYM    DATA     BYTE      IPH
      000000DDH   SFRSYM    DATA     BYTE      T4T3M
      00000088H.6 SFRSYM    DATA     BIT       TR1
      000000D3H   SFRSYM    DATA     BYTE      T4L
      000000D5H   SFRSYM    DATA     BYTE      T3L
      000000D7H   SFRSYM    DATA     BYTE      T2L
      0000008BH   SFRSYM    DATA     BYTE      TL1
      000000D2H   SFRSYM    DATA     BYTE      T4H
      000000D4H   SFRSYM    DATA     BYTE      T3H
      000000D6H   SFRSYM    DATA     BYTE      T2H
      0000008DH   SFRSYM    DATA     BYTE      TH1
      0000008EH   SFRSYM    DATA     BYTE      AUXR
      000000AFH   SFRSYM    DATA     BYTE      IE2
      00000088H   SFRSYM    DATA     BYTE      TCON
      00000089H   SFRSYM    DATA     BYTE      TMOD
      00000098H   SFRSYM    DATA     BYTE      SCON
      00000099H   SFRSYM    DATA     BYTE      SBUF
      000000BCH   SFRSYM    DATA     BYTE      ADC_CONTR
      000000DEH   SFRSYM    DATA     BYTE      ADCCFG
L251 LINKER/LOCATER V4.66.93.0                                                        07/20/2024  17:24:57  PAGE 50


      000000B8H   SFRSYM    DATA     BYTE      IP
      000000A8H.4 SFRSYM    DATA     BIT       ES
      000000A8H   SFRSYM    DATA     BYTE      IE
      000000BAH   SFRSYM    DATA     BYTE      P_SW2
      000000A2H   SFRSYM    DATA     BYTE      P_SW1
      000000F8H   SFRSYM    DATA     BYTE      P7
      000000E8H   SFRSYM    DATA     BYTE      P6
      000000C8H   SFRSYM    DATA     BYTE      P5
      000000C0H   SFRSYM    DATA     BYTE      P4
      000000C9H   SFRSYM    DATA     BYTE      P5M1
      000000B0H   SFRSYM    DATA     BYTE      P3
      000000CAH   SFRSYM    DATA     BYTE      P5M0
      000000A0H   SFRSYM    DATA     BYTE      P2
      00000090H   SFRSYM    DATA     BYTE      P1
      00000080H   SFRSYM    DATA     BYTE      P0

      00FF41F5H   BLOCK     CODE     ---       LVL=0
      WR24        REGSYM    ---      INT       uart_n
      WR28        REGSYM    ---      INT       uart_rx_pin
      WR30        REGSYM    ---      INT       uart_tx_pin
      00000406H   SYMBOL    EDATA    DWORD     baud
      WR26        REGSYM    ---      INT       tim_n
      00FF41FDH   BLOCK     CODE     NEAR LAB  LVL=1
      WR6         REGSYM    ---      WORD      brt
      ---         BLOCKEND  ---      ---       LVL=1
      00FF41F5H   LINE      CODE     ---       #48
      00FF41FDH   LINE      CODE     ---       #49
      00FF41FDH   LINE      CODE     ---       #52
      00FF4220H   LINE      CODE     ---       #55
      00FF423EH   LINE      CODE     ---       #57
      00FF423EH   LINE      CODE     ---       #59
      00FF4244H   LINE      CODE     ---       #61
      00FF4247H   LINE      CODE     ---       #62
      00FF424BH   LINE      CODE     ---       #63
      00FF424FH   LINE      CODE     ---       #64
      00FF4253H   LINE      CODE     ---       #65
      00FF4256H   LINE      CODE     ---       #66
      00FF4258H   LINE      CODE     ---       #67
      00FF425DH   LINE      CODE     ---       #68
      00FF425FH   LINE      CODE     ---       #69
      00FF4265H   LINE      CODE     ---       #71
      00FF4268H   LINE      CODE     ---       #72
      00FF426CH   LINE      CODE     ---       #73
      00FF4270H   LINE      CODE     ---       #74
      00FF4273H   LINE      CODE     ---       #75
      00FF4273H   LINE      CODE     ---       #76
      00FF4276H   LINE      CODE     ---       #77
      00FF4280H   LINE      CODE     ---       #79
      00FF4284H   LINE      CODE     ---       #80
      00FF4286H   LINE      CODE     ---       #81
      00FF4292H   LINE      CODE     ---       #83
      00FF4295H   LINE      CODE     ---       #84
      00FF4297H   LINE      CODE     ---       #85
      00FF42A3H   LINE      CODE     ---       #87
      00FF42A6H   LINE      CODE     ---       #88
      00FF42A8H   LINE      CODE     ---       #89
      00FF42B4H   LINE      CODE     ---       #91
      00FF42B7H   LINE      CODE     ---       #92
      00FF42B7H   LINE      CODE     ---       #93
      00FF42BCH   LINE      CODE     ---       #94
      00FF42BEH   LINE      CODE     ---       #95
      00FF42BFH   LINE      CODE     ---       #98
      00FF42BFH   LINE      CODE     ---       #100
      00FF42C5H   LINE      CODE     ---       #102
      00FF42C8H   LINE      CODE     ---       #103
L251 LINKER/LOCATER V4.66.93.0                                                        07/20/2024  17:24:57  PAGE 51


      00FF42CCH   LINE      CODE     ---       #104
      00FF42D0H   LINE      CODE     ---       #105
      00FF42D3H   LINE      CODE     ---       #106
      00FF42D3H   LINE      CODE     ---       #108
      00FF42D6H   LINE      CODE     ---       #109
      00FF42E2H   LINE      CODE     ---       #111
      00FF42E6H   LINE      CODE     ---       #112
      00FF42E8H   LINE      CODE     ---       #113
      00FF42F4H   LINE      CODE     ---       #115
      00FF42F7H   LINE      CODE     ---       #116
      00FF42F7H   LINE      CODE     ---       #118
      00FF42FAH   LINE      CODE     ---       #119
      00FF42FFH   LINE      CODE     ---       #120
      00FF4300H   LINE      CODE     ---       #123
      00FF4300H   LINE      CODE     ---       #125
      00FF4306H   LINE      CODE     ---       #127
      00FF4309H   LINE      CODE     ---       #128
      00FF430DH   LINE      CODE     ---       #129
      00FF4311H   LINE      CODE     ---       #130
      00FF4314H   LINE      CODE     ---       #131
      00FF4316H   LINE      CODE     ---       #132
      00FF431CH   LINE      CODE     ---       #134
      00FF431FH   LINE      CODE     ---       #135
      00FF4323H   LINE      CODE     ---       #136
      00FF4327H   LINE      CODE     ---       #137
      00FF432AH   LINE      CODE     ---       #138
      00FF432AH   LINE      CODE     ---       #140
      00FF432DH   LINE      CODE     ---       #141
      00FF4339H   LINE      CODE     ---       #143
      00FF433DH   LINE      CODE     ---       #144
      00FF433FH   LINE      CODE     ---       #145
      00FF434BH   LINE      CODE     ---       #147
      00FF434EH   LINE      CODE     ---       #148
      00FF434EH   LINE      CODE     ---       #150
      00FF4351H   LINE      CODE     ---       #151
      00FF4356H   LINE      CODE     ---       #152
      00FF4357H   LINE      CODE     ---       #155
      00FF4357H   LINE      CODE     ---       #157
      00FF435DH   LINE      CODE     ---       #159
      00FF4360H   LINE      CODE     ---       #160
      00FF4364H   LINE      CODE     ---       #161
      00FF4368H   LINE      CODE     ---       #162
      00FF436BH   LINE      CODE     ---       #163
      00FF436DH   LINE      CODE     ---       #164
      00FF4373H   LINE      CODE     ---       #166
      00FF4376H   LINE      CODE     ---       #167
      00FF437AH   LINE      CODE     ---       #168
      00FF437EH   LINE      CODE     ---       #169
      00FF4381H   LINE      CODE     ---       #170
      00FF4381H   LINE      CODE     ---       #172
      00FF4384H   LINE      CODE     ---       #173
      00FF4390H   LINE      CODE     ---       #175
      00FF4394H   LINE      CODE     ---       #176
      00FF4396H   LINE      CODE     ---       #177
      00FF43A2H   LINE      CODE     ---       #179
      00FF43A5H   LINE      CODE     ---       #180
      00FF43A8H   LINE      CODE     ---       #181
      00FF43ABH   LINE      CODE     ---       #182
      00FF43ABH   LINE      CODE     ---       #183
      00FF43AEH   LINE      CODE     ---       #184
      00FF43B3H   LINE      CODE     ---       #185
      00FF43B3H   LINE      CODE     ---       #188
      00FF43B3H   LINE      CODE     ---       #190
      ---         BLOCKEND  ---      ---       LVL=0

L251 LINKER/LOCATER V4.66.93.0                                                        07/20/2024  17:24:57  PAGE 52


      00FF6158H   BLOCK     CODE     ---       LVL=0
      WR6         REGSYM    ---      INT       uart_n
      R10         REGSYM    ---      BYTE      dat
      00FF6158H   LINE      CODE     ---       #199
      00FF615AH   LINE      CODE     ---       #201
      00FF616CH   LINE      CODE     ---       #203
      00FF616CH   LINE      CODE     ---       #204
      00FF6172H   LINE      CODE     ---       #205
      00FF6178H   LINE      CODE     ---       #206
      00FF617BH   LINE      CODE     ---       #207
      00FF617CH   LINE      CODE     ---       #208
      00FF617CH   LINE      CODE     ---       #209
      00FF6182H   LINE      CODE     ---       #210
      00FF6188H   LINE      CODE     ---       #211
      00FF618BH   LINE      CODE     ---       #212
      00FF618CH   LINE      CODE     ---       #213
      00FF618CH   LINE      CODE     ---       #214
      00FF6192H   LINE      CODE     ---       #215
      00FF6198H   LINE      CODE     ---       #216
      00FF619BH   LINE      CODE     ---       #217
      00FF619CH   LINE      CODE     ---       #218
      00FF619CH   LINE      CODE     ---       #219
      00FF61A2H   LINE      CODE     ---       #220
      00FF61A8H   LINE      CODE     ---       #221
      00FF61ABH   LINE      CODE     ---       #222
      00FF61ABH   LINE      CODE     ---       #223
      00FF61ABH   LINE      CODE     ---       #224
      ---         BLOCKEND  ---      ---       LVL=0
      REG=3       REGSYM    ---      ---       p
      REG=3       REGSYM    ---      ---       str

      ---         MODULE    ---      ---       zf_fifo
      00FF6455H   PUBLIC    CODE     ---       fifo_head_offset
      00FF50A0H   PUBLIC    CODE     ---       fifo_write_buffer
      000003EAH   PUBLIC    EDATA    BYTE      ?fifo_write_buffer?BYTE
      000000D0H   SFRSYM    DATA     BYTE      PSW
      000000B7H   SFRSYM    DATA     BYTE      IPH
      00000088H   SFRSYM    DATA     BYTE      TCON
      00000098H   SFRSYM    DATA     BYTE      SCON
      000000BCH   SFRSYM    DATA     BYTE      ADC_CONTR
      000000DEH   SFRSYM    DATA     BYTE      ADCCFG
      000000B8H   SFRSYM    DATA     BYTE      IP
      000000A8H   SFRSYM    DATA     BYTE      IE
      000000F8H   SFRSYM    DATA     BYTE      P7
      000000E8H   SFRSYM    DATA     BYTE      P6
      000000C8H   SFRSYM    DATA     BYTE      P5
      000000C0H   SFRSYM    DATA     BYTE      P4
      000000B0H   SFRSYM    DATA     BYTE      P3
      000000A0H   SFRSYM    DATA     BYTE      P2
      00000090H   SFRSYM    DATA     BYTE      P1
      00000080H   SFRSYM    DATA     BYTE      P0
      REG=2       REGSYM    ---      ---       fifo
      REG=7       REGSYM    ---      ---       buffer_addr

      00FF6455H   BLOCK     CODE     ---       LVL=0
      REG=7       REGSYM    ---      ---       fifo
      DR24        REGSYM    ---      DWORD     offset
      00FF6455H   LINE      CODE     ---       #61
      00FF6459H   LINE      CODE     ---       #63
      00FF6464H   LINE      CODE     ---       #65
      00FF6466H   LINE      CODE     ---       #67
      00FF6482H   LINE      CODE     ---       #68
      00FF6496H   LINE      CODE     ---       #69
      ---         BLOCKEND  ---      ---       LVL=0
      REG=7       REGSYM    ---      ---       fifo
L251 LINKER/LOCATER V4.66.93.0                                                        07/20/2024  17:24:57  PAGE 53


      DR24        REGSYM    ---      DWORD     offset
      REG=2       REGSYM    ---      ---       fifo
      REG=7       REGSYM    ---      ---       fifo

      00FF50A0H   BLOCK     CODE     ---       LVL=0
      REG=3       REGSYM    ---      ---       fifo
      000003EEH   SYMBOL    EDATA    ---       dat
      000003F2H   SYMBOL    EDATA    DWORD     length
      00FF50A8H   BLOCK     CODE     NEAR LAB  LVL=1
      000003F6H   SYMBOL    EDATA    DWORD     temp_length
      ---         BLOCKEND  ---      ---       LVL=1
      00FF50A0H   LINE      CODE     ---       #120
      00FF50A8H   LINE      CODE     ---       #121
      00FF50A8H   LINE      CODE     ---       #124
      00FF50BBH   LINE      CODE     ---       #126
      00FF50D1H   LINE      CODE     ---       #128
      00FF50D5H   LINE      CODE     ---       #130
      00FF50EDH   LINE      CODE     ---       #131
      00FF50F6H   LINE      CODE     ---       #132
      00FF5106H   LINE      CODE     ---       #133
      00FF5126H   LINE      CODE     ---       #134
      00FF5132H   LINE      CODE     ---       #135
      00FF5134H   LINE      CODE     ---       #138
      00FF5150H   LINE      CODE     ---       #139
      00FF5159H   LINE      CODE     ---       #140
      00FF5159H   LINE      CODE     ---       #142
      00FF5173H   LINE      CODE     ---       #143
      00FF5175H   LINE      CODE     ---       #146
      00FF517BH   LINE      CODE     ---       #147
      00FF517BH   LINE      CODE     ---       #149
      00FF517DH   LINE      CODE     ---       #150
      ---         BLOCKEND  ---      ---       LVL=0
      REG=3       REGSYM    ---      ---       fifo

      ---         MODULE    ---      ---       SEEKFREE_18TFT
      000000D0H   SFRSYM    DATA     BYTE      PSW
      000000B7H   SFRSYM    DATA     BYTE      IPH
      000000A0H.5 SFRSYM    DATA     BIT       P25
      00000088H   SFRSYM    DATA     BYTE      TCON
      000000A0H.3 SFRSYM    DATA     BIT       P23
      00000098H   SFRSYM    DATA     BYTE      SCON
      000000A0H.2 SFRSYM    DATA     BIT       P22
      000000A0H.1 SFRSYM    DATA     BIT       P21
      000000A0H.0 SFRSYM    DATA     BIT       P20
      000000BCH   SFRSYM    DATA     BYTE      ADC_CONTR
      000000DEH   SFRSYM    DATA     BYTE      ADCCFG
      000000B8H   SFRSYM    DATA     BYTE      IP
      000000A8H   SFRSYM    DATA     BYTE      IE
      000000F8H   SFRSYM    DATA     BYTE      P7
      000000E8H   SFRSYM    DATA     BYTE      P6
      000000C8H   SFRSYM    DATA     BYTE      P5
      000000C0H   SFRSYM    DATA     BYTE      P4
      000000B0H   SFRSYM    DATA     BYTE      P3
      000000A0H   SFRSYM    DATA     BYTE      P2
      00000090H   SFRSYM    DATA     BYTE      P1
      00000080H   SFRSYM    DATA     BYTE      P0
      R7          REGSYM    ---      BYTE      dat
      R6          REGSYM    ---      BYTE      i
      R7          REGSYM    ---      BYTE      dat
      R6          REGSYM    ---      BYTE      i
      WR4         REGSYM    ---      WORD      dat
      R10         REGSYM    ---      BYTE      i
      WR12        REGSYM    ---      WORD      x_end
      WR14        REGSYM    ---      WORD      y_end
      WR14        REGSYM    ---      INT       color
L251 LINKER/LOCATER V4.66.93.0                                                        07/20/2024  17:24:57  PAGE 54


      R13         REGSYM    ---      BYTE      i
      R12         REGSYM    ---      BYTE      j
      WR2         REGSYM    ---      WORD      x
      WR0         REGSYM    ---      WORD      y
      WR14        REGSYM    ---      WORD      color
      WR12        REGSYM    ---      WORD      x
      WR14        REGSYM    ---      WORD      y
      REG=3       REGSYM    ---      ---       dat
      WR12        REGSYM    ---      WORD      x
      WR14        REGSYM    ---      WORD      y
      WR12        REGSYM    ---      WORD      x
      WR14        REGSYM    ---      WORD      y
      R10         REGSYM    ---      BYTE      dat
      WR12        REGSYM    ---      WORD      x
      WR14        REGSYM    ---      WORD      y
      WR12        REGSYM    ---      WORD      x
      WR14        REGSYM    ---      WORD      y
      WR2         REGSYM    ---      WORD      dat
      WR12        REGSYM    ---      WORD      y
      R15         REGSYM    ---      BYTE      num
      R14         REGSYM    ---      BYTE      length
      DR12        REGSYM    ---      FLOAT     dat
      R7          REGSYM    ---      CHAR      point
      R7          REGSYM    ---      BYTE      dat
      R7          REGSYM    ---      BYTE      dat
      WR4         REGSYM    ---      WORD      dat
      WR12        REGSYM    ---      WORD      x_end
      WR14        REGSYM    ---      WORD      y_end
      WR14        REGSYM    ---      INT       color
      R13         REGSYM    ---      BYTE      i
      R12         REGSYM    ---      BYTE      j
      WR2         REGSYM    ---      WORD      x
      WR0         REGSYM    ---      WORD      y
      WR14        REGSYM    ---      WORD      color
      WR12        REGSYM    ---      WORD      x
      WR14        REGSYM    ---      WORD      y
      REG=3       REGSYM    ---      ---       dat
      WR12        REGSYM    ---      WORD      x
      WR14        REGSYM    ---      WORD      y
      WR12        REGSYM    ---      WORD      x
      WR14        REGSYM    ---      WORD      y
      R10         REGSYM    ---      BYTE      dat
      WR12        REGSYM    ---      WORD      x
      WR14        REGSYM    ---      WORD      y
      WR12        REGSYM    ---      WORD      x
      WR14        REGSYM    ---      WORD      y
      WR2         REGSYM    ---      WORD      dat
      WR12        REGSYM    ---      WORD      y
      R15         REGSYM    ---      BYTE      num
      R14         REGSYM    ---      BYTE      length
      DR12        REGSYM    ---      FLOAT     dat
      R7          REGSYM    ---      CHAR      point
      REG=3       REGSYM    ---      ---       p

      ---         MODULE    ---      ---       SEEKFREE_ABSOLUTE_ENCODER
      000000D0H   SFRSYM    DATA     BYTE      PSW
      000000B7H   SFRSYM    DATA     BYTE      IPH
      000000A0H.7 SFRSYM    DATA     BIT       P27
      000000A0H.6 SFRSYM    DATA     BIT       P26
      000000A0H.5 SFRSYM    DATA     BIT       P25
      000000A0H.4 SFRSYM    DATA     BIT       P24
      00000088H   SFRSYM    DATA     BYTE      TCON
      00000098H   SFRSYM    DATA     BYTE      SCON
      000000A0H.2 SFRSYM    DATA     BIT       P22
      000000BCH   SFRSYM    DATA     BYTE      ADC_CONTR
L251 LINKER/LOCATER V4.66.93.0                                                        07/20/2024  17:24:57  PAGE 55


      000000DEH   SFRSYM    DATA     BYTE      ADCCFG
      000000B8H   SFRSYM    DATA     BYTE      IP
      000000A8H   SFRSYM    DATA     BYTE      IE
      000000F8H   SFRSYM    DATA     BYTE      P7
      000000E8H   SFRSYM    DATA     BYTE      P6
      000000C8H   SFRSYM    DATA     BYTE      P5
      000000C0H   SFRSYM    DATA     BYTE      P4
      000000B0H   SFRSYM    DATA     BYTE      P3
      000000A0H   SFRSYM    DATA     BYTE      P2
      00000090H   SFRSYM    DATA     BYTE      P1
      00000080H   SFRSYM    DATA     BYTE      P0
      WR6         REGSYM    ---      WORD      x
      R6          REGSYM    ---      BYTE      byte
      R7          REGSYM    ---      BYTE      i
      R7          REGSYM    ---      BYTE      cmd
      R15         REGSYM    ---      BYTE      val
      R7          REGSYM    ---      BYTE      cmd
      REG=3       REGSYM    ---      ---       val
      R7          REGSYM    ---      BYTE      cmd
      R15         REGSYM    ---      BYTE      val
      R14         REGSYM    ---      BYTE      dat
      R7          REGSYM    ---      BYTE      cmd
      REG=3       REGSYM    ---      ---       val
      WR14        REGSYM    ---      WORD      zero_position
      WR14        REGSYM    ---      WORD      angle
      R10         REGSYM    ---      BYTE      byte
      R7          REGSYM    ---      BYTE      cmd
      R15         REGSYM    ---      BYTE      val
      R7          REGSYM    ---      BYTE      cmd
      REG=3       REGSYM    ---      ---       val
      R7          REGSYM    ---      BYTE      cmd
      R15         REGSYM    ---      BYTE      val
      R14         REGSYM    ---      BYTE      dat
      R7          REGSYM    ---      BYTE      cmd
      REG=3       REGSYM    ---      ---       val
      WR14        REGSYM    ---      WORD      zero_position
      WR14        REGSYM    ---      WORD      angle

      ---         MODULE    ---      ---       SEEKFREE_FONT
      00FF00A6H   PUBLIC    CODE     ---       oled_8x16
      00FF0696H   PUBLIC    CODE     ---       tft_ascii
      00FF0C86H   PUBLIC    CODE     ---       oled_6x8
      000000D0H   SFRSYM    DATA     BYTE      PSW
      000000B7H   SFRSYM    DATA     BYTE      IPH
      00000088H   SFRSYM    DATA     BYTE      TCON
      00000098H   SFRSYM    DATA     BYTE      SCON
      000000BCH   SFRSYM    DATA     BYTE      ADC_CONTR
      000000DEH   SFRSYM    DATA     BYTE      ADCCFG
      000000B8H   SFRSYM    DATA     BYTE      IP
      000000A8H   SFRSYM    DATA     BYTE      IE
      000000F8H   SFRSYM    DATA     BYTE      P7
      000000E8H   SFRSYM    DATA     BYTE      P6
      000000C8H   SFRSYM    DATA     BYTE      P5
      000000C0H   SFRSYM    DATA     BYTE      P4
      000000B0H   SFRSYM    DATA     BYTE      P3
      000000A0H   SFRSYM    DATA     BYTE      P2
      00000090H   SFRSYM    DATA     BYTE      P1
      00000080H   SFRSYM    DATA     BYTE      P0

      ---         MODULE    ---      ---       SEEKFREE_IIC
      00000750H   PUBLIC    EDATA    BYTE      IIC_ad_main
      00000751H   PUBLIC    EDATA    BYTE      IIC_num
      00000752H   PUBLIC    EDATA    BYTE      IIC_ad_sub
      00000753H   PUBLIC    EDATA    ---       IIC_buf
      000000D0H   SFRSYM    DATA     BYTE      PSW
L251 LINKER/LOCATER V4.66.93.0                                                        07/20/2024  17:24:57  PAGE 56


      000000B7H   SFRSYM    DATA     BYTE      IPH
      00000088H   SFRSYM    DATA     BYTE      TCON
      000000C0H.1 SFRSYM    DATA     BIT       P41
      00000098H   SFRSYM    DATA     BYTE      SCON
      000000C0H.0 SFRSYM    DATA     BIT       P40
      000000BCH   SFRSYM    DATA     BYTE      ADC_CONTR
      000000DEH   SFRSYM    DATA     BYTE      ADCCFG
      000000B8H   SFRSYM    DATA     BYTE      IP
      000000A8H   SFRSYM    DATA     BYTE      IE
      000000F8H   SFRSYM    DATA     BYTE      P7
      000000E8H   SFRSYM    DATA     BYTE      P6
      000000C8H   SFRSYM    DATA     BYTE      P5
      000000C0H   SFRSYM    DATA     BYTE      P4
      000000B0H   SFRSYM    DATA     BYTE      P3
      000000A0H   SFRSYM    DATA     BYTE      P2
      00000090H   SFRSYM    DATA     BYTE      P1
      00000080H   SFRSYM    DATA     BYTE      P0
      WR6         REGSYM    ---      WORD      j
      R15         REGSYM    ---      BYTE      ack_dat
      R15         REGSYM    ---      BYTE      c
      R14         REGSYM    ---      BYTE      i
      R15         REGSYM    ---      BYTE      ack_x
      R13         REGSYM    ---      BYTE      i
      R14         REGSYM    ---      BYTE      c
      R13         REGSYM    ---      BYTE      dev_add
      R14         REGSYM    ---      BYTE      reg
      R15         REGSYM    ---      BYTE      dat
      R15         REGSYM    ---      BYTE      dev_add
      R14         REGSYM    ---      BYTE      reg
      WR12        REGSYM    ---      INT       type
      R15         REGSYM    ---      BYTE      dat
      REG=3       REGSYM    ---      ---       dat_add

      ---         MODULE    ---      ---       SEEKFREE_MPU6050
      0000072EH   PUBLIC    EDATA    INT       mpu_acc_x
      00000730H   PUBLIC    EDATA    INT       mpu_acc_y
      00000732H   PUBLIC    EDATA    INT       mpu_acc_z
      00000734H   PUBLIC    EDATA    INT       mpu_gyro_x
      00000736H   PUBLIC    EDATA    INT       mpu_gyro_y
      00000738H   PUBLIC    EDATA    INT       mpu_gyro_z
      000000D0H   SFRSYM    DATA     BYTE      PSW
      000000B7H   SFRSYM    DATA     BYTE      IPH
      00000088H   SFRSYM    DATA     BYTE      TCON
      00000098H   SFRSYM    DATA     BYTE      SCON
      000000BCH   SFRSYM    DATA     BYTE      ADC_CONTR
      000000DEH   SFRSYM    DATA     BYTE      ADCCFG
      000000B8H   SFRSYM    DATA     BYTE      IP
      000000A8H   SFRSYM    DATA     BYTE      IE
      000000F8H   SFRSYM    DATA     BYTE      P7
      000000E8H   SFRSYM    DATA     BYTE      P6
      000000C8H   SFRSYM    DATA     BYTE      P5
      000000C0H   SFRSYM    DATA     BYTE      P4
      000000B0H   SFRSYM    DATA     BYTE      P3
      000000A0H   SFRSYM    DATA     BYTE      P2
      00000090H   SFRSYM    DATA     BYTE      P1
      00000080H   SFRSYM    DATA     BYTE      P0

      ---         MODULE    ---      ---       SEEKFREE_OLED
      00FF6A20H   PUBLIC    CODE     ---       oled_set_pos
      00FF4CECH   PUBLIC    CODE     ---       oled_printf_float
      00FF6935H   PUBLIC    CODE     ---       oled_wrcmd
      00FF695EH   PUBLIC    CODE     ---       oled_wrdat
      00FF6762H   PUBLIC    CODE     ---       oled_fill
      00FF56A5H   PUBLIC    CODE     ---       oled_init
      00FF4ED4H   PUBLIC    CODE     ---       oled_p8x16str
L251 LINKER/LOCATER V4.66.93.0                                                        07/20/2024  17:24:57  PAGE 57


      00000402H   PUBLIC    EDATA    BYTE      ?oled_printf_float?BYTE
      000000D0H   SFRSYM    DATA     BYTE      PSW
      000000B7H   SFRSYM    DATA     BYTE      IPH
      000000A0H.5 SFRSYM    DATA     BIT       P25
      00000088H   SFRSYM    DATA     BYTE      TCON
      000000A0H.3 SFRSYM    DATA     BIT       P23
      00000098H   SFRSYM    DATA     BYTE      SCON
      000000A0H.2 SFRSYM    DATA     BIT       P22
      000000A0H.1 SFRSYM    DATA     BIT       P21
      000000A0H.0 SFRSYM    DATA     BIT       P20
      000000BCH   SFRSYM    DATA     BYTE      ADC_CONTR
      000000DEH   SFRSYM    DATA     BYTE      ADCCFG
      000000B8H   SFRSYM    DATA     BYTE      IP
      000000A8H   SFRSYM    DATA     BYTE      IE
      000000F8H   SFRSYM    DATA     BYTE      P7
      000000E8H   SFRSYM    DATA     BYTE      P6
      000000C8H   SFRSYM    DATA     BYTE      P5
      000000C0H   SFRSYM    DATA     BYTE      P4
      000000B0H   SFRSYM    DATA     BYTE      P3
      000000A0H   SFRSYM    DATA     BYTE      P2
      00000090H   SFRSYM    DATA     BYTE      P1
      00000080H   SFRSYM    DATA     BYTE      P0

      00FF695EH   BLOCK     CODE     ---       LVL=0
      R7          REGSYM    ---      BYTE      dat
      00FF6960H   BLOCK     CODE     NEAR LAB  LVL=1
      R6          REGSYM    ---      BYTE      i
      ---         BLOCKEND  ---      ---       LVL=1
      00FF695EH   LINE      CODE     ---       #47
      00FF6960H   LINE      CODE     ---       #48
      00FF6960H   LINE      CODE     ---       #49
      00FF6963H   LINE      CODE     ---       #51
      00FF6965H   LINE      CODE     ---       #52
      00FF6967H   LINE      CODE     ---       #53
      00FF6969H   LINE      CODE     ---       #54
      00FF696BH   LINE      CODE     ---       #56
      00FF6974H   LINE      CODE     ---       #57
      00FF6976H   LINE      CODE     ---       #58
      00FF6978H   LINE      CODE     ---       #60
      00FF697AH   LINE      CODE     ---       #61
      00FF697CH   LINE      CODE     ---       #62
      00FF6984H   LINE      CODE     ---       #63
      00FF6986H   LINE      CODE     ---       #64
      ---         BLOCKEND  ---      ---       LVL=0

      00FF6935H   BLOCK     CODE     ---       LVL=0
      R7          REGSYM    ---      BYTE      cmd
      00FF6937H   BLOCK     CODE     NEAR LAB  LVL=1
      R6          REGSYM    ---      BYTE      i
      ---         BLOCKEND  ---      ---       LVL=1
      00FF6935H   LINE      CODE     ---       #98
      00FF6937H   LINE      CODE     ---       #99
      00FF6937H   LINE      CODE     ---       #100
      00FF693AH   LINE      CODE     ---       #102
      00FF693CH   LINE      CODE     ---       #103
      00FF693EH   LINE      CODE     ---       #104
      00FF6940H   LINE      CODE     ---       #106
      00FF6942H   LINE      CODE     ---       #108
      00FF694BH   LINE      CODE     ---       #109
      00FF694DH   LINE      CODE     ---       #110
      00FF694FH   LINE      CODE     ---       #112
      00FF6951H   LINE      CODE     ---       #113
      00FF6953H   LINE      CODE     ---       #114
      00FF695BH   LINE      CODE     ---       #115
      00FF695DH   LINE      CODE     ---       #116
L251 LINKER/LOCATER V4.66.93.0                                                        07/20/2024  17:24:57  PAGE 58


      ---         BLOCKEND  ---      ---       LVL=0
      WR8         REGSYM    ---      WORD      hex
      REG=7       REGSYM    ---      ---       Print
      R5          REGSYM    ---      BYTE      hexcheck
      R10         REGSYM    ---      BYTE      TEMP

      00FF56A5H   BLOCK     CODE     ---       LVL=0
      00FF56A5H   LINE      CODE     ---       #148
      00FF56A5H   LINE      CODE     ---       #151
      00FF56A7H   LINE      CODE     ---       #152
      00FF56A9H   LINE      CODE     ---       #154
      00FF56ABH   LINE      CODE     ---       #155
      00FF56B2H   LINE      CODE     ---       #156
      00FF56B4H   LINE      CODE     ---       #158
      00FF56B9H   LINE      CODE     ---       #159
      00FF56BDH   LINE      CODE     ---       #160
      00FF56C2H   LINE      CODE     ---       #161
      00FF56C7H   LINE      CODE     ---       #162
      00FF56CCH   LINE      CODE     ---       #163
      00FF56D1H   LINE      CODE     ---       #166
      00FF56D6H   LINE      CODE     ---       #167
      00FF56DBH   LINE      CODE     ---       #173
      00FF56E0H   LINE      CODE     ---       #174
      00FF56E5H   LINE      CODE     ---       #175
      00FF56EAH   LINE      CODE     ---       #176
      00FF56EFH   LINE      CODE     ---       #177
      00FF56F3H   LINE      CODE     ---       #178
      00FF56F8H   LINE      CODE     ---       #179
      00FF56FDH   LINE      CODE     ---       #180
      00FF5702H   LINE      CODE     ---       #181
      00FF5707H   LINE      CODE     ---       #182
      00FF570CH   LINE      CODE     ---       #183
      00FF5711H   LINE      CODE     ---       #184
      00FF5716H   LINE      CODE     ---       #185
      00FF571BH   LINE      CODE     ---       #186
      00FF5720H   LINE      CODE     ---       #187
      00FF5725H   LINE      CODE     ---       #188
      00FF572AH   LINE      CODE     ---       #189
      00FF572FH   LINE      CODE     ---       #190
      00FF5734H   LINE      CODE     ---       #191
      00FF5739H   LINE      CODE     ---       #192
      00FF573EH   LINE      CODE     ---       #193
      00FF5742H   LINE      CODE     ---       #194
      ---         BLOCKEND  ---      ---       LVL=0

      00FF6A20H   BLOCK     CODE     ---       LVL=0
      R15         REGSYM    ---      BYTE      x
      R10         REGSYM    ---      BYTE      y
      00FF6A20H   LINE      CODE     ---       #205
      00FF6A24H   LINE      CODE     ---       #207
      00FF6A2BH   LINE      CODE     ---       #208
      00FF6A39H   LINE      CODE     ---       #209
      00FF6A40H   LINE      CODE     ---       #210
      ---         BLOCKEND  ---      ---       LVL=0

      00FF6762H   BLOCK     CODE     ---       LVL=0
      R15         REGSYM    ---      BYTE      bmp_data
      00FF6768H   BLOCK     CODE     NEAR LAB  LVL=1
      R14         REGSYM    ---      BYTE      y
      R13         REGSYM    ---      BYTE      x
      ---         BLOCKEND  ---      ---       LVL=1
      00FF6762H   LINE      CODE     ---       #219
      00FF6768H   LINE      CODE     ---       #220
      00FF6768H   LINE      CODE     ---       #223
      00FF676AH   LINE      CODE     ---       #225
L251 LINKER/LOCATER V4.66.93.0                                                        07/20/2024  17:24:57  PAGE 59


      00FF6771H   LINE      CODE     ---       #226
      00FF6776H   LINE      CODE     ---       #227
      00FF677BH   LINE      CODE     ---       #228
      00FF6789H   LINE      CODE     ---       #229
      00FF6790H   LINE      CODE     ---       #230
      ---         BLOCKEND  ---      ---       LVL=0
      R15         REGSYM    ---      BYTE      x
      R14         REGSYM    ---      BYTE      y
      R13         REGSYM    ---      BYTE      data1
      R15         REGSYM    ---      BYTE      x
      R14         REGSYM    ---      BYTE      y
      REG=3       REGSYM    ---      ---       ch

      00FF4ED4H   BLOCK     CODE     ---       LVL=0
      00000431H   SYMBOL    EDATA    BYTE      x
      00000432H   SYMBOL    EDATA    BYTE      y
      REG=3       REGSYM    ---      ---       ch
      00FF4EE0H   BLOCK     CODE     NEAR LAB  LVL=1
      00000433H   SYMBOL    EDATA    BYTE      c
      00000434H   SYMBOL    EDATA    BYTE      i
      00000435H   SYMBOL    EDATA    BYTE      j
      ---         BLOCKEND  ---      ---       LVL=1
      00FF4ED4H   LINE      CODE     ---       #302
      00FF4EE0H   LINE      CODE     ---       #303
      00FF4EE0H   LINE      CODE     ---       #304
      00FF4EE9H   LINE      CODE     ---       #306
      00FF4EECH   LINE      CODE     ---       #308
      00FF4F03H   LINE      CODE     ---       #309
      00FF4F1AH   LINE      CODE     ---       #311
      00FF4F25H   LINE      CODE     ---       #312
      00FF4F56H   LINE      CODE     ---       #314
      00FF4F63H   LINE      CODE     ---       #315
      00FF4F94H   LINE      CODE     ---       #317
      00FF4F9EH   LINE      CODE     ---       #318
      00FF4FA7H   LINE      CODE     ---       #319
      00FF4FB9H   LINE      CODE     ---       #320
      ---         BLOCKEND  ---      ---       LVL=0
      R14         REGSYM    ---      BYTE      x
      R15         REGSYM    ---      BYTE      y
      WR4         REGSYM    ---      WORD      num
      R15         REGSYM    ---      BYTE      x
      R14         REGSYM    ---      BYTE      y
      WR12        REGSYM    ---      INT       num
      WR12        REGSYM    ---      WORD      y
      R15         REGSYM    ---      BYTE      num
      R14         REGSYM    ---      BYTE      length

      00FF4CECH   BLOCK     CODE     ---       LVL=0
      00000406H   SYMBOL    EDATA    WORD      x
      00000408H   SYMBOL    EDATA    WORD      y
      DR12        REGSYM    ---      FLOAT     dat
      0000040AH   SYMBOL    EDATA    BYTE      num
      0000040BH   SYMBOL    EDATA    BYTE      pointnum
      00FF4CFCH   BLOCK     CODE     NEAR LAB  LVL=1
      0000040CH   SYMBOL    EDATA    BYTE      length
      0000040DH   SYMBOL    EDATA    ---       buff
      0000042FH   SYMBOL    EDATA    CHAR      start
      00000430H   SYMBOL    EDATA    CHAR      end
      R7          REGSYM    ---      CHAR      point
      ---         BLOCKEND  ---      ---       LVL=1
      00FF4CECH   LINE      CODE     ---       #412
      00FF4CFCH   LINE      CODE     ---       #413
      00FF4CFCH   LINE      CODE     ---       #418
      00FF4D0BH   LINE      CODE     ---       #419
      00FF4D1AH   LINE      CODE     ---       #421
L251 LINKER/LOCATER V4.66.93.0                                                        07/20/2024  17:24:57  PAGE 60


      00FF4D3CH   LINE      CODE     ---       #424
      00FF4D55H   LINE      CODE     ---       #425
      00FF4D5AH   LINE      CODE     ---       #426
      00FF4D5AH   LINE      CODE     ---       #427
      00FF4D64H   LINE      CODE     ---       #428
      00FF4D74H   LINE      CODE     ---       #429
      00FF4D84H   LINE      CODE     ---       #430
      00FF4D89H   LINE      CODE     ---       #432
      00FF4D93H   LINE      CODE     ---       #433
      00FF4D9CH   LINE      CODE     ---       #434
      00FF4DA5H   LINE      CODE     ---       #435
      00FF4DAEH   LINE      CODE     ---       #437
      00FF4DBBH   LINE      CODE     ---       #438
      00FF4DC7H   LINE      CODE     ---       #440
      00FF4DD2H   LINE      CODE     ---       #442
      00FF4DE1H   LINE      CODE     ---       #443
      ---         BLOCKEND  ---      ---       LVL=0
      WR4         REGSYM    ---      WORD      high
      REG=3       REGSYM    ---      ---       p
      REG=3       REGSYM    ---      ---       p
      R7          REGSYM    ---      BYTE      dat
      R7          REGSYM    ---      BYTE      cmd
      WR8         REGSYM    ---      WORD      hex
      REG=7       REGSYM    ---      ---       Print
      R5          REGSYM    ---      BYTE      hexcheck
      R10         REGSYM    ---      BYTE      TEMP
      R15         REGSYM    ---      BYTE      x
      R10         REGSYM    ---      BYTE      y
      R15         REGSYM    ---      BYTE      bmp_data
      R14         REGSYM    ---      BYTE      y
      R13         REGSYM    ---      BYTE      x
      R15         REGSYM    ---      BYTE      x
      R14         REGSYM    ---      BYTE      y
      R13         REGSYM    ---      BYTE      data1
      R15         REGSYM    ---      BYTE      x
      R14         REGSYM    ---      BYTE      y
      REG=3       REGSYM    ---      ---       ch
      REG=3       REGSYM    ---      ---       ch
      R14         REGSYM    ---      BYTE      x
      R15         REGSYM    ---      BYTE      y
      WR4         REGSYM    ---      WORD      num
      R15         REGSYM    ---      BYTE      x
      R14         REGSYM    ---      BYTE      y
      WR12        REGSYM    ---      INT       num
      WR12        REGSYM    ---      WORD      y
      R15         REGSYM    ---      BYTE      num
      R14         REGSYM    ---      BYTE      length
      DR12        REGSYM    ---      FLOAT     dat
      R7          REGSYM    ---      CHAR      point
      WR4         REGSYM    ---      WORD      high
      REG=3       REGSYM    ---      ---       p
      REG=3       REGSYM    ---      ---       p

      ---         MODULE    ---      ---       SEEKFREE_AT24C02
      000000D0H   SFRSYM    DATA     BYTE      PSW
      000000B7H   SFRSYM    DATA     BYTE      IPH
      00000088H   SFRSYM    DATA     BYTE      TCON
      00000098H   SFRSYM    DATA     BYTE      SCON
      000000BCH   SFRSYM    DATA     BYTE      ADC_CONTR
      000000DEH   SFRSYM    DATA     BYTE      ADCCFG
      000000B8H   SFRSYM    DATA     BYTE      IP
      000000A8H   SFRSYM    DATA     BYTE      IE
      000000F8H   SFRSYM    DATA     BYTE      P7
      000000E8H   SFRSYM    DATA     BYTE      P6
      000000C8H   SFRSYM    DATA     BYTE      P5
L251 LINKER/LOCATER V4.66.93.0                                                        07/20/2024  17:24:57  PAGE 61


      000000C0H   SFRSYM    DATA     BYTE      P4
      000000B0H   SFRSYM    DATA     BYTE      P3
      000000A0H   SFRSYM    DATA     BYTE      P2
      00000090H   SFRSYM    DATA     BYTE      P1
      00000080H   SFRSYM    DATA     BYTE      P0
      R14         REGSYM    ---      BYTE      byte_reg
      R15         REGSYM    ---      BYTE      dat
      R15         REGSYM    ---      BYTE      byte_reg
      REG=3       REGSYM    ---      ---       dat_add
      REG=3       REGSYM    ---      ---       dat_add

      ---         MODULE    ---      ---       SEEKFREE_BLUETOOTH_CH9141
      00FF6B1EH   PUBLIC    CODE     ---       bluetooth_ch9141_uart_callback
      000000D0H   SFRSYM    DATA     BYTE      PSW
      000000FEH   SFRSYM    DATA     BYTE      S4BUF
      000000B7H   SFRSYM    DATA     BYTE      IPH
      00000080H.7 SFRSYM    DATA     BIT       P07
      00000088H   SFRSYM    DATA     BYTE      TCON
      00000098H   SFRSYM    DATA     BYTE      SCON
      000000BCH   SFRSYM    DATA     BYTE      ADC_CONTR
      000000DEH   SFRSYM    DATA     BYTE      ADCCFG
      000000B8H   SFRSYM    DATA     BYTE      IP
      000000A8H   SFRSYM    DATA     BYTE      IE
      000000F8H   SFRSYM    DATA     BYTE      P7
      000000E8H   SFRSYM    DATA     BYTE      P6
      000000C8H   SFRSYM    DATA     BYTE      P5
      000000C0H   SFRSYM    DATA     BYTE      P4
      000000B0H   SFRSYM    DATA     BYTE      P3
      000000A0H   SFRSYM    DATA     BYTE      P2
      00000090H   SFRSYM    DATA     BYTE      P1
      00000080H   SFRSYM    DATA     BYTE      P0
      00000565H   SYMBOL    EDATA    ---       bluetooth_ch9141_buffer
      000005A5H   SYMBOL    EDATA    BYTE      bluetooth_ch9141_data
      000005A6H   SYMBOL    EDATA    ---       bluetooth_ch9141_fifo

      00FF6B1EH   BLOCK     CODE     ---       LVL=0
      00FF6B1EH   LINE      CODE     ---       #67
      00FF6B1EH   LINE      CODE     ---       #70
      00FF6B24H   LINE      CODE     ---       #71
      ---         BLOCKEND  ---      ---       LVL=0
      DR12        REGSYM    ---      DWORD     len
      REG=7       REGSYM    ---      ---       buff
      DR8         REGSYM    ---      DWORD     len

      ---         MODULE    ---      ---       SEEKFREE_ICM20602
      0000073AH   PUBLIC    EDATA    INT       icm_acc_x
      0000073CH   PUBLIC    EDATA    INT       icm_acc_y
      0000073EH   PUBLIC    EDATA    INT       icm_acc_z
      00000740H   PUBLIC    EDATA    INT       icm_gyro_x
      00000742H   PUBLIC    EDATA    INT       icm_gyro_y
      00000744H   PUBLIC    EDATA    INT       icm_gyro_z
      000000D0H   SFRSYM    DATA     BYTE      PSW
      000000B7H   SFRSYM    DATA     BYTE      IPH
      000000C0H.3 SFRSYM    DATA     BIT       P43
      000000C0H.2 SFRSYM    DATA     BIT       P42
      00000088H   SFRSYM    DATA     BYTE      TCON
      000000C0H.1 SFRSYM    DATA     BIT       P41
      00000098H   SFRSYM    DATA     BYTE      SCON
      000000C0H.0 SFRSYM    DATA     BIT       P40
      000000BCH   SFRSYM    DATA     BYTE      ADC_CONTR
      000000DEH   SFRSYM    DATA     BYTE      ADCCFG
      000000B8H   SFRSYM    DATA     BYTE      IP
      000000A8H   SFRSYM    DATA     BYTE      IE
      000000F8H   SFRSYM    DATA     BYTE      P7
      000000E8H   SFRSYM    DATA     BYTE      P6
L251 LINKER/LOCATER V4.66.93.0                                                        07/20/2024  17:24:57  PAGE 62


      000000C8H   SFRSYM    DATA     BYTE      P5
      000000C0H   SFRSYM    DATA     BYTE      P4
      000000B0H   SFRSYM    DATA     BYTE      P3
      000000A0H   SFRSYM    DATA     BYTE      P2
      00000090H   SFRSYM    DATA     BYTE      P1
      00000080H   SFRSYM    DATA     BYTE      P0
      R15         REGSYM    ---      BYTE      dat
      R6          REGSYM    ---      BYTE      byte
      R7          REGSYM    ---      BYTE      i
      R7          REGSYM    ---      BYTE      cmd
      R15         REGSYM    ---      BYTE      val
      R7          REGSYM    ---      BYTE      cmd
      REG=3       REGSYM    ---      ---       val
      R7          REGSYM    ---      BYTE      cmd
      REG=3       REGSYM    ---      ---       val

      ---         MODULE    ---      ---       SEEKFREE_IPS114_SPI
      000000D0H   SFRSYM    DATA     BYTE      PSW
      000000B7H   SFRSYM    DATA     BYTE      IPH
      000000A0H.7 SFRSYM    DATA     BIT       P27
      000000A0H.5 SFRSYM    DATA     BIT       P25
      00000088H   SFRSYM    DATA     BYTE      TCON
      000000A0H.3 SFRSYM    DATA     BIT       P23
      00000098H   SFRSYM    DATA     BYTE      SCON
      000000A0H.2 SFRSYM    DATA     BIT       P22
      000000A0H.1 SFRSYM    DATA     BIT       P21
      000000A0H.0 SFRSYM    DATA     BIT       P20
      000000BCH   SFRSYM    DATA     BYTE      ADC_CONTR
      000000DEH   SFRSYM    DATA     BYTE      ADCCFG
      000000B8H   SFRSYM    DATA     BYTE      IP
      000000A8H   SFRSYM    DATA     BYTE      IE
      000000F8H   SFRSYM    DATA     BYTE      P7
      000000E8H   SFRSYM    DATA     BYTE      P6
      000000C8H   SFRSYM    DATA     BYTE      P5
      000000C0H   SFRSYM    DATA     BYTE      P4
      000000B0H   SFRSYM    DATA     BYTE      P3
      000000A0H   SFRSYM    DATA     BYTE      P2
      00000090H   SFRSYM    DATA     BYTE      P1
      00000080H   SFRSYM    DATA     BYTE      P0
      R7          REGSYM    ---      BYTE      dat
      R6          REGSYM    ---      BYTE      i
      R7          REGSYM    ---      BYTE      dat
      R6          REGSYM    ---      BYTE      i
      WR4         REGSYM    ---      WORD      dat
      R10         REGSYM    ---      BYTE      i
      WR12        REGSYM    ---      WORD      x2
      WR14        REGSYM    ---      WORD      y2
      WR14        REGSYM    ---      WORD      color
      R13         REGSYM    ---      BYTE      i
      WR2         REGSYM    ---      WORD      x
      WR0         REGSYM    ---      WORD      y
      WR14        REGSYM    ---      WORD      color
      WR12        REGSYM    ---      WORD      x
      WR14        REGSYM    ---      WORD      y
      REG=3       REGSYM    ---      ---       dat
      WR12        REGSYM    ---      WORD      x
      WR14        REGSYM    ---      WORD      y
      WR12        REGSYM    ---      WORD      x
      WR14        REGSYM    ---      WORD      y
      R10         REGSYM    ---      BYTE      dat
      WR12        REGSYM    ---      WORD      x
      WR14        REGSYM    ---      WORD      y
      WR12        REGSYM    ---      WORD      x
      WR14        REGSYM    ---      WORD      y
      WR2         REGSYM    ---      WORD      dat
L251 LINKER/LOCATER V4.66.93.0                                                        07/20/2024  17:24:57  PAGE 63


      WR12        REGSYM    ---      WORD      y
      R15         REGSYM    ---      BYTE      num
      R14         REGSYM    ---      BYTE      length
      DR12        REGSYM    ---      FLOAT     dat
      R7          REGSYM    ---      CHAR      point
      R7          REGSYM    ---      BYTE      dat
      R7          REGSYM    ---      BYTE      dat
      WR4         REGSYM    ---      WORD      dat
      WR12        REGSYM    ---      WORD      x2
      WR14        REGSYM    ---      WORD      y2
      WR14        REGSYM    ---      WORD      color
      R13         REGSYM    ---      BYTE      i
      WR2         REGSYM    ---      WORD      x
      WR0         REGSYM    ---      WORD      y
      WR14        REGSYM    ---      WORD      color
      WR12        REGSYM    ---      WORD      x
      WR14        REGSYM    ---      WORD      y
      REG=3       REGSYM    ---      ---       dat
      WR12        REGSYM    ---      WORD      x
      WR14        REGSYM    ---      WORD      y
      WR12        REGSYM    ---      WORD      x
      WR14        REGSYM    ---      WORD      y
      R10         REGSYM    ---      BYTE      dat
      WR12        REGSYM    ---      WORD      x
      WR14        REGSYM    ---      WORD      y
      WR12        REGSYM    ---      WORD      x
      WR14        REGSYM    ---      WORD      y
      WR2         REGSYM    ---      WORD      dat
      WR12        REGSYM    ---      WORD      y
      R15         REGSYM    ---      BYTE      num
      R14         REGSYM    ---      BYTE      length
      DR12        REGSYM    ---      FLOAT     dat
      R7          REGSYM    ---      CHAR      point

      ---         MODULE    ---      ---       SEEKFREE_TSL1401
      0000013DH   PUBLIC    EDATA    BYTE      tsl1401_finish_flag
      0000013EH   PUBLIC    EDATA    ---       ccd_data
      000000D0H   SFRSYM    DATA     BYTE      PSW
      000000B7H   SFRSYM    DATA     BYTE      IPH
      000000B0H.3 SFRSYM    DATA     BIT       P33
      00000088H   SFRSYM    DATA     BYTE      TCON
      000000B0H.2 SFRSYM    DATA     BIT       P32
      00000098H   SFRSYM    DATA     BYTE      SCON
      000000BCH   SFRSYM    DATA     BYTE      ADC_CONTR
      000000DEH   SFRSYM    DATA     BYTE      ADCCFG
      000000B8H   SFRSYM    DATA     BYTE      IP
      000000A8H   SFRSYM    DATA     BYTE      IE
      000000F8H   SFRSYM    DATA     BYTE      P7
      000000E8H   SFRSYM    DATA     BYTE      P6
      000000C8H   SFRSYM    DATA     BYTE      P5
      000000C0H   SFRSYM    DATA     BYTE      P4
      000000B0H   SFRSYM    DATA     BYTE      P3
      000000A0H   SFRSYM    DATA     BYTE      P2
      00000090H   SFRSYM    DATA     BYTE      P1
      00000080H   SFRSYM    DATA     BYTE      P0
      REG=3       REGSYM    ---      ---       dat
      R15         REGSYM    ---      BYTE      i

      ---         MODULE    ---      ---       SEEKFREE_VIRSCO
      00000746H   PUBLIC    EDATA    ---       virtual_scope_data
      000000D0H   SFRSYM    DATA     BYTE      PSW
      000000B7H   SFRSYM    DATA     BYTE      IPH
      00000088H   SFRSYM    DATA     BYTE      TCON
      00000098H   SFRSYM    DATA     BYTE      SCON
      000000BCH   SFRSYM    DATA     BYTE      ADC_CONTR
L251 LINKER/LOCATER V4.66.93.0                                                        07/20/2024  17:24:57  PAGE 64


      000000DEH   SFRSYM    DATA     BYTE      ADCCFG
      000000B8H   SFRSYM    DATA     BYTE      IP
      000000A8H   SFRSYM    DATA     BYTE      IE
      000000F8H   SFRSYM    DATA     BYTE      P7
      000000E8H   SFRSYM    DATA     BYTE      P6
      000000C8H   SFRSYM    DATA     BYTE      P5
      000000C0H   SFRSYM    DATA     BYTE      P4
      000000B0H   SFRSYM    DATA     BYTE      P3
      000000A0H   SFRSYM    DATA     BYTE      P2
      00000090H   SFRSYM    DATA     BYTE      P1
      00000080H   SFRSYM    DATA     BYTE      P0
      REG=7       REGSYM    ---      ---       Buf
      R10         REGSYM    ---      BYTE      CRC_CNT
      WR6         REGSYM    ---      WORD      CRC_Temp
      R5          REGSYM    ---      BYTE      i
      R4          REGSYM    ---      BYTE      j
      WR0         REGSYM    ---      INT       data1
      WR30        REGSYM    ---      INT       data2
      WR8         REGSYM    ---      INT       data3
      WR10        REGSYM    ---      INT       data4
      WR6         REGSYM    ---      WORD      CRC16

      ---         MODULE    ---      ---       SEEKFREE_WIRELESS
      00FF6B37H   PUBLIC    CODE     ---       wireless_uart_callback
      000000D0H   SFRSYM    DATA     BYTE      PSW
      000000FEH   SFRSYM    DATA     BYTE      S4BUF
      000000B7H   SFRSYM    DATA     BYTE      IPH
      00000080H.7 SFRSYM    DATA     BIT       P07
      00000088H   SFRSYM    DATA     BYTE      TCON
      00000098H   SFRSYM    DATA     BYTE      SCON
      000000BCH   SFRSYM    DATA     BYTE      ADC_CONTR
      000000DEH   SFRSYM    DATA     BYTE      ADCCFG
      000000B8H   SFRSYM    DATA     BYTE      IP
      000000A8H   SFRSYM    DATA     BYTE      IE
      000000F8H   SFRSYM    DATA     BYTE      P7
      000000E8H   SFRSYM    DATA     BYTE      P6
      000000C8H   SFRSYM    DATA     BYTE      P5
      000000C0H   SFRSYM    DATA     BYTE      P4
      000000B0H   SFRSYM    DATA     BYTE      P3
      000000A0H   SFRSYM    DATA     BYTE      P2
      00000090H   SFRSYM    DATA     BYTE      P1
      00000080H   SFRSYM    DATA     BYTE      P0
      000005BAH   SYMBOL    EDATA    BYTE      wireless_uart_data
      000005BBH   SYMBOL    EDATA    ---       wireless_uart_fifo
      000005CFH   SYMBOL    EDATA    ---       wireless_uart_buffer

      00FF6B37H   BLOCK     CODE     ---       LVL=0
      00FF6B37H   LINE      CODE     ---       #48
      00FF6B37H   LINE      CODE     ---       #51
      00FF6B3DH   LINE      CODE     ---       #52
      ---         BLOCKEND  ---      ---       LVL=0
      REG=3       REGSYM    ---      ---       buff
      REG=7       REGSYM    ---      ---       buff
      DR8         REGSYM    ---      DWORD     len

      ---         MODULE    ---      ---       SEEKFREE_WIRELESS_CH573
      00FF6B50H   PUBLIC    CODE     ---       wireless_ch573_callback
      000000D0H   SFRSYM    DATA     BYTE      PSW
      000000FEH   SFRSYM    DATA     BYTE      S4BUF
      000000B7H   SFRSYM    DATA     BYTE      IPH
      00000080H.7 SFRSYM    DATA     BIT       P07
      00000088H   SFRSYM    DATA     BYTE      TCON
      00000098H   SFRSYM    DATA     BYTE      SCON
      000000BCH   SFRSYM    DATA     BYTE      ADC_CONTR
      000000DEH   SFRSYM    DATA     BYTE      ADCCFG
L251 LINKER/LOCATER V4.66.93.0                                                        07/20/2024  17:24:57  PAGE 65


      000000B8H   SFRSYM    DATA     BYTE      IP
      000000A8H   SFRSYM    DATA     BYTE      IE
      000000F8H   SFRSYM    DATA     BYTE      P7
      000000E8H   SFRSYM    DATA     BYTE      P6
      000000C8H   SFRSYM    DATA     BYTE      P5
      000000C0H   SFRSYM    DATA     BYTE      P4
      000000B0H   SFRSYM    DATA     BYTE      P3
      000000A0H   SFRSYM    DATA     BYTE      P2
      00000090H   SFRSYM    DATA     BYTE      P1
      00000080H   SFRSYM    DATA     BYTE      P0
      0000060FH   SYMBOL    EDATA    ---       wireless_ch573_buffer
      0000064FH   SYMBOL    EDATA    BYTE      wireless_ch573_data
      00000650H   SYMBOL    EDATA    ---       wireless_ch573_fifo

      00FF6B50H   BLOCK     CODE     ---       LVL=0
      00FF6B50H   LINE      CODE     ---       #39
      00FF6B50H   LINE      CODE     ---       #42
      00FF6B56H   LINE      CODE     ---       #43
      ---         BLOCKEND  ---      ---       LVL=0
      REG=3       REGSYM    ---      ---       buff
      REG=7       REGSYM    ---      ---       buff
      DR8         REGSYM    ---      DWORD     len

      ---         MODULE    ---      ---       isr
      00FF65D5H   PUBLIC    CODE     ---       UART1_Isr
      00FF6AC8H   PUBLIC    CODE     ---       UART2_Isr
      00FF6AE6H   PUBLIC    CODE     ---       UART3_Isr
      00FF5EC6H   PUBLIC    CODE     ---       UART4_Isr
      00FF49BEH   PUBLIC    CODE     ---       Get_Ratio
      00FF6D1AH   PUBLIC    CODE     ---       INT0_Isr
      00FF0011H   PUBLIC    CODE     ---       INT1_Isr
      00FF6CF2H   PUBLIC    CODE     ---       INT2_Isr
      00FF6CFAH   PUBLIC    CODE     ---       INT3_Isr
      00FF6D02H   PUBLIC    CODE     ---       INT4_Isr
      00FF0012H   PUBLIC    CODE     ---       TM0_Isr
      00FF0019H   PUBLIC    CODE     ---       TM1_Isr
      00FF6D0AH   PUBLIC    CODE     ---       TM2_Isr
      00FF6D12H   PUBLIC    CODE     ---       TM3_Isr
      00FF2D9AH   PUBLIC    CODE     ---       TM4_Isr
      000004FCH   PUBLIC    EDATA    FLOAT     Act_PwmR
      00000500H   PUBLIC    EDATA    FLOAT     Ratio
      00000504H   PUBLIC    EDATA    FLOAT     sum_L
      00000508H   PUBLIC    EDATA    FLOAT     Exp_Speed
      0000050CH   PUBLIC    EDATA    CHAR      Read_Nums
      0000050DH   PUBLIC    EDATA    CHAR      Flag_Stop
      0000050EH   PUBLIC    EDATA    FLOAT     Exp_Speed_gain
      00000512H   PUBLIC    EDATA    FLOAT     sum_R
      00000516H   PUBLIC    EDATA    FLOAT     Plus_Mid
      0000051AH   PUBLIC    EDATA    FLOAT     Plus
      0000051EH   PUBLIC    EDATA    INT       CountDown
      00000520H   PUBLIC    EDATA    FLOAT     Slow
      00000524H   PUBLIC    EDATA    CHAR      count
      00000525H   PUBLIC    EDATA    FLOAT     Exp_Speed_L
      00000529H   PUBLIC    EDATA    FLOAT     Exp_Speed_R
      0000052DH   PUBLIC    EDATA    FLOAT     Sum_Dis
      00000531H   PUBLIC    EDATA    FLOAT     Angle_Edge
      00000535H   PUBLIC    EDATA    CHAR      Distance_Num
      00000536H   PUBLIC    EDATA    FLOAT     Flag_Out_L
      0000053AH   PUBLIC    EDATA    INT       Speed_Delay
      0000053CH   PUBLIC    EDATA    FLOAT     Flag_Out_R
      00000540H   PUBLIC    EDATA    CHAR      Edge_Delay
      00000541H   PUBLIC    EDATA    CHAR      Isr_Flag_10
      00000542H   PUBLIC    EDATA    INT       gx
      00000544H   PUBLIC    EDATA    INT       gy
      00000546H   PUBLIC    EDATA    INT       gz
L251 LINKER/LOCATER V4.66.93.0                                                        07/20/2024  17:24:57  PAGE 66


      00000548H   PUBLIC    EDATA    FLOAT     Diff_Mid
      0000054CH   PUBLIC    EDATA    FLOAT     Diff
      00000550H   PUBLIC    EDATA    FLOAT     Act_PwmL
      00000554H   PUBLIC    EDATA    FLOAT     Ratio_Mid
      000000D0H   SFRSYM    DATA     BYTE      PSW
      000000EFH   SFRSYM    DATA     BYTE      AUXINTIF
      000000FDH   SFRSYM    DATA     BYTE      S4CON
      000000ACH   SFRSYM    DATA     BYTE      S3CON
      0000009AH   SFRSYM    DATA     BYTE      S2CON
      000000B7H   SFRSYM    DATA     BYTE      IPH
      000000C7H   SFRSYM    DATA     BYTE      IAP_CONTR
      000000C8H.2 SFRSYM    DATA     BIT       P52
      00000088H   SFRSYM    DATA     BYTE      TCON
      00000098H   SFRSYM    DATA     BYTE      SCON
      00000099H   SFRSYM    DATA     BYTE      SBUF
      000000BCH   SFRSYM    DATA     BYTE      ADC_CONTR
      000000DEH   SFRSYM    DATA     BYTE      ADCCFG
      000000B8H   SFRSYM    DATA     BYTE      IP
      000000A8H   SFRSYM    DATA     BYTE      IE
      000000F8H   SFRSYM    DATA     BYTE      P7
      000000E8H   SFRSYM    DATA     BYTE      P6
      000000C8H   SFRSYM    DATA     BYTE      P5
      000000C0H   SFRSYM    DATA     BYTE      P4
      000000B0H   SFRSYM    DATA     BYTE      P3
      000000A0H   SFRSYM    DATA     BYTE      P2
      00000090H   SFRSYM    DATA     BYTE      P1
      00000080H   SFRSYM    DATA     BYTE      P0

      00FF2D9AH   BLOCK     CODE     ---       LVL=0
      00FF2D9AH   LINE      CODE     ---       #46
      00FF2DB0H   LINE      CODE     ---       #48
      00FF2DB3H   LINE      CODE     ---       #49
      00FF2DBCH   LINE      CODE     ---       #50
      00FF2DC6H   LINE      CODE     ---       #51
      00FF2DCCH   LINE      CODE     ---       #52
      00FF2DD2H   LINE      CODE     ---       #53
      00FF2DD5H   LINE      CODE     ---       #54
      00FF2DD8H   LINE      CODE     ---       #55
      00FF2DDBH   LINE      CODE     ---       #56
      00FF2DDEH   LINE      CODE     ---       #59
      00FF2E00H   LINE      CODE     ---       #61
      00FF2E1CH   LINE      CODE     ---       #62
      00FF2E24H   LINE      CODE     ---       #63
      00FF2E26H   LINE      CODE     ---       #66
      00FF2E6BH   LINE      CODE     ---       #67
      00FF2E6BH   LINE      CODE     ---       #70
      00FF2E96H   LINE      CODE     ---       #72
      00FF2EACH   LINE      CODE     ---       #73
      00FF2EB6H   LINE      CODE     ---       #74
      00FF2EB6H   LINE      CODE     ---       #75
      00FF2EDCH   LINE      CODE     ---       #81
      00FF2EE2H   LINE      CODE     ---       #83
      00FF2EF3H   LINE      CODE     ---       #84
      00FF2EFAH   LINE      CODE     ---       #86
      00FF2EFFH   LINE      CODE     ---       #87
      00FF2F08H   LINE      CODE     ---       #89
      00FF2F0EH   LINE      CODE     ---       #91
      00FF2F13H   LINE      CODE     ---       #92
      00FF2F13H   LINE      CODE     ---       #93
      00FF2F39H   LINE      CODE     ---       #94
      00FF2F39H   LINE      CODE     ---       #98
      00FF2F48H   LINE      CODE     ---       #100
      00FF2F4EH   LINE      CODE     ---       #101
      00FF2F56H   LINE      CODE     ---       #102
      00FF2F5AH   LINE      CODE     ---       #103
L251 LINKER/LOCATER V4.66.93.0                                                        07/20/2024  17:24:57  PAGE 67


      00FF2F5CH   LINE      CODE     ---       #106
      00FF2F68H   LINE      CODE     ---       #107
      00FF2F72H   LINE      CODE     ---       #108
      00FF2F7AH   LINE      CODE     ---       #109
      00FF2F7AH   LINE      CODE     ---       #110
      00FF2F91H   LINE      CODE     ---       #111
      00FF2FBFH   LINE      CODE     ---       #112
      00FF2FD4H   LINE      CODE     ---       #113
      00FF2FE3H   LINE      CODE     ---       #114
      00FF2FF0H   LINE      CODE     ---       #116
      00FF300CH   LINE      CODE     ---       #117
      00FF3028H   LINE      CODE     ---       #118
      00FF302AH   LINE      CODE     ---       #121
      00FF3058H   LINE      CODE     ---       #122
      00FF3072H   LINE      CODE     ---       #123
      00FF3072H   LINE      CODE     ---       #124
      00FF307CH   LINE      CODE     ---       #126
      00FF308FH   LINE      CODE     ---       #127
      00FF30A2H   LINE      CODE     ---       #128
      00FF30A2H   LINE      CODE     ---       #131
      00FF30ACH   LINE      CODE     ---       #133
      00FF30B2H   LINE      CODE     ---       #134
      00FF30B7H   LINE      CODE     ---       #135
      00FF30B7H   LINE      CODE     ---       #136
      00FF30E3H   LINE      CODE     ---       #137
      00FF30E7H   LINE      CODE     ---       #138
      00FF310BH   LINE      CODE     ---       #139
      00FF3110H   LINE      CODE     ---       #143
      00FF3126H   LINE      CODE     ---       #145
      00FF312FH   LINE      CODE     ---       #146
      00FF3131H   LINE      CODE     ---       #147
      00FF3133H   LINE      CODE     ---       #150
      00FF313EH   LINE      CODE     ---       #151
      00FF3149H   LINE      CODE     ---       #152
      00FF3149H   LINE      CODE     ---       #155
      00FF3153H   LINE      CODE     ---       #157
      00FF315EH   LINE      CODE     ---       #158
      00FF3168H   LINE      CODE     ---       #159
      00FF316AH   LINE      CODE     ---       #161
      00FF3173H   LINE      CODE     ---       #164
      00FF317CH   LINE      CODE     ---       #166
      00FF3185H   LINE      CODE     ---       #167
      00FF318AH   LINE      CODE     ---       #168
      ---         BLOCKEND  ---      ---       LVL=0

      00FF49BEH   BLOCK     CODE     ---       LVL=0
      00000558H   SYMBOL    EDATA    FLOAT     sum_01
      0000055CH   SYMBOL    EDATA    FLOAT     sum_34
      00000560H   SYMBOL    EDATA    FLOAT     sum
      00FF49BEH   LINE      CODE     ---       #173
      00FF49BEH   LINE      CODE     ---       #174
      00FF49BEH   LINE      CODE     ---       #179
      00FF49DEH   LINE      CODE     ---       #180
      00FF4A00H   LINE      CODE     ---       #181
      00FF4A0FH   LINE      CODE     ---       #182
      00FF4A1AH   LINE      CODE     ---       #184
      00FF4A2DH   LINE      CODE     ---       #185
      00FF4A40H   LINE      CODE     ---       #186
      00FF4A49H   LINE      CODE     ---       #188
      00FF4A5AH   LINE      CODE     ---       #190
      00FF4A69H   LINE      CODE     ---       #191
      00FF4A6FH   LINE      CODE     ---       #192
      00FF4A73H   LINE      CODE     ---       #193
      00FF4A78H   LINE      CODE     ---       #194
      00FF4A79H   LINE      CODE     ---       #197
L251 LINKER/LOCATER V4.66.93.0                                                        07/20/2024  17:24:57  PAGE 68


      00FF4A8BH   LINE      CODE     ---       #198
      00FF4A92H   LINE      CODE     ---       #199
      00FF4AAFH   LINE      CODE     ---       #201
      00FF4AB5H   LINE      CODE     ---       #202
      00FF4ACAH   LINE      CODE     ---       #205
      00FF4AD4H   LINE      CODE     ---       #206
      00FF4AD5H   LINE      CODE     ---       #207
      00FF4AEAH   LINE      CODE     ---       #210
      00FF4AF4H   LINE      CODE     ---       #211
      00FF4AF4H   LINE      CODE     ---       #213
      00FF4AF4H   LINE      CODE     ---       #214
      ---         BLOCKEND  ---      ---       LVL=0

      00FF65D5H   BLOCK     CODE     ---       LVL=0
      00FF65D9H   BLOCK     CODE     NEAR LAB  LVL=1
      R11         REGSYM    ---      BYTE      res
      00000564H   SYMBOL    EDATA    BYTE      dwon_count
      ---         BLOCKEND  ---      ---       LVL=1
      00FF65D5H   LINE      CODE     ---       #236
      00FF65D9H   LINE      CODE     ---       #237
      00FF65D9H   LINE      CODE     ---       #240
      00FF65DEH   LINE      CODE     ---       #242
      00FF65E1H   LINE      CODE     ---       #243
      00FF65E6H   LINE      CODE     ---       #244
      00FF65E6H   LINE      CODE     ---       #245
      00FF65EBH   LINE      CODE     ---       #247
      00FF65EEH   LINE      CODE     ---       #248
      00FF65F0H   LINE      CODE     ---       #250
      00FF65F3H   LINE      CODE     ---       #252
      00FF6603H   LINE      CODE     ---       #253
      00FF6606H   LINE      CODE     ---       #254
      00FF6608H   LINE      CODE     ---       #257
      00FF660DH   LINE      CODE     ---       #258
      00FF660DH   LINE      CODE     ---       #259
      ---         BLOCKEND  ---      ---       LVL=0

      00FF6AC8H   BLOCK     CODE     ---       LVL=0
      00FF6AC8H   LINE      CODE     ---       #263
      00FF6ACCH   LINE      CODE     ---       #265
      00FF6AD1H   LINE      CODE     ---       #267
      00FF6AD4H   LINE      CODE     ---       #268
      00FF6AD9H   LINE      CODE     ---       #269
      00FF6AD9H   LINE      CODE     ---       #270
      00FF6ADEH   LINE      CODE     ---       #272
      00FF6AE1H   LINE      CODE     ---       #275
      ---         BLOCKEND  ---      ---       LVL=0

      00FF6AE6H   BLOCK     CODE     ---       LVL=0
      00FF6AE6H   LINE      CODE     ---       #280
      00FF6AEAH   LINE      CODE     ---       #282
      00FF6AEFH   LINE      CODE     ---       #284
      00FF6AF2H   LINE      CODE     ---       #285
      00FF6AF7H   LINE      CODE     ---       #286
      00FF6AF7H   LINE      CODE     ---       #287
      00FF6AFCH   LINE      CODE     ---       #289
      00FF6AFFH   LINE      CODE     ---       #292
      ---         BLOCKEND  ---      ---       LVL=0

      00FF5EC6H   BLOCK     CODE     ---       LVL=0
      00FF5EC6H   LINE      CODE     ---       #297
      00FF5EDEH   LINE      CODE     ---       #299
      00FF5EE3H   LINE      CODE     ---       #301
      00FF5EE6H   LINE      CODE     ---       #302
      00FF5EEBH   LINE      CODE     ---       #303
      00FF5EEBH   LINE      CODE     ---       #304
L251 LINKER/LOCATER V4.66.93.0                                                        07/20/2024  17:24:57  PAGE 69


      00FF5EF0H   LINE      CODE     ---       #306
      00FF5EF3H   LINE      CODE     ---       #309
      00FF5EFDH   LINE      CODE     ---       #311
      00FF5F00H   LINE      CODE     ---       #312
      00FF5F02H   LINE      CODE     ---       #313
      00FF5F08H   LINE      CODE     ---       #315
      00FF5F0BH   LINE      CODE     ---       #316
      00FF5F0DH   LINE      CODE     ---       #317
      00FF5F13H   LINE      CODE     ---       #319
      00FF5F16H   LINE      CODE     ---       #320
      00FF5F16H   LINE      CODE     ---       #322
      ---         BLOCKEND  ---      ---       LVL=0

      00FF6D1AH   BLOCK     CODE     ---       LVL=0
      00FF6D1AH   LINE      CODE     ---       #325
      00FF6D1CH   LINE      CODE     ---       #327
      00FF6D1EH   LINE      CODE     ---       #328
      ---         BLOCKEND  ---      ---       LVL=0

      00FF0011H   BLOCK     CODE     ---       LVL=0
      00FF0011H   LINE      CODE     ---       #329
      00FF0011H   LINE      CODE     ---       #332
      ---         BLOCKEND  ---      ---       LVL=0

      00FF6CF2H   BLOCK     CODE     ---       LVL=0
      00FF6CF2H   LINE      CODE     ---       #333
      00FF6CF4H   LINE      CODE     ---       #335
      00FF6CF7H   LINE      CODE     ---       #336
      ---         BLOCKEND  ---      ---       LVL=0

      00FF6CFAH   BLOCK     CODE     ---       LVL=0
      00FF6CFAH   LINE      CODE     ---       #337
      00FF6CFCH   LINE      CODE     ---       #339
      00FF6CFFH   LINE      CODE     ---       #340
      ---         BLOCKEND  ---      ---       LVL=0

      00FF6D02H   BLOCK     CODE     ---       LVL=0
      00FF6D02H   LINE      CODE     ---       #342
      00FF6D04H   LINE      CODE     ---       #344
      00FF6D07H   LINE      CODE     ---       #345
      ---         BLOCKEND  ---      ---       LVL=0

      00FF0012H   BLOCK     CODE     ---       LVL=0
      00FF0012H   LINE      CODE     ---       #347
      00FF0012H   LINE      CODE     ---       #350
      ---         BLOCKEND  ---      ---       LVL=0

      00FF0019H   BLOCK     CODE     ---       LVL=0
      00FF0019H   LINE      CODE     ---       #351
      00FF0019H   LINE      CODE     ---       #354
      ---         BLOCKEND  ---      ---       LVL=0

      00FF6D0AH   BLOCK     CODE     ---       LVL=0
      00FF6D0AH   LINE      CODE     ---       #355
      00FF6D0CH   LINE      CODE     ---       #357
      00FF6D0FH   LINE      CODE     ---       #359
      ---         BLOCKEND  ---      ---       LVL=0

      00FF6D12H   BLOCK     CODE     ---       LVL=0
      00FF6D12H   LINE      CODE     ---       #360
      00FF6D14H   LINE      CODE     ---       #362
      00FF6D17H   LINE      CODE     ---       #364
      ---         BLOCKEND  ---      ---       LVL=0

      ---         MODULE    ---      ---       main
L251 LINKER/LOCATER V4.66.93.0                                                        07/20/2024  17:24:57  PAGE 70


      00FF43B4H   PUBLIC    CODE     ---       main
      00FF4AF5H   PUBLIC    CODE     ---       Init_all
      00FF688AH   PUBLIC    CODE     ---       Filter_Window
      00FF5C15H   PUBLIC    CODE     ---       Speed_Gain
      000006B4H   PUBLIC    EDATA    CHAR      KeyValue
      000006B5H   PUBLIC    EDATA    FLOAT     Dis_Process
      000006B9H   PUBLIC    EDATA    FLOAT     Adjust_Val
      000000D0H   SFRSYM    DATA     BYTE      PSW
      000000B7H   SFRSYM    DATA     BYTE      IPH
      000000E9H   SFRSYM    DATA     BYTE      WTST
      00000088H   SFRSYM    DATA     BYTE      TCON
      00000098H   SFRSYM    DATA     BYTE      SCON
      000000BCH   SFRSYM    DATA     BYTE      ADC_CONTR
      000000DEH   SFRSYM    DATA     BYTE      ADCCFG
      000000B8H   SFRSYM    DATA     BYTE      IP
      000000A8H   SFRSYM    DATA     BYTE      IE
      000000F8H   SFRSYM    DATA     BYTE      P7
      000000E8H   SFRSYM    DATA     BYTE      P6
      000000C8H   SFRSYM    DATA     BYTE      P5
      000000C0H   SFRSYM    DATA     BYTE      P4
      000000B0H   SFRSYM    DATA     BYTE      P3
      000000A0H   SFRSYM    DATA     BYTE      P2
      00000090H   SFRSYM    DATA     BYTE      P1
      00000080H   SFRSYM    DATA     BYTE      P0

      00FF688AH   BLOCK     CODE     ---       LVL=0
      WR4         REGSYM    ---      WORD      Dis
      00FF688CH   BLOCK     CODE     NEAR LAB  LVL=1
      000006BDH   SYMBOL    EDATA    ---       filter_buf
      WR4         REGSYM    ---      INT       i
      WR6         REGSYM    ---      WORD      filter_sum
      ---         BLOCKEND  ---      ---       LVL=1
      00FF688AH   LINE      CODE     ---       #24
      00FF688CH   LINE      CODE     ---       #25
      00FF688CH   LINE      CODE     ---       #28
      00FF688EH   LINE      CODE     ---       #29
      00FF6892H   LINE      CODE     ---       #30
      00FF6894H   LINE      CODE     ---       #32
      00FF68A0H   LINE      CODE     ---       #33
      00FF68A6H   LINE      CODE     ---       #34
      00FF68AEH   LINE      CODE     ---       #35
      00FF68B4H   LINE      CODE     ---       #36
      ---         BLOCKEND  ---      ---       LVL=0

      00FF43B4H   BLOCK     CODE     ---       LVL=0
      00FF43B4H   LINE      CODE     ---       #38
      00FF43B4H   LINE      CODE     ---       #40
      00FF43B7H   LINE      CODE     ---       #41
      00FF43BAH   LINE      CODE     ---       #42
      00FF43C0H   LINE      CODE     ---       #43
      00FF43C0H   LINE      CODE     ---       #46
      00FF43FBH   LINE      CODE     ---       #49
      00FF43FEH   LINE      CODE     ---       #50
      00FF4406H   LINE      CODE     ---       #51
      00FF4423H   LINE      CODE     ---       #52
      00FF4446H   LINE      CODE     ---       #53
      00FF445CH   LINE      CODE     ---       #54
      00FF4474H   LINE      CODE     ---       #57
      00FF4480H   LINE      CODE     ---       #59
      00FF4483H   LINE      CODE     ---       #60
      00FF4496H   LINE      CODE     ---       #61
      00FF449DH   LINE      CODE     ---       #63
      00FF44AEH   LINE      CODE     ---       #64
      00FF44AEH   LINE      CODE     ---       #65
      00FF44B1H   LINE      CODE     ---       #67
L251 LINKER/LOCATER V4.66.93.0                                                        07/20/2024  17:24:57  PAGE 71


      00FF44B8H   LINE      CODE     ---       #78
      00FF44D7H   LINE      CODE     ---       #81
      00FF44E1H   LINE      CODE     ---       #82
      00FF4504H   LINE      CODE     ---       #83
      00FF4506H   LINE      CODE     ---       #84
      00FF451FH   LINE      CODE     ---       #87
      00FF4529H   LINE      CODE     ---       #88
      00FF4552H   LINE      CODE     ---       #89
      00FF4554H   LINE      CODE     ---       #91
      00FF4559H   LINE      CODE     ---       #93
      00FF455EH   LINE      CODE     ---       #94
      ---         BLOCKEND  ---      ---       LVL=0

      00FF5C15H   BLOCK     CODE     ---       LVL=0
      WR30        REGSYM    ---      INT       i
      000006CFH   SYMBOL    EDATA    ---       Speed_Buf
      00FF5C15H   LINE      CODE     ---       #98
      00FF5C15H   LINE      CODE     ---       #99
      00FF5C15H   LINE      CODE     ---       #100
      00FF5C17H   LINE      CODE     ---       #102
      00FF5C2FH   LINE      CODE     ---       #103
      00FF5C2FH   LINE      CODE     ---       #105
      00FF5C45H   LINE      CODE     ---       #106
      00FF5C58H   LINE      CODE     ---       #107
      00FF5C60H   LINE      CODE     ---       #108
      00FF5C6FH   LINE      CODE     ---       #110
      00FF5C75H   LINE      CODE     ---       #111
      00FF5C7DH   LINE      CODE     ---       #112
      00FF5C7FH   LINE      CODE     ---       #115
      00FF5C85H   LINE      CODE     ---       #116
      00FF5C8DH   LINE      CODE     ---       #117
      00FF5C8DH   LINE      CODE     ---       #118
      ---         BLOCKEND  ---      ---       LVL=0

      00FF4AF5H   BLOCK     CODE     ---       LVL=0
      00FF4AF5H   LINE      CODE     ---       #122
      00FF4AF5H   LINE      CODE     ---       #124
      00FF4AF8H   LINE      CODE     ---       #125
      00FF4AFBH   LINE      CODE     ---       #126
      00FF4B07H   LINE      CODE     ---       #127
      00FF4B0AH   LINE      CODE     ---       #130
      00FF4B13H   LINE      CODE     ---       #131
      00FF4B1CH   LINE      CODE     ---       #134
      00FF4B1FH   LINE      CODE     ---       #137
      00FF4B22H   LINE      CODE     ---       #140
      00FF4B25H   LINE      CODE     ---       #143
      00FF4B28H   LINE      CODE     ---       #146
      00FF4B33H   LINE      CODE     ---       #149
      00FF4B38H   LINE      CODE     ---       #150
      00FF4B3FH   LINE      CODE     ---       #153
      00FF4B42H   LINE      CODE     ---       #156
      00FF4B45H   LINE      CODE     ---       #159
      00FF4B48H   LINE      CODE     ---       #162
      00FF4B73H   LINE      CODE     ---       #165
      00FF4BB2H   LINE      CODE     ---       #166
      ---         BLOCKEND  ---      ---       LVL=0

      ---         MODULE    ---      ---       motor
      00FF5321H   PUBLIC    CODE     ---       Right_SetSpeed
      00FF63CEH   PUBLIC    CODE     ---       Motor_Init
      00FF53DFH   PUBLIC    CODE     ---       Left_SetSpeed
      00FF68B5H   PUBLIC    CODE     ---       Limit_Out
      00FF525BH   PUBLIC    CODE     ---       Get_Speed
      00FF6BF5H   PUBLIC    CODE     ---       Num2Abs
      0000070CH   PUBLIC    EDATA    FLOAT     Speed_L
L251 LINKER/LOCATER V4.66.93.0                                                        07/20/2024  17:24:57  PAGE 72


      00000710H   PUBLIC    EDATA    FLOAT     Speed_R
      000003FAH   PUBLIC    EDATA    BYTE      ?Limit_Out?BYTE
      000000D0H   SFRSYM    DATA     BYTE      PSW
      000000B7H   SFRSYM    DATA     BYTE      IPH
      000000B0H.5 SFRSYM    DATA     BIT       P35
      000000C8H.3 SFRSYM    DATA     BIT       P53
      00000088H   SFRSYM    DATA     BYTE      TCON
      00000098H   SFRSYM    DATA     BYTE      SCON
      000000BCH   SFRSYM    DATA     BYTE      ADC_CONTR
      000000DEH   SFRSYM    DATA     BYTE      ADCCFG
      000000B8H   SFRSYM    DATA     BYTE      IP
      000000A8H   SFRSYM    DATA     BYTE      IE
      000000F8H   SFRSYM    DATA     BYTE      P7
      000000E8H   SFRSYM    DATA     BYTE      P6
      000000C8H   SFRSYM    DATA     BYTE      P5
      000000C0H   SFRSYM    DATA     BYTE      P4
      000000B0H   SFRSYM    DATA     BYTE      P3
      000000A0H   SFRSYM    DATA     BYTE      P2
      00000090H   SFRSYM    DATA     BYTE      P1
      00000080H   SFRSYM    DATA     BYTE      P0

      00FF68B5H   BLOCK     CODE     ---       LVL=0
      REG=7       REGSYM    ---      ---       Output
      DR24        REGSYM    ---      FLOAT     Limit_Min
      00000402H   SYMBOL    EDATA    FLOAT     Limit_Max
      00FF68B5H   LINE      CODE     ---       #14
      00FF68B9H   LINE      CODE     ---       #16
      00FF68CBH   LINE      CODE     ---       #17
      00FF68DFH   LINE      CODE     ---       #18
      ---         BLOCKEND  ---      ---       LVL=0

      00FF6BF5H   BLOCK     CODE     ---       LVL=0
      DR28        REGSYM    ---      FLOAT     x
      00FF6BF5H   LINE      CODE     ---       #21
      00FF6BF7H   LINE      CODE     ---       #23
      00FF6BFEH   LINE      CODE     ---       #24
      00FF6C03H   LINE      CODE     ---       #25
      00FF6C05H   LINE      CODE     ---       #26
      ---         BLOCKEND  ---      ---       LVL=0

      00FF63CEH   BLOCK     CODE     ---       LVL=0
      00FF63CEH   LINE      CODE     ---       #28
      00FF63CEH   LINE      CODE     ---       #30
      00FF63DFH   LINE      CODE     ---       #31
      00FF63F0H   LINE      CODE     ---       #33
      00FF6401H   LINE      CODE     ---       #34
      ---         BLOCKEND  ---      ---       LVL=0

      00FF53DFH   BLOCK     CODE     ---       LVL=0
      DR12        REGSYM    ---      FLOAT     speed
      00FF53E3H   BLOCK     CODE     NEAR LAB  LVL=1
      00000714H   SYMBOL    EDATA    INT       Special_NumL
      ---         BLOCKEND  ---      ---       LVL=1
      00FF53DFH   LINE      CODE     ---       #37
      00FF53E3H   LINE      CODE     ---       #38
      00FF53E3H   LINE      CODE     ---       #40
      00FF53F5H   LINE      CODE     ---       #41
      00FF53FDH   LINE      CODE     ---       #43
      00FF5403H   LINE      CODE     ---       #44
      00FF5409H   LINE      CODE     ---       #46
      00FF5412H   LINE      CODE     ---       #47
      00FF541BH   LINE      CODE     ---       #48
      00FF541FH   LINE      CODE     ---       #49
      00FF541FH   LINE      CODE     ---       #52
      00FF5434H   LINE      CODE     ---       #53
L251 LINKER/LOCATER V4.66.93.0                                                        07/20/2024  17:24:57  PAGE 73


      00FF5447H   LINE      CODE     ---       #54
      00FF5450H   LINE      CODE     ---       #56
      00FF5466H   LINE      CODE     ---       #57
      00FF546CH   LINE      CODE     ---       #58
      00FF546EH   LINE      CODE     ---       #59
      00FF5477H   LINE      CODE     ---       #61
      00FF5480H   LINE      CODE     ---       #62
      00FF5498H   LINE      CODE     ---       #63
      00FF5498H   LINE      CODE     ---       #64
      00FF549AH   LINE      CODE     ---       #65
      00FF549AH   LINE      CODE     ---       #66
      ---         BLOCKEND  ---      ---       LVL=0

      00FF5321H   BLOCK     CODE     ---       LVL=0
      DR12        REGSYM    ---      FLOAT     speed
      00FF5325H   BLOCK     CODE     NEAR LAB  LVL=1
      00000716H   SYMBOL    EDATA    INT       Special_NumR
      ---         BLOCKEND  ---      ---       LVL=1
      00FF5321H   LINE      CODE     ---       #68
      00FF5325H   LINE      CODE     ---       #69
      00FF5325H   LINE      CODE     ---       #71
      00FF5337H   LINE      CODE     ---       #72
      00FF533FH   LINE      CODE     ---       #74
      00FF5345H   LINE      CODE     ---       #75
      00FF534BH   LINE      CODE     ---       #77
      00FF5354H   LINE      CODE     ---       #78
      00FF535DH   LINE      CODE     ---       #79
      00FF5361H   LINE      CODE     ---       #80
      00FF5361H   LINE      CODE     ---       #83
      00FF5376H   LINE      CODE     ---       #84
      00FF5389H   LINE      CODE     ---       #85
      00FF5392H   LINE      CODE     ---       #87
      00FF53A8H   LINE      CODE     ---       #88
      00FF53AEH   LINE      CODE     ---       #89
      00FF53B0H   LINE      CODE     ---       #90
      00FF53B9H   LINE      CODE     ---       #92
      00FF53C2H   LINE      CODE     ---       #93
      00FF53DAH   LINE      CODE     ---       #94
      00FF53DAH   LINE      CODE     ---       #95
      00FF53DCH   LINE      CODE     ---       #96
      00FF53DCH   LINE      CODE     ---       #97
      ---         BLOCKEND  ---      ---       LVL=0

      00FF525BH   BLOCK     CODE     ---       LVL=0
      00000718H   SYMBOL    EDATA    FLOAT     Speed_L_Last
      0000071CH   SYMBOL    EDATA    FLOAT     Speed_R_Last
      00FF525BH   LINE      CODE     ---       #99
      00FF525BH   LINE      CODE     ---       #100
      00FF525BH   LINE      CODE     ---       #103
      00FF5270H   LINE      CODE     ---       #104
      00FF528CH   LINE      CODE     ---       #105
      00FF5293H   LINE      CODE     ---       #108
      00FF52A7H   LINE      CODE     ---       #109
      00FF52C1H   LINE      CODE     ---       #110
      00FF52C6H   LINE      CODE     ---       #112
      00FF52F3H   LINE      CODE     ---       #113
      00FF5310H   LINE      CODE     ---       #114
      00FF5318H   LINE      CODE     ---       #115
      00FF5320H   LINE      CODE     ---       #117
      ---         BLOCKEND  ---      ---       LVL=0
      DR12        REGSYM    ---      FLOAT     Speed

      ---         MODULE    ---      ---       ADC
      00FF4873H   PUBLIC    CODE     ---       ADC_GetValue
      00FF68E0H   PUBLIC    CODE     ---       ADC_InitAll
L251 LINKER/LOCATER V4.66.93.0                                                        07/20/2024  17:24:57  PAGE 74


      00000664H   PUBLIC    EDATA    ---       ADC_Array_Original
      000006A0H   PUBLIC    EDATA    ---       ADC_proc
      000000D0H   SFRSYM    DATA     BYTE      PSW
      000000B7H   SFRSYM    DATA     BYTE      IPH
      00000088H   SFRSYM    DATA     BYTE      TCON
      00000098H   SFRSYM    DATA     BYTE      SCON
      000000BCH   SFRSYM    DATA     BYTE      ADC_CONTR
      000000DEH   SFRSYM    DATA     BYTE      ADCCFG
      000000B8H   SFRSYM    DATA     BYTE      IP
      000000A8H   SFRSYM    DATA     BYTE      IE
      000000F8H   SFRSYM    DATA     BYTE      P7
      000000E8H   SFRSYM    DATA     BYTE      P6
      000000C8H   SFRSYM    DATA     BYTE      P5
      000000C0H   SFRSYM    DATA     BYTE      P4
      000000B0H   SFRSYM    DATA     BYTE      P3
      000000A0H   SFRSYM    DATA     BYTE      P2
      00000090H   SFRSYM    DATA     BYTE      P1
      00000080H   SFRSYM    DATA     BYTE      P0

      00FF68E0H   BLOCK     CODE     ---       LVL=0
      00FF68E0H   LINE      CODE     ---       #11
      00FF68E0H   LINE      CODE     ---       #13
      00FF68E7H   LINE      CODE     ---       #14
      00FF68F0H   LINE      CODE     ---       #16
      00FF68F9H   LINE      CODE     ---       #18
      00FF6902H   LINE      CODE     ---       #19
      ---         BLOCKEND  ---      ---       LVL=0

      00FF4873H   BLOCK     CODE     ---       LVL=0
      00FF4875H   BLOCK     CODE     NEAR LAB  LVL=1
      DR28        REGSYM    ---      FLOAT     temp
      R15         REGSYM    ---      CHAR      i
      R14         REGSYM    ---      CHAR      j
      ---         BLOCKEND  ---      ---       LVL=1
      00FF4873H   LINE      CODE     ---       #23
      00FF4875H   LINE      CODE     ---       #24
      00FF4875H   LINE      CODE     ---       #27
      00FF4877H   LINE      CODE     ---       #29
      00FF4894H   LINE      CODE     ---       #30
      00FF48B3H   LINE      CODE     ---       #32
      00FF48D2H   LINE      CODE     ---       #34
      00FF48F1H   LINE      CODE     ---       #35
      00FF4910H   LINE      CODE     ---       #36
      00FF491AH   LINE      CODE     ---       #38
      00FF491CH   LINE      CODE     ---       #40
      00FF491EH   LINE      CODE     ---       #41
      00FF4920H   LINE      CODE     ---       #43
      00FF493FH   LINE      CODE     ---       #44
      00FF4946H   LINE      CODE     ---       #45
      00FF495FH   LINE      CODE     ---       #47
      00FF4978H   LINE      CODE     ---       #48
      00FF498FH   LINE      CODE     ---       #50
      00FF49B1H   LINE      CODE     ---       #52
      00FF49BBH   LINE      CODE     ---       #53
      ---         BLOCKEND  ---      ---       LVL=0

      ---         MODULE    ---      ---       PID
      00FF4561H   PUBLIC    CODE     ---       PID_Incremental_Calc
      00FF5904H   PUBLIC    CODE     ---       PID_Incremental_Init
      00FF5555H   PUBLIC    CODE     ---       PID_Calculate
      00FF5F2FH   PUBLIC    CODE     ---       PID_Init
      0000023EH   PUBLIC    EDATA    ---       Turn
      0000027BH   PUBLIC    EDATA    ---       Right_Wheel
      000002B8H   PUBLIC    EDATA    ---       Left_Wheel
      000002F5H   PUBLIC    EDATA    ---       Turn_PID
L251 LINKER/LOCATER V4.66.93.0                                                        07/20/2024  17:24:57  PAGE 75


      000003FEH   PUBLIC    EDATA    BYTE      ?PID_Init?BYTE
      000003F2H   PUBLIC    EDATA    BYTE      ?PID_Calculate?BYTE
      000003FEH   PUBLIC    EDATA    BYTE      ?PID_Incremental_Init?BYTE
      000003F2H   PUBLIC    EDATA    BYTE      ?PID_Incremental_Calc?BYTE
      000000D0H   SFRSYM    DATA     BYTE      PSW
      000000B7H   SFRSYM    DATA     BYTE      IPH
      00000088H   SFRSYM    DATA     BYTE      TCON
      00000098H   SFRSYM    DATA     BYTE      SCON
      000000BCH   SFRSYM    DATA     BYTE      ADC_CONTR
      000000DEH   SFRSYM    DATA     BYTE      ADCCFG
      000000B8H   SFRSYM    DATA     BYTE      IP
      000000A8H   SFRSYM    DATA     BYTE      IE
      000000F8H   SFRSYM    DATA     BYTE      P7
      000000E8H   SFRSYM    DATA     BYTE      P6
      000000C8H   SFRSYM    DATA     BYTE      P5
      000000C0H   SFRSYM    DATA     BYTE      P4
      000000B0H   SFRSYM    DATA     BYTE      P3
      000000A0H   SFRSYM    DATA     BYTE      P2
      00000090H   SFRSYM    DATA     BYTE      P1
      00000080H   SFRSYM    DATA     BYTE      P0

      00FF5F2FH   BLOCK     CODE     ---       LVL=0
      REG=2       REGSYM    ---      ---       PID_Struct
      DR4         REGSYM    ---      FLOAT     Kpa
      00000406H   SYMBOL    EDATA    FLOAT     Kpb
      0000040AH   SYMBOL    EDATA    FLOAT     Ki
      0000040EH   SYMBOL    EDATA    FLOAT     Kd
      00000412H   SYMBOL    EDATA    FLOAT     Out_Limit
      00000416H   SYMBOL    EDATA    FLOAT     Integral_Limit
      00FF5F2FH   LINE      CODE     ---       #18
      00FF5F31H   LINE      CODE     ---       #20
      00FF5F39H   LINE      CODE     ---       #21
      00FF5F45H   LINE      CODE     ---       #22
      00FF5F51H   LINE      CODE     ---       #23
      00FF5F5DH   LINE      CODE     ---       #25
      00FF5F66H   LINE      CODE     ---       #26
      00FF5F6EH   LINE      CODE     ---       #28
      00FF5F76H   LINE      CODE     ---       #29
      00FF5F82H   LINE      CODE     ---       #30
      00FF5F8EH   LINE      CODE     ---       #31
      ---         BLOCKEND  ---      ---       LVL=0

      00FF5555H   BLOCK     CODE     ---       LVL=0
      REG=6       REGSYM    ---      ---       PID_Struct
      DR28        REGSYM    ---      FLOAT     Exp_Val
      000003FAH   SYMBOL    EDATA    FLOAT     Act_Val
      00FF5555H   LINE      CODE     ---       #34
      00FF5557H   LINE      CODE     ---       #36
      00FF5565H   LINE      CODE     ---       #38
      00FF55BEH   LINE      CODE     ---       #42
      00FF55CDH   LINE      CODE     ---       #45
      00FF55E6H   LINE      CODE     ---       #46
      00FF55E8H   LINE      CODE     ---       #47
      00FF55F6H   LINE      CODE     ---       #48
      00FF55FEH   LINE      CODE     ---       #49
      ---         BLOCKEND  ---      ---       LVL=0

      00FF5904H   BLOCK     CODE     ---       LVL=0
      REG=2       REGSYM    ---      ---       pid
      DR4         REGSYM    ---      FLOAT     Kp
      00000406H   SYMBOL    EDATA    FLOAT     Ki
      0000040AH   SYMBOL    EDATA    FLOAT     Kd
      0000040EH   SYMBOL    EDATA    FLOAT     Out_Limit
      00000412H   SYMBOL    EDATA    FLOAT     Integral_Limit
      R15         REGSYM    ---      BYTE      use_lowpass_filter
L251 LINKER/LOCATER V4.66.93.0                                                        07/20/2024  17:24:57  PAGE 76


      00FF5904H   LINE      CODE     ---       #61
      00FF590AH   LINE      CODE     ---       #63
      00FF5911H   LINE      CODE     ---       #64
      00FF591DH   LINE      CODE     ---       #65
      00FF5929H   LINE      CODE     ---       #67
      00FF5933H   LINE      CODE     ---       #68
      00FF593BH   LINE      CODE     ---       #69
      00FF5943H   LINE      CODE     ---       #70
      00FF594BH   LINE      CODE     ---       #72
      00FF5953H   LINE      CODE     ---       #73
      00FF595FH   LINE      CODE     ---       #74
      00FF596EH   LINE      CODE     ---       #75
      00FF597AH   LINE      CODE     ---       #76
      00FF597EH   LINE      CODE     ---       #77
      00FF598EH   LINE      CODE     ---       #78
      ---         BLOCKEND  ---      ---       LVL=0

      00FF4561H   BLOCK     CODE     ---       LVL=0
      REG=3       REGSYM    ---      ---       pid
      DR28        REGSYM    ---      FLOAT     setpoint
      000003FAH   SYMBOL    EDATA    FLOAT     input_value
      00FF4567H   BLOCK     CODE     NEAR LAB  LVL=1
      000003FEH   SYMBOL    EDATA    FLOAT     derivative
      ---         BLOCKEND  ---      ---       LVL=1
      00FF4561H   LINE      CODE     ---       #81
      00FF4567H   LINE      CODE     ---       #82
      00FF4567H   LINE      CODE     ---       #84
      00FF4577H   LINE      CODE     ---       #85
      00FF4587H   LINE      CODE     ---       #86
      00FF4598H   LINE      CODE     ---       #87
      00FF45C9H   LINE      CODE     ---       #89
      00FF45F1H   LINE      CODE     ---       #91
      00FF461BH   LINE      CODE     ---       #92
      00FF4633H   LINE      CODE     ---       #94
      00FF4659H   LINE      CODE     ---       #96
      00FF467FH   LINE      CODE     ---       #99
      00FF4685H   LINE      CODE     ---       #101
      00FF46BFH   LINE      CODE     ---       #102
      00FF46BFH   LINE      CODE     ---       #105
      00FF46DCH   LINE      CODE     ---       #107
      00FF46ECH   LINE      CODE     ---       #109
      00FF46F4H   LINE      CODE     ---       #110
      ---         BLOCKEND  ---      ---       LVL=0

      ---         MODULE    ---      ---       MPU6050
      00FF6BD1H   PUBLIC    CODE     ---       i2c_nack
      00FF6CD6H   PUBLIC    CODE     ---       Delay1ms
      00FF5A9DH   PUBLIC    CODE     ---       loadfirmware
      00FF6B80H   PUBLIC    CODE     ---       i2c_ack
      00FF6BE3H   PUBLIC    CODE     ---       i2c_start
      00FF5E5BH   PUBLIC    CODE     ---       i2c_read_bits
      00FF66C2H   PUBLIC    CODE     ---       i2c_read_byte
      00FF5991H   PUBLIC    CODE     ---       xdmpUpdates
      00FF60A8H   PUBLIC    CODE     ---       MPU_Get_Gyroscope
      00FF6795H   PUBLIC    CODE     ---       i2c_read_bit
      00FF5B9BH   PUBLIC    CODE     ---       i2c_mem_read
      00FF55FFH   PUBLIC    CODE     ---       loadcfgupd
      00FF001EH   PUBLIC    CODE     ---       I2C_SDA_H
      00FF5B1EH   PUBLIC    CODE     ---       i2c_write_bits
      00FF6A88H   PUBLIC    CODE     ---       getDeviceID
      00FF0056H   PUBLIC    CODE     ---       I2C_SDA_L
      00FF67C8H   PUBLIC    CODE     ---       i2c_write_byte
      00FF690BH   PUBLIC    CODE     ---       i2c_wait_ack
      00FF6C48H   PUBLIC    CODE     ---       i2c_stop
      00FF005EH   PUBLIC    CODE     ---       I2C_SCL_H
L251 LINKER/LOCATER V4.66.93.0                                                        07/20/2024  17:24:57  PAGE 77


      00FF0086H   PUBLIC    CODE     ---       I2C_SCL_L
      00FF604CH   PUBLIC    CODE     ---       i2c_write_bit
      00FF5F8FH   PUBLIC    CODE     ---       i2c_mem_write
      00FF3B1DH   PUBLIC    CODE     ---       MPU6050_Refresh_DMP
      00FF0046H   PUBLIC    CODE     ---       MPU_Read_Bits
      00FF6CE0H   PUBLIC    CODE     ---       MPU_Read_Bit
      00FF6CAAH   PUBLIC    CODE     ---       MPU_Read_Len
      00FF0006H   PUBLIC    CODE     ---       I2C_SDA_Read
      00FF6C83H   PUBLIC    CODE     ---       MPU_Write_Bits
      00FF6B95H   PUBLIC    CODE     ---       MPU_Write_Byte
      00FF3DB7H   PUBLIC    CODE     ---       dmpInitialize
      00FF6CB5H   PUBLIC    CODE     ---       i2c_timeout_delay
      00FF6C57H   PUBLIC    CODE     ---       readdmp
      00FF6C90H   PUBLIC    CODE     ---       MPU_Write_Bit
      00FF6CC0H   PUBLIC    CODE     ---       MPU_Write_Len
      00FF6BAAH   PUBLIC    CODE     ---       MPU_Delay_Ms
      00FF6CCBH   PUBLIC    CODE     ---       i2c_delay
      00FF0026H   PUBLIC    CODE     ---       getFIFOCount
      00FF67FBH   PUBLIC    CODE     ---       initMPU6050
      00FF6A43H   PUBLIC    CODE     ---       MPU6050_DMP_Init
      00000491H   PUBLIC    EDATA    FLOAT     z_add
      00000495H   PUBLIC    EDATA    FLOAT     z_last
      00000499H   PUBLIC    EDATA    FLOAT     Roll
      0000049DH   PUBLIC    EDATA    FLOAT     x1
      000004A1H   PUBLIC    EDATA    FLOAT     y1
      000004A5H   PUBLIC    EDATA    FLOAT     z1
      000004A9H   PUBLIC    EDATA    FLOAT     z_now
      000004ADH   PUBLIC    EDATA    FLOAT     Yaw
      000004B1H   PUBLIC    EDATA    ---       Q
      000004C1H   PUBLIC    EDATA    ---       dmpdatas
      000004EBH   PUBLIC    EDATA    CHAR      mpu_state
      000004ECH   PUBLIC    EDATA    FLOAT     Pitch
      00FF1A26H   PUBLIC    CODE     ---       dmpUpdates
      00FF1A55H   PUBLIC    CODE     ---       dmpcfgupddata
      00FF1B15H   PUBLIC    CODE     ---       dmpmemorydata
      00000402H   PUBLIC    EDATA    BYTE      ?MPU_Get_Gyroscope?BYTE
      000000D0H   SFRSYM    DATA     BYTE      PSW
      000000B7H   SFRSYM    DATA     BYTE      IPH
      000000C8H.1 SFRSYM    DATA     BIT       P51
      00000088H   SFRSYM    DATA     BYTE      TCON
      000000C8H.0 SFRSYM    DATA     BIT       P50
      00000098H   SFRSYM    DATA     BYTE      SCON
      000000BCH   SFRSYM    DATA     BYTE      ADC_CONTR
      000000DEH   SFRSYM    DATA     BYTE      ADCCFG
      000000B8H   SFRSYM    DATA     BYTE      IP
      000000A8H   SFRSYM    DATA     BYTE      IE
      000000F8H   SFRSYM    DATA     BYTE      P7
      000000E8H   SFRSYM    DATA     BYTE      P6
      000000C8H   SFRSYM    DATA     BYTE      P5
      000000C0H   SFRSYM    DATA     BYTE      P4
      000000B0H   SFRSYM    DATA     BYTE      P3
      000000A0H   SFRSYM    DATA     BYTE      P2
      00000090H   SFRSYM    DATA     BYTE      P1
      00000080H   SFRSYM    DATA     BYTE      P0

      00FF6CB5H   BLOCK     CODE     ---       LVL=0
      R10         REGSYM    ---      CHAR      i
      00FF6CB5H   LINE      CODE     ---       #10
      00FF6CB5H   LINE      CODE     ---       #11
      00FF6CB5H   LINE      CODE     ---       #13
      00FF6CB8H   LINE      CODE     ---       #14
      00FF6CBFH   LINE      CODE     ---       #15
      ---         BLOCKEND  ---      ---       LVL=0

      00FF6CCBH   BLOCK     CODE     ---       LVL=0
L251 LINKER/LOCATER V4.66.93.0                                                        07/20/2024  17:24:57  PAGE 78


      R10         REGSYM    ---      CHAR      i
      00FF6CCBH   LINE      CODE     ---       #17
      00FF6CCBH   LINE      CODE     ---       #18
      00FF6CCBH   LINE      CODE     ---       #20
      00FF6CCEH   LINE      CODE     ---       #21
      00FF6CD5H   LINE      CODE     ---       #22
      ---         BLOCKEND  ---      ---       LVL=0

      00FF005EH   BLOCK     CODE     ---       LVL=0
      00FF005EH   LINE      CODE     ---       #25
      00FF005EH   LINE      CODE     ---       #27
      00FF0060H   LINE      CODE     ---       #28
      ---         BLOCKEND  ---      ---       LVL=0

      00FF0086H   BLOCK     CODE     ---       LVL=0
      00FF0086H   LINE      CODE     ---       #31
      00FF0086H   LINE      CODE     ---       #33
      00FF0088H   LINE      CODE     ---       #34
      ---         BLOCKEND  ---      ---       LVL=0

      00FF001EH   BLOCK     CODE     ---       LVL=0
      00FF001EH   LINE      CODE     ---       #37
      00FF001EH   LINE      CODE     ---       #39
      00FF0020H   LINE      CODE     ---       #40
      ---         BLOCKEND  ---      ---       LVL=0

      00FF0056H   BLOCK     CODE     ---       LVL=0
      00FF0056H   LINE      CODE     ---       #43
      00FF0056H   LINE      CODE     ---       #45
      00FF0058H   LINE      CODE     ---       #46
      ---         BLOCKEND  ---      ---       LVL=0

      00FF0006H   BLOCK     CODE     ---       LVL=0
      00FF0006H   LINE      CODE     ---       #49
      00FF0006H   LINE      CODE     ---       #51
      00FF000AH   LINE      CODE     ---       #52
      ---         BLOCKEND  ---      ---       LVL=0

      00FF6BE3H   BLOCK     CODE     ---       LVL=0
      00FF6BE3H   LINE      CODE     ---       #60
      00FF6BE3H   LINE      CODE     ---       #62
      00FF6BE6H   LINE      CODE     ---       #63
      00FF6BE9H   LINE      CODE     ---       #64
      00FF6BECH   LINE      CODE     ---       #66
      00FF6BEFH   LINE      CODE     ---       #67
      00FF6BF2H   LINE      CODE     ---       #68
      ---         BLOCKEND  ---      ---       LVL=0

      00FF6C48H   BLOCK     CODE     ---       LVL=0
      00FF6C48H   LINE      CODE     ---       #77
      00FF6C48H   LINE      CODE     ---       #79
      00FF6C4BH   LINE      CODE     ---       #80
      00FF6C4EH   LINE      CODE     ---       #81
      00FF6C51H   LINE      CODE     ---       #83
      00FF6C54H   LINE      CODE     ---       #84
      ---         BLOCKEND  ---      ---       LVL=0

      00FF6B80H   BLOCK     CODE     ---       LVL=0
      00FF6B80H   LINE      CODE     ---       #93
      00FF6B80H   LINE      CODE     ---       #95
      00FF6B83H   LINE      CODE     ---       #96
      00FF6B86H   LINE      CODE     ---       #97
      00FF6B89H   LINE      CODE     ---       #99
      00FF6B8CH   LINE      CODE     ---       #100
      00FF6B8FH   LINE      CODE     ---       #101
L251 LINKER/LOCATER V4.66.93.0                                                        07/20/2024  17:24:57  PAGE 79


      00FF6B92H   LINE      CODE     ---       #102
      ---         BLOCKEND  ---      ---       LVL=0

      00FF6BD1H   BLOCK     CODE     ---       LVL=0
      00FF6BD1H   LINE      CODE     ---       #111
      00FF6BD1H   LINE      CODE     ---       #113
      00FF6BD4H   LINE      CODE     ---       #114
      00FF6BD7H   LINE      CODE     ---       #115
      00FF6BDAH   LINE      CODE     ---       #117
      00FF6BDDH   LINE      CODE     ---       #118
      00FF6BE0H   LINE      CODE     ---       #119
      ---         BLOCKEND  ---      ---       LVL=0

      00FF690BH   BLOCK     CODE     ---       LVL=0
      00FF690DH   BLOCK     CODE     NEAR LAB  LVL=1
      WR14        REGSYM    ---      WORD      time_temp
      ---         BLOCKEND  ---      ---       LVL=1
      00FF690BH   LINE      CODE     ---       #129
      00FF690DH   LINE      CODE     ---       #130
      00FF690DH   LINE      CODE     ---       #131
      00FF690FH   LINE      CODE     ---       #133
      00FF6912H   LINE      CODE     ---       #134
      00FF6915H   LINE      CODE     ---       #135
      00FF6917H   LINE      CODE     ---       #137
      00FF6919H   LINE      CODE     ---       #138
      00FF691CH   LINE      CODE     ---       #139
      00FF6922H   LINE      CODE     ---       #141
      00FF6925H   LINE      CODE     ---       #142
      00FF6929H   LINE      CODE     ---       #143
      00FF692EH   LINE      CODE     ---       #145
      00FF6931H   LINE      CODE     ---       #146
      00FF6932H   LINE      CODE     ---       #147
      ---         BLOCKEND  ---      ---       LVL=0

      00FF67C8H   BLOCK     CODE     ---       LVL=0
      R15         REGSYM    ---      BYTE      dat
      00FF67CCH   BLOCK     CODE     NEAR LAB  LVL=1
      R14         REGSYM    ---      BYTE      i
      ---         BLOCKEND  ---      ---       LVL=1
      00FF67C8H   LINE      CODE     ---       #155
      00FF67CCH   LINE      CODE     ---       #156
      00FF67CCH   LINE      CODE     ---       #157
      00FF67CCH   LINE      CODE     ---       #159
      00FF67CFH   LINE      CODE     ---       #160
      00FF67D2H   LINE      CODE     ---       #162
      00FF67DBH   LINE      CODE     ---       #163
      00FF67E0H   LINE      CODE     ---       #165
      00FF67E3H   LINE      CODE     ---       #166
      00FF67E5H   LINE      CODE     ---       #167
      00FF67E8H   LINE      CODE     ---       #168
      00FF67EBH   LINE      CODE     ---       #169
      00FF67EEH   LINE      CODE     ---       #170
      00FF67F1H   LINE      CODE     ---       #171
      00FF67F4H   LINE      CODE     ---       #172
      00FF67F8H   LINE      CODE     ---       #173
      ---         BLOCKEND  ---      ---       LVL=0

      00FF66C2H   BLOCK     CODE     ---       LVL=0
      R15         REGSYM    ---      BYTE      ack
      00FF66C8H   BLOCK     CODE     NEAR LAB  LVL=1
      R13         REGSYM    ---      BYTE      i
      R14         REGSYM    ---      BYTE      receive
      ---         BLOCKEND  ---      ---       LVL=1
      00FF66C2H   LINE      CODE     ---       #181
      00FF66C8H   LINE      CODE     ---       #182
L251 LINKER/LOCATER V4.66.93.0                                                        07/20/2024  17:24:57  PAGE 80


      00FF66C8H   LINE      CODE     ---       #183
      00FF66CAH   LINE      CODE     ---       #185
      00FF66CDH   LINE      CODE     ---       #187
      00FF66D0H   LINE      CODE     ---       #188
      00FF66D3H   LINE      CODE     ---       #189
      00FF66D6H   LINE      CODE     ---       #190
      00FF66D8H   LINE      CODE     ---       #191
      00FF66DDH   LINE      CODE     ---       #192
      00FF66DFH   LINE      CODE     ---       #193
      00FF66E2H   LINE      CODE     ---       #194
      00FF66E6H   LINE      CODE     ---       #195
      00FF66EAH   LINE      CODE     ---       #196
      00FF66EFH   LINE      CODE     ---       #198
      00FF66F2H   LINE      CODE     ---       #200
      00FF66F4H   LINE      CODE     ---       #201
      ---         BLOCKEND  ---      ---       LVL=0

      00FF5F8FH   BLOCK     CODE     ---       LVL=0
      0000040FH   SYMBOL    EDATA    BYTE      DevAddress
      00000410H   SYMBOL    EDATA    BYTE      MemAddress
      REG=3       REGSYM    ---      ---       pData
      00000411H   SYMBOL    EDATA    WORD      Len
      00FF5F8FH   LINE      CODE     ---       #209
      00FF5F9FH   LINE      CODE     ---       #211
      00FF5FA2H   LINE      CODE     ---       #212
      00FF5FABH   LINE      CODE     ---       #213
      00FF5FB0H   LINE      CODE     ---       #214
      00FF5FB4H   LINE      CODE     ---       #215
      00FF5FBBH   LINE      CODE     ---       #216
      00FF5FC0H   LINE      CODE     ---       #217
      00FF5FC4H   LINE      CODE     ---       #218
      00FF5FC6H   LINE      CODE     ---       #220
      00FF5FCEH   LINE      CODE     ---       #221
      00FF5FD3H   LINE      CODE     ---       #222
      00FF5FD7H   LINE      CODE     ---       #223
      00FF5FE7H   LINE      CODE     ---       #224
      00FF5FEAH   LINE      CODE     ---       #225
      00FF5FEBH   LINE      CODE     ---       #226
      ---         BLOCKEND  ---      ---       LVL=0

      00FF5B9BH   BLOCK     CODE     ---       LVL=0
      00000414H   SYMBOL    EDATA    BYTE      DevAddress
      00000415H   SYMBOL    EDATA    BYTE      MemAddress
      REG=3       REGSYM    ---      ---       pBuffer
      00000416H   SYMBOL    EDATA    WORD      Len
      00FF5B9BH   LINE      CODE     ---       #234
      00FF5BABH   LINE      CODE     ---       #236
      00FF5BAEH   LINE      CODE     ---       #237
      00FF5BB7H   LINE      CODE     ---       #238
      00FF5BBCH   LINE      CODE     ---       #239
      00FF5BC0H   LINE      CODE     ---       #240
      00FF5BC7H   LINE      CODE     ---       #241
      00FF5BCCH   LINE      CODE     ---       #242
      00FF5BD0H   LINE      CODE     ---       #243
      00FF5BD3H   LINE      CODE     ---       #244
      00FF5BDEH   LINE      CODE     ---       #245
      00FF5BE3H   LINE      CODE     ---       #246
      00FF5BE7H   LINE      CODE     ---       #247
      00FF5BE9H   LINE      CODE     ---       #249
      00FF5BFEH   LINE      CODE     ---       #250
      00FF5C0EH   LINE      CODE     ---       #251
      00FF5C11H   LINE      CODE     ---       #252
      00FF5C12H   LINE      CODE     ---       #253
      ---         BLOCKEND  ---      ---       LVL=0

L251 LINKER/LOCATER V4.66.93.0                                                        07/20/2024  17:24:57  PAGE 81


      00FF604CH   BLOCK     CODE     ---       LVL=0
      R13         REGSYM    ---      BYTE      DevAddress
      R14         REGSYM    ---      BYTE      addr
      R15         REGSYM    ---      BYTE      bitNum
      R12         REGSYM    ---      BYTE      Data
      00FF6056H   BLOCK     CODE     NEAR LAB  LVL=1
      0000040CH   SYMBOL    EDATA    BYTE      b
      ---         BLOCKEND  ---      ---       LVL=1
      00FF604CH   LINE      CODE     ---       #262
      00FF6056H   LINE      CODE     ---       #263
      00FF6056H   LINE      CODE     ---       #265
      00FF6063H   LINE      CODE     ---       #267
      00FF6092H   LINE      CODE     ---       #268
      00FF60A3H   LINE      CODE     ---       #269
      00FF60A3H   LINE      CODE     ---       #271
      00FF60A5H   LINE      CODE     ---       #272
      ---         BLOCKEND  ---      ---       LVL=0

      00FF5B1EH   BLOCK     CODE     ---       LVL=0
      0000040CH   SYMBOL    EDATA    BYTE      DevAddress
      R12         REGSYM    ---      BYTE      addr
      R13         REGSYM    ---      BYTE      bitStart
      R14         REGSYM    ---      BYTE      length
      R15         REGSYM    ---      BYTE      Data
      00FF5B2CH   BLOCK     CODE     NEAR LAB  LVL=1
      000004F0H   SYMBOL    EDATA    BYTE      b
      000004F1H   SYMBOL    EDATA    BYTE      mask
      ---         BLOCKEND  ---      ---       LVL=1
      00FF5B1EH   LINE      CODE     ---       #282
      00FF5B2CH   LINE      CODE     ---       #283
      00FF5B2CH   LINE      CODE     ---       #292
      00FF5B39H   LINE      CODE     ---       #294
      00FF5B5FH   LINE      CODE     ---       #295
      00FF5B68H   LINE      CODE     ---       #296
      00FF5B6AH   LINE      CODE     ---       #297
      00FF5B79H   LINE      CODE     ---       #298
      00FF5B83H   LINE      CODE     ---       #300
      00FF5B96H   LINE      CODE     ---       #301
      00FF5B96H   LINE      CODE     ---       #303
      00FF5B98H   LINE      CODE     ---       #304
      ---         BLOCKEND  ---      ---       LVL=0

      00FF6795H   BLOCK     CODE     ---       LVL=0
      R11         REGSYM    ---      BYTE      DevAddress
      R10         REGSYM    ---      BYTE      addr
      0000040CH   SYMBOL    EDATA    BYTE      bitNum
      REG=3       REGSYM    ---      ---       Data
      00FF679DH   BLOCK     CODE     NEAR LAB  LVL=1
      0000040DH   SYMBOL    EDATA    BYTE      b
      ---         BLOCKEND  ---      ---       LVL=1
      00FF6795H   LINE      CODE     ---       #312
      00FF679DH   LINE      CODE     ---       #313
      00FF679DH   LINE      CODE     ---       #315
      00FF67AAH   LINE      CODE     ---       #317
      00FF67C0H   LINE      CODE     ---       #318
      00FF67C3H   LINE      CODE     ---       #319
      00FF67C3H   LINE      CODE     ---       #322
      00FF67C5H   LINE      CODE     ---       #323
      00FF67C5H   LINE      CODE     ---       #324
      ---         BLOCKEND  ---      ---       LVL=0

      00FF5E5BH   BLOCK     CODE     ---       LVL=0
      R11         REGSYM    ---      BYTE      DevAddress
      R10         REGSYM    ---      BYTE      addr
      R14         REGSYM    ---      BYTE      bitStart
L251 LINKER/LOCATER V4.66.93.0                                                        07/20/2024  17:24:57  PAGE 82


      R15         REGSYM    ---      BYTE      length
      0000040CH   SYMBOL    EDATA    ---       Data
      00FF5E65H   BLOCK     CODE     NEAR LAB  LVL=1
      000004F2H   SYMBOL    EDATA    BYTE      b
      000004F3H   SYMBOL    EDATA    BYTE      mask
      ---         BLOCKEND  ---      ---       LVL=1
      00FF5E5BH   LINE      CODE     ---       #333
      00FF5E65H   LINE      CODE     ---       #334
      00FF5E65H   LINE      CODE     ---       #341
      00FF5E72H   LINE      CODE     ---       #344
      00FF5E94H   LINE      CODE     ---       #345
      00FF5E9CH   LINE      CODE     ---       #346
      00FF5EB3H   LINE      CODE     ---       #347
      00FF5EBEH   LINE      CODE     ---       #348
      00FF5EC1H   LINE      CODE     ---       #349
      00FF5EC1H   LINE      CODE     ---       #351
      00FF5EC3H   LINE      CODE     ---       #352
      ---         BLOCKEND  ---      ---       LVL=0

      00FF6CD6H   BLOCK     CODE     ---       LVL=0
      DR4         REGSYM    ---      DWORD     i
      00FF6CD6H   LINE      CODE     ---       #356
      00FF6CD6H   LINE      CODE     ---       #357
      00FF6CD6H   LINE      CODE     ---       #359
      00FF6CD7H   LINE      CODE     ---       #360
      00FF6CDBH   LINE      CODE     ---       #361
      00FF6CDFH   LINE      CODE     ---       #362
      ---         BLOCKEND  ---      ---       LVL=0

      00FF6BAAH   BLOCK     CODE     ---       LVL=0
      WR14        REGSYM    ---      WORD      Milliseconds
      00FF6BAAH   LINE      CODE     ---       #365
      00FF6BAEH   LINE      CODE     ---       #367
      00FF6BBBH   LINE      CODE     ---       #369
      ---         BLOCKEND  ---      ---       LVL=0

      00FF6CC0H   BLOCK     CODE     ---       LVL=0
      R7          REGSYM    ---      BYTE      reg
      R6          REGSYM    ---      BYTE      len
      REG=0       REGSYM    ---      ---       buf
      00FF6CC0H   LINE      CODE     ---       #377
      00FF6CC4H   LINE      CODE     ---       #379
      ---         BLOCKEND  ---      ---       LVL=0

      00FF6CAAH   BLOCK     CODE     ---       LVL=0
      R7          REGSYM    ---      BYTE      reg
      R6          REGSYM    ---      BYTE      len
      REG=0       REGSYM    ---      ---       buf
      00FF6CAAH   LINE      CODE     ---       #388
      00FF6CAEH   LINE      CODE     ---       #390
      ---         BLOCKEND  ---      ---       LVL=0

      00FF6B95H   BLOCK     CODE     ---       LVL=0
      R10         REGSYM    ---      BYTE      reg
      0000040EH   SYMBOL    EDATA    BYTE      Data
      00FF6B95H   LINE      CODE     ---       #398
      00FF6B9BH   LINE      CODE     ---       #400
      ---         BLOCKEND  ---      ---       LVL=0
      R10         REGSYM    ---      BYTE      reg

      00FF6C90H   BLOCK     CODE     ---       LVL=0
      R7          REGSYM    ---      BYTE      addr
      R6          REGSYM    ---      BYTE      bitNum
      R10         REGSYM    ---      BYTE      Data
      00FF6C90H   LINE      CODE     ---       #414
L251 LINKER/LOCATER V4.66.93.0                                                        07/20/2024  17:24:57  PAGE 83


      00FF6C96H   LINE      CODE     ---       #416
      ---         BLOCKEND  ---      ---       LVL=0

      00FF6C83H   BLOCK     CODE     ---       LVL=0
      R7          REGSYM    ---      BYTE      addr
      R6          REGSYM    ---      BYTE      bitStart
      R5          REGSYM    ---      BYTE      length
      R4          REGSYM    ---      BYTE      Data
      00FF6C83H   LINE      CODE     ---       #420
      00FF6C8BH   LINE      CODE     ---       #422
      ---         BLOCKEND  ---      ---       LVL=0

      00FF6CE0H   BLOCK     CODE     ---       LVL=0
      R7          REGSYM    ---      BYTE      addr
      R6          REGSYM    ---      BYTE      bitNum
      REG=0       REGSYM    ---      ---       Data
      00FF6CE0H   LINE      CODE     ---       #426
      00FF6CE4H   LINE      CODE     ---       #428
      ---         BLOCKEND  ---      ---       LVL=0

      00FF0046H   BLOCK     CODE     ---       LVL=0
      R7          REGSYM    ---      BYTE      addr
      R6          REGSYM    ---      BYTE      bitStart
      R10         REGSYM    ---      BYTE      length
      REG=0       REGSYM    ---      ---       Data
      00FF0046H   LINE      CODE     ---       #432
      00FF004CH   LINE      CODE     ---       #434
      ---         BLOCKEND  ---      ---       LVL=0
      R11         REGSYM    ---      BYTE      res
      R10         REGSYM    ---      BYTE      fsr
      R10         REGSYM    ---      BYTE      fsr
      WR6         REGSYM    ---      WORD      lpf
      R10         REGSYM    ---      BYTE      Data
      WR14        REGSYM    ---      WORD      rate
      000004F4H   SYMBOL    EDATA    BYTE      Data
      WR4         REGSYM    ---      INT       raw
      DR4         REGSYM    ---      FLOAT     temp

      00FF60A8H   BLOCK     CODE     ---       LVL=0
      00000406H   SYMBOL    EDATA    ---       gx
      REG=3       REGSYM    ---      ---       gy
      0000040AH   SYMBOL    EDATA    ---       gz
      00FF60B0H   BLOCK     CODE     NEAR LAB  LVL=1
      0000040EH   SYMBOL    EDATA    ---       buf
      R11         REGSYM    ---      BYTE      res
      ---         BLOCKEND  ---      ---       LVL=1
      00FF60A8H   LINE      CODE     ---       #543
      00FF60B0H   LINE      CODE     ---       #544
      00FF60B0H   LINE      CODE     ---       #546
      00FF60BCH   LINE      CODE     ---       #547
      00FF60BEH   LINE      CODE     ---       #549
      00FF60D5H   LINE      CODE     ---       #550
      00FF60E8H   LINE      CODE     ---       #551
      00FF60FDH   LINE      CODE     ---       #552
      00FF60FDH   LINE      CODE     ---       #553
      00FF60FDH   LINE      CODE     ---       #554
      ---         BLOCKEND  ---      ---       LVL=0
      REG=3       REGSYM    ---      ---       ay
      R11         REGSYM    ---      BYTE      res

      00FF5A9DH   BLOCK     CODE     ---       LVL=0
      00FF5A9FH   BLOCK     CODE     NEAR LAB  LVL=1
      WR14        REGSYM    ---      WORD      datanum
      0000040CH   SYMBOL    EDATA    BYTE      ye
      0000040DH   SYMBOL    EDATA    BYTE      i
L251 LINKER/LOCATER V4.66.93.0                                                        07/20/2024  17:24:57  PAGE 84


      R12         REGSYM    ---      BYTE      bank
      R13         REGSYM    ---      BYTE      addr
      ---         BLOCKEND  ---      ---       LVL=1
      00FF5A9DH   LINE      CODE     ---       #790
      00FF5A9FH   LINE      CODE     ---       #791
      00FF5A9FH   LINE      CODE     ---       #792
      00FF5AA1H   LINE      CODE     ---       #794
      00FF5AA3H   LINE      CODE     ---       #795
      00FF5AA5H   LINE      CODE     ---       #797
      00FF5AA5H   LINE      CODE     ---       #799
      00FF5AAAH   LINE      CODE     ---       #800
      00FF5AAEH   LINE      CODE     ---       #802
      00FF5AB4H   LINE      CODE     ---       #803
      00FF5AB7H   LINE      CODE     ---       #805
      00FF5ABEH   LINE      CODE     ---       #806
      00FF5AC5H   LINE      CODE     ---       #807
      00FF5AD7H   LINE      CODE     ---       #808
      00FF5ADBH   LINE      CODE     ---       #809
      00FF5ADEH   LINE      CODE     ---       #810
      00FF5AF1H   LINE      CODE     ---       #811
      00FF5AF8H   LINE      CODE     ---       #812
      00FF5B00H   LINE      CODE     ---       #813
      00FF5B07H   LINE      CODE     ---       #814
      00FF5B19H   LINE      CODE     ---       #815
      00FF5B19H   LINE      CODE     ---       #816
      00FF5B1BH   LINE      CODE     ---       #817
      ---         BLOCKEND  ---      ---       LVL=0

      00FF55FFH   BLOCK     CODE     ---       LVL=0
      00FF5601H   BLOCK     CODE     NEAR LAB  LVL=1
      R14         REGSYM    ---      BYTE      line
      0000040CH   SYMBOL    EDATA    BYTE      bank
      R15         REGSYM    ---      BYTE      datacounts
      R13         REGSYM    ---      BYTE      bytes2write
      0000040DH   SYMBOL    EDATA    BYTE      offset
      000004F5H   SYMBOL    EDATA    BYTE      writingcounts
      R12         REGSYM    ---      BYTE      special
      ---         BLOCKEND  ---      ---       LVL=1
      00FF55FFH   LINE      CODE     ---       #819
      00FF5601H   LINE      CODE     ---       #820
      00FF5601H   LINE      CODE     ---       #823
      00FF5603H   LINE      CODE     ---       #829
      00FF5606H   LINE      CODE     ---       #831
      00FF561CH   LINE      CODE     ---       #832
      00FF5632H   LINE      CODE     ---       #833
      00FF5646H   LINE      CODE     ---       #834
      00FF564FH   LINE      CODE     ---       #835
      00FF5658H   LINE      CODE     ---       #836
      00FF5669H   LINE      CODE     ---       #837
      00FF566DH   LINE      CODE     ---       #838
      00FF566FH   LINE      CODE     ---       #839
      00FF5673H   LINE      CODE     ---       #841
      00FF5687H   LINE      CODE     ---       #842
      00FF568CH   LINE      CODE     ---       #847
      00FF5694H   LINE      CODE     ---       #848
      00FF5696H   LINE      CODE     ---       #850
      00FF5699H   LINE      CODE     ---       #851
      00FF56A0H   LINE      CODE     ---       #853
      00FF56A2H   LINE      CODE     ---       #854
      ---         BLOCKEND  ---      ---       LVL=0

      00FF5991H   BLOCK     CODE     ---       LVL=0
      0000040CH   SYMBOL    EDATA    BYTE      datacounts
      00FF5997H   BLOCK     CODE     NEAR LAB  LVL=1
      000004F6H   SYMBOL    EDATA    BYTE      writingcounts
L251 LINKER/LOCATER V4.66.93.0                                                        07/20/2024  17:24:57  PAGE 85


      R7          REGSYM    ---      BYTE      bank
      R14         REGSYM    ---      BYTE      offset
      R15         REGSYM    ---      BYTE      bytes2write
      ---         BLOCKEND  ---      ---       LVL=1
      00FF5991H   LINE      CODE     ---       #857
      00FF5997H   LINE      CODE     ---       #858
      00FF5997H   LINE      CODE     ---       #862
      00FF59B2H   LINE      CODE     ---       #863
      00FF59CDH   LINE      CODE     ---       #864
      00FF59E8H   LINE      CODE     ---       #865
      00FF59EDH   LINE      CODE     ---       #866
      00FF59F4H   LINE      CODE     ---       #867
      00FF5A09H   LINE      CODE     ---       #868
      00FF5A0DH   LINE      CODE     ---       #869
      00FF5A17H   LINE      CODE     ---       #870
      00FF5A19H   LINE      CODE     ---       #871
      ---         BLOCKEND  ---      ---       LVL=0

      00FF0026H   BLOCK     CODE     ---       LVL=0
      0000040CH   SYMBOL    EDATA    ---       i
      00FF0026H   LINE      CODE     ---       #875
      00FF0026H   LINE      CODE     ---       #876
      00FF0026H   LINE      CODE     ---       #878
      00FF0032H   LINE      CODE     ---       #879
      00FF0042H   LINE      CODE     ---       #880
      ---         BLOCKEND  ---      ---       LVL=0

      00FF6C57H   BLOCK     CODE     ---       LVL=0
      REG=7       REGSYM    ---      ---       Data
      00FF6C57H   LINE      CODE     ---       #886
      00FF6C57H   LINE      CODE     ---       #888
      00FF6C65H   LINE      CODE     ---       #889
      ---         BLOCKEND  ---      ---       LVL=0

      00FF3DB7H   BLOCK     CODE     ---       LVL=0
      00000406H   SYMBOL    EDATA    BYTE      hwRevision
      00000407H   SYMBOL    EDATA    BYTE      otpValid
      00000408H   SYMBOL    EDATA    BYTE      mpuIntStatus
      00000409H   SYMBOL    EDATA    BYTE      xgOffsetTC
      0000040AH   SYMBOL    EDATA    BYTE      ygOffsetTC
      0000040BH   SYMBOL    EDATA    BYTE      zgOffsetTC
      000004F7H   SYMBOL    EDATA    WORD      fifoCount
      00FF3DB7H   LINE      CODE     ---       #892
      00FF3DB7H   LINE      CODE     ---       #893
      00FF3DB7H   LINE      CODE     ---       #897
      00FF3DC2H   LINE      CODE     ---       #898
      00FF3DC9H   LINE      CODE     ---       #899
      00FF3DD3H   LINE      CODE     ---       #900
      00FF3DDBH   LINE      CODE     ---       #901
      00FF3DE3H   LINE      CODE     ---       #902
      00FF3DEFH   LINE      CODE     ---       #903
      00FF3DF6H   LINE      CODE     ---       #904
      00FF3E00H   LINE      CODE     ---       #905
      00FF3E0EH   LINE      CODE     ---       #906
      00FF3E1DH   LINE      CODE     ---       #907
      00FF3E2CH   LINE      CODE     ---       #911
      00FF3E37H   LINE      CODE     ---       #912
      00FF3E3EH   LINE      CODE     ---       #913
      00FF3E43H   LINE      CODE     ---       #914
      00FF3E45H   LINE      CODE     ---       #915
      00FF3E4AH   LINE      CODE     ---       #916
      00FF3E4CH   LINE      CODE     ---       #917
      00FF3E5AH   LINE      CODE     ---       #918
      00FF3E62H   LINE      CODE     ---       #919
      00FF3E6AH   LINE      CODE     ---       #920
L251 LINKER/LOCATER V4.66.93.0                                                        07/20/2024  17:24:57  PAGE 86


      00FF3E78H   LINE      CODE     ---       #921
      00FF3E86H   LINE      CODE     ---       #922
      00FF3E94H   LINE      CODE     ---       #923
      00FF3E9CH   LINE      CODE     ---       #924
      00FF3EA3H   LINE      CODE     ---       #925
      00FF3EABH   LINE      CODE     ---       #926
      00FF3EB7H   LINE      CODE     ---       #927
      00FF3EC4H   LINE      CODE     ---       #928
      00FF3ED1H   LINE      CODE     ---       #929
      00FF3ED7H   LINE      CODE     ---       #930
      00FF3ED9H   LINE      CODE     ---       #931
      00FF3EE0H   LINE      CODE     ---       #932
      00FF3EE2H   LINE      CODE     ---       #933
      00FF3EEDH   LINE      CODE     ---       #934
      00FF3EF4H   LINE      CODE     ---       #936
      00FF3EFFH   LINE      CODE     ---       #938
      00FF3F07H   LINE      CODE     ---       #939
      00FF3F0FH   LINE      CODE     ---       #940
      00FF3F17H   LINE      CODE     ---       #941
      00FF3F1EH   LINE      CODE     ---       #942
      00FF3F29H   LINE      CODE     ---       #943
      00FF3F34H   LINE      CODE     ---       #944
      00FF3F3FH   LINE      CODE     ---       #945
      00FF3F4AH   LINE      CODE     ---       #946
      00FF3F51H   LINE      CODE     ---       #947
      00FF3F53H   LINE      CODE     ---       #948
      00FF3F5AH   LINE      CODE     ---       #949
      00FF3F5CH   LINE      CODE     ---       #950
      00FF3F63H   LINE      CODE     ---       #951
      00FF3F65H   LINE      CODE     ---       #952
      00FF3F72H   LINE      CODE     ---       #953
      00FF3F7DH   LINE      CODE     ---       #955
      00FF3F89H   LINE      CODE     ---       #956
      00FF3F90H   LINE      CODE     ---       #957
      00FF3F92H   LINE      CODE     ---       #958
      00FF3F9FH   LINE      CODE     ---       #959
      00FF3FAAH   LINE      CODE     ---       #961
      00FF3FB6H   LINE      CODE     ---       #962
      00FF3FBDH   LINE      CODE     ---       #963
      00FF3FBFH   LINE      CODE     ---       #964
      00FF3FC9H   LINE      CODE     ---       #965
      00FF3FD4H   LINE      CODE     ---       #966
      00FF3FE0H   LINE      CODE     ---       #968
      00FF3FE2H   LINE      CODE     ---       #969
      ---         BLOCKEND  ---      ---       LVL=0

      00FF67FBH   BLOCK     CODE     ---       LVL=0
      00FF67FBH   LINE      CODE     ---       #972
      00FF67FBH   LINE      CODE     ---       #974
      00FF6809H   LINE      CODE     ---       #975
      00FF6816H   LINE      CODE     ---       #976
      00FF6823H   LINE      CODE     ---       #977
      ---         BLOCKEND  ---      ---       LVL=0

      00FF6A88H   BLOCK     CODE     ---       LVL=0
      00000406H   SYMBOL    EDATA    BYTE      b
      00FF6A88H   LINE      CODE     ---       #981
      00FF6A88H   LINE      CODE     ---       #982
      00FF6A88H   LINE      CODE     ---       #983
      00FF6A8DH   LINE      CODE     ---       #984
      00FF6A9CH   LINE      CODE     ---       #985
      00FF6AA7H   LINE      CODE     ---       #987
      ---         BLOCKEND  ---      ---       LVL=0

      00FF6A43H   BLOCK     CODE     ---       LVL=0
L251 LINKER/LOCATER V4.66.93.0                                                        07/20/2024  17:24:57  PAGE 87


      00FF6A43H   LINE      CODE     ---       #989
      00FF6A43H   LINE      CODE     ---       #991
      00FF6A46H   LINE      CODE     ---       #992
      00FF6A4BH   LINE      CODE     ---       #993
      00FF6A50H   LINE      CODE     ---       #994
      00FF6A5BH   LINE      CODE     ---       #995
      ---         BLOCKEND  ---      ---       LVL=0

      00FF3B1DH   BLOCK     CODE     ---       LVL=0
      00FF3B1FH   BLOCK     CODE     NEAR LAB  LVL=1
      000004F9H   SYMBOL    EDATA    BYTE      zd
      000004FAH   SYMBOL    EDATA    WORD      i
      ---         BLOCKEND  ---      ---       LVL=1
      00FF3B1DH   LINE      CODE     ---       #999
      00FF3B1FH   LINE      CODE     ---       #1000
      00FF3B1FH   LINE      CODE     ---       #1004
      00FF3B26H   LINE      CODE     ---       #1005
      00FF3B32H   LINE      CODE     ---       #1006
      00FF3B45H   LINE      CODE     ---       #1008
      00FF3B50H   LINE      CODE     ---       #1009
      00FF3B53H   LINE      CODE     ---       #1010
      00FF3B5BH   LINE      CODE     ---       #1012
      00FF3B6EH   LINE      CODE     ---       #1014
      00FF3B77H   LINE      CODE     ---       #1016
      00FF3B95H   LINE      CODE     ---       #1017
      00FF3BADH   LINE      CODE     ---       #1018
      00FF3BC5H   LINE      CODE     ---       #1019
      00FF3BDDH   LINE      CODE     ---       #1020
      00FF3BDDH   LINE      CODE     ---       #1025
      00FF3C25H   LINE      CODE     ---       #1026
      00FF3C9CH   LINE      CODE     ---       #1027
      00FF3D20H   LINE      CODE     ---       #1029
      00FF3D3BH   LINE      CODE     ---       #1030
      00FF3D51H   LINE      CODE     ---       #1032
      00FF3D61H   LINE      CODE     ---       #1033
      00FF3D80H   LINE      CODE     ---       #1034
      00FF3D9FH   LINE      CODE     ---       #1036
      00FF3DA7H   LINE      CODE     ---       #1038
      00FF3DB4H   LINE      CODE     ---       #1040
      ---         BLOCKEND  ---      ---       LVL=0

      ---         MODULE    ---      ---       TOF
      00FF5DEEH   PUBLIC    CODE     ---       vl53l0x_get_distance
      00FF229EH   PUBLIC    CODE     ---       vl53l0x_init
      0000075FH   PUBLIC    EDATA    WORD      vl53l0x_distance_mm
      00000761H   PUBLIC    EDATA    BYTE      vl53l0x_finsh_flag
      000000D0H   SFRSYM    DATA     BYTE      PSW
      000000B7H   SFRSYM    DATA     BYTE      IPH
      000000B0H.3 SFRSYM    DATA     BIT       P33
      00000088H   SFRSYM    DATA     BYTE      TCON
      000000B0H.2 SFRSYM    DATA     BIT       P32
      00000098H   SFRSYM    DATA     BYTE      SCON
      000000BCH   SFRSYM    DATA     BYTE      ADC_CONTR
      000000DEH   SFRSYM    DATA     BYTE      ADCCFG
      000000B8H   SFRSYM    DATA     BYTE      IP
      000000A8H   SFRSYM    DATA     BYTE      IE
      000000F8H   SFRSYM    DATA     BYTE      P7
      000000E8H   SFRSYM    DATA     BYTE      P6
      000000C8H   SFRSYM    DATA     BYTE      P5
      000000C0H   SFRSYM    DATA     BYTE      P4
      000000B0H   SFRSYM    DATA     BYTE      P3
      000000A0H   SFRSYM    DATA     BYTE      P2
      00000090H   SFRSYM    DATA     BYTE      P1
      00000080H   SFRSYM    DATA     BYTE      P0
      00FF6AA8H   SYMBOL    CODE     ---       vl53l0x_simiic_sendack
L251 LINKER/LOCATER V4.66.93.0                                                        07/20/2024  17:24:57  PAGE 88


      00FF6612H   SYMBOL    CODE     ---       vl53l0x_timeout_microseconds_to_mclks
      00FF6597H   SYMBOL    CODE     ---       vl53l0x_timeout_mclks_to_microseconds
      00FF69B0H   SYMBOL    CODE     ---       vl53l0x_set_signal_rate_limit
      00FF664EH   SYMBOL    CODE     ---       vl53l0x_read_ch
      00FF6C28H   SYMBOL    CODE     ---       vl53l0x_decode_timeout
      00FF685CH   SYMBOL    CODE     ---       vl53l0x_send_ch
      00FF46F7H   SYMBOL    CODE     ---       vl53l0x_get_spad_info
      00FF672EH   SYMBOL    CODE     ---       vl53l0x_encode_timeout
      00FF6100H   SYMBOL    CODE     ---       vl53l0x_get_sequence_step_enables
      00FF0066H   SYMBOL    CODE     ---       vl53l0x_sccb_waitack
      00FF6C9DH   SYMBOL    CODE     ---       vl53l0x_simiic_delay
      00FF5C8EH   SYMBOL    CODE     ---       vl53l0x_perform_single_ref_calibration
      00FF5180H   SYMBOL    CODE     ---       vl53l0x_get_sequence_step_timeouts
      00FF6C66H   SYMBOL    CODE     ---       vl53l0x_simiic_start
      00FF61ACH   SYMBOL    CODE     ---       vl53l0x_simiic_read_regs
      00FF5D7BH   SYMBOL    CODE     ---       vl53l0x_get_measurement_timing_budget
      00FF66F9H   SYMBOL    CODE     ---       vl53l0x_simiic_write_dats
      00FF6987H   SYMBOL    CODE     ---       vl53l0x_simiic_read_reg
      00FF6200H   SYMBOL    CODE     ---       vl53l0x_simiic_read_regs_1
      00FF4FBCH   SYMBOL    CODE     ---       vl53l0x_set_measurement_timing_budget
      00FF6C06H   SYMBOL    CODE     ---       vl53l0x_simiic_stop
      00FF6A66H   SYMBOL    CODE     ---       vl53l0x_simiic_write_reg
      00FF62F2H   SYMBOL    CODE     ---       vl53l0x_get_vcsel_pulse_period

      00FF6C9DH   BLOCK     CODE     ---       LVL=0
      WR6         REGSYM    ---      WORD      j
      00FF6C9DH   LINE      CODE     ---       #77
      00FF6C9DH   LINE      CODE     ---       #78
      00FF6C9DH   LINE      CODE     ---       #79
      00FF6CA1H   LINE      CODE     ---       #80
      00FF6CA9H   LINE      CODE     ---       #81
      ---         BLOCKEND  ---      ---       LVL=0

      00FF6C66H   BLOCK     CODE     ---       LVL=0
      00FF6C66H   LINE      CODE     ---       #84
      00FF6C66H   LINE      CODE     ---       #86
      00FF6C68H   LINE      CODE     ---       #87
      00FF6C6AH   LINE      CODE     ---       #88
      00FF6C6DH   LINE      CODE     ---       #89
      00FF6C6FH   LINE      CODE     ---       #90
      00FF6C72H   LINE      CODE     ---       #91
      00FF6C74H   LINE      CODE     ---       #92
      ---         BLOCKEND  ---      ---       LVL=0

      00FF6C06H   BLOCK     CODE     ---       LVL=0
      00FF6C06H   LINE      CODE     ---       #95
      00FF6C06H   LINE      CODE     ---       #97
      00FF6C08H   LINE      CODE     ---       #98
      00FF6C0AH   LINE      CODE     ---       #99
      00FF6C0DH   LINE      CODE     ---       #100
      00FF6C0FH   LINE      CODE     ---       #101
      00FF6C12H   LINE      CODE     ---       #102
      00FF6C14H   LINE      CODE     ---       #103
      ---         BLOCKEND  ---      ---       LVL=0

      00FF6AA8H   BLOCK     CODE     ---       LVL=0
      R15         REGSYM    ---      BYTE      ack_dat
      00FF6AA8H   LINE      CODE     ---       #108
      00FF6AACH   LINE      CODE     ---       #110
      00FF6AAEH   LINE      CODE     ---       #111
      00FF6AB1H   LINE      CODE     ---       #112
      00FF6AB9H   LINE      CODE     ---       #113
      00FF6ABBH   LINE      CODE     ---       #115
      00FF6ABDH   LINE      CODE     ---       #116
      00FF6AC0H   LINE      CODE     ---       #117
L251 LINKER/LOCATER V4.66.93.0                                                        07/20/2024  17:24:57  PAGE 89


      00FF6AC2H   LINE      CODE     ---       #118
      00FF6AC5H   LINE      CODE     ---       #119
      ---         BLOCKEND  ---      ---       LVL=0

      00FF0066H   BLOCK     CODE     ---       LVL=0
      00FF0066H   LINE      CODE     ---       #122
      00FF0066H   LINE      CODE     ---       #124
      00FF0068H   LINE      CODE     ---       #126
      00FF006BH   LINE      CODE     ---       #128
      00FF006DH   LINE      CODE     ---       #129
      00FF0070H   LINE      CODE     ---       #131
      00FF0073H   LINE      CODE     ---       #134
      00FF0075H   LINE      CODE     ---       #135
      00FF0078H   LINE      CODE     ---       #136
      00FF0078H   LINE      CODE     ---       #138
      00FF007AH   LINE      CODE     ---       #139
      00FF007DH   LINE      CODE     ---       #140
      00FF0081H   LINE      CODE     ---       #141
      ---         BLOCKEND  ---      ---       LVL=0

      00FF685CH   BLOCK     CODE     ---       LVL=0
      R15         REGSYM    ---      BYTE      c
      00FF6860H   BLOCK     CODE     NEAR LAB  LVL=1
      R14         REGSYM    ---      BYTE      i
      ---         BLOCKEND  ---      ---       LVL=1
      00FF685CH   LINE      CODE     ---       #147
      00FF6860H   LINE      CODE     ---       #148
      00FF6860H   LINE      CODE     ---       #149
      00FF6863H   LINE      CODE     ---       #150
      00FF6865H   LINE      CODE     ---       #152
      00FF686EH   LINE      CODE     ---       #153
      00FF6870H   LINE      CODE     ---       #154
      00FF6872H   LINE      CODE     ---       #155
      00FF6875H   LINE      CODE     ---       #156
      00FF6877H   LINE      CODE     ---       #157
      00FF687AH   LINE      CODE     ---       #158
      00FF687CH   LINE      CODE     ---       #159
      00FF6884H   LINE      CODE     ---       #160
      00FF6887H   LINE      CODE     ---       #161
      ---         BLOCKEND  ---      ---       LVL=0

      00FF664EH   BLOCK     CODE     ---       LVL=0
      R15         REGSYM    ---      BYTE      ack_x
      00FF6654H   BLOCK     CODE     NEAR LAB  LVL=1
      R13         REGSYM    ---      BYTE      i
      R14         REGSYM    ---      BYTE      c
      ---         BLOCKEND  ---      ---       LVL=1
      00FF664EH   LINE      CODE     ---       #167
      00FF6654H   LINE      CODE     ---       #168
      00FF6654H   LINE      CODE     ---       #171
      00FF6656H   LINE      CODE     ---       #172
      00FF6658H   LINE      CODE     ---       #173
      00FF665BH   LINE      CODE     ---       #174
      00FF665DH   LINE      CODE     ---       #176
      00FF6660H   LINE      CODE     ---       #178
      00FF6663H   LINE      CODE     ---       #179
      00FF6665H   LINE      CODE     ---       #180
      00FF6668H   LINE      CODE     ---       #181
      00FF666AH   LINE      CODE     ---       #182
      00FF666DH   LINE      CODE     ---       #183
      00FF666FH   LINE      CODE     ---       #184
      00FF6672H   LINE      CODE     ---       #186
      00FF6674H   LINE      CODE     ---       #187
      00FF6678H   LINE      CODE     ---       #190
      00FF667AH   LINE      CODE     ---       #191
L251 LINKER/LOCATER V4.66.93.0                                                        07/20/2024  17:24:57  PAGE 90


      00FF667DH   LINE      CODE     ---       #192
      00FF6682H   LINE      CODE     ---       #194
      00FF6684H   LINE      CODE     ---       #195
      ---         BLOCKEND  ---      ---       LVL=0

      00FF66F9H   BLOCK     CODE     ---       LVL=0
      0000043BH   SYMBOL    EDATA    BYTE      dev_add
      0000043CH   SYMBOL    EDATA    ---       dat
      DR12        REGSYM    ---      DWORD     len
      00FF66F9H   LINE      CODE     ---       #207
      00FF6705H   LINE      CODE     ---       #209
      00FF6708H   LINE      CODE     ---       #210
      00FF670EH   LINE      CODE     ---       #211
      00FF6710H   LINE      CODE     ---       #213
      00FF6720H   LINE      CODE     ---       #214
      00FF6728H   LINE      CODE     ---       #217
      00FF672BH   LINE      CODE     ---       #218
      ---         BLOCKEND  ---      ---       LVL=0

      00FF6A66H   BLOCK     CODE     ---       LVL=0
      R13         REGSYM    ---      BYTE      dev_add
      R14         REGSYM    ---      BYTE      reg
      R15         REGSYM    ---      BYTE      dat
      00FF6A66H   LINE      CODE     ---       #230
      00FF6A6EH   LINE      CODE     ---       #232
      00FF6A71H   LINE      CODE     ---       #233
      00FF6A76H   LINE      CODE     ---       #234
      00FF6A7BH   LINE      CODE     ---       #235
      00FF6A80H   LINE      CODE     ---       #236
      00FF6A83H   LINE      CODE     ---       #237
      ---         BLOCKEND  ---      ---       LVL=0

      00FF6987H   BLOCK     CODE     ---       LVL=0
      R15         REGSYM    ---      BYTE      dev_add
      R14         REGSYM    ---      BYTE      reg
      00FF698DH   BLOCK     CODE     NEAR LAB  LVL=1
      R15         REGSYM    ---      BYTE      dat
      ---         BLOCKEND  ---      ---       LVL=1
      00FF6987H   LINE      CODE     ---       #248
      00FF698DH   LINE      CODE     ---       #249
      00FF698DH   LINE      CODE     ---       #251
      00FF6990H   LINE      CODE     ---       #252
      00FF6995H   LINE      CODE     ---       #253
      00FF699AH   LINE      CODE     ---       #256
      00FF699DH   LINE      CODE     ---       #257
      00FF69A6H   LINE      CODE     ---       #258
      00FF69AAH   LINE      CODE     ---       #259
      00FF69ADH   LINE      CODE     ---       #261
      00FF69ADH   LINE      CODE     ---       #262
      ---         BLOCKEND  ---      ---       LVL=0

      00FF61ACH   BLOCK     CODE     ---       LVL=0
      00000442H   SYMBOL    EDATA    BYTE      dev_add
      00000443H   SYMBOL    EDATA    BYTE      reg
      REG=3       REGSYM    ---      ---       dat_add
      00000444H   SYMBOL    EDATA    DWORD     num
      00FF61ACH   LINE      CODE     ---       #275
      00FF61B8H   LINE      CODE     ---       #277
      00FF61BBH   LINE      CODE     ---       #278
      00FF61C4H   LINE      CODE     ---       #279
      00FF61CBH   LINE      CODE     ---       #282
      00FF61CEH   LINE      CODE     ---       #283
      00FF61D9H   LINE      CODE     ---       #284
      00FF61DBH   LINE      CODE     ---       #286
      00FF61E3H   LINE      CODE     ---       #287
L251 LINKER/LOCATER V4.66.93.0                                                        07/20/2024  17:24:57  PAGE 91


      00FF61E5H   LINE      CODE     ---       #288
      00FF61F3H   LINE      CODE     ---       #289
      00FF61FAH   LINE      CODE     ---       #290
      00FF61FDH   LINE      CODE     ---       #291
      ---         BLOCKEND  ---      ---       LVL=0

      00FF6200H   BLOCK     CODE     ---       LVL=0
      000003FDH   SYMBOL    EDATA    BYTE      dev_add
      000003FEH   SYMBOL    EDATA    BYTE      reg
      REG=3       REGSYM    ---      ---       dat_add
      000003FFH   SYMBOL    EDATA    DWORD     num
      00FF6200H   LINE      CODE     ---       #304
      00FF620CH   LINE      CODE     ---       #306
      00FF620FH   LINE      CODE     ---       #307
      00FF6218H   LINE      CODE     ---       #308
      00FF621FH   LINE      CODE     ---       #311
      00FF6222H   LINE      CODE     ---       #312
      00FF622DH   LINE      CODE     ---       #313
      00FF622FH   LINE      CODE     ---       #315
      00FF6237H   LINE      CODE     ---       #316
      00FF6239H   LINE      CODE     ---       #317
      00FF6247H   LINE      CODE     ---       #318
      00FF624EH   LINE      CODE     ---       #319
      00FF6251H   LINE      CODE     ---       #320
      ---         BLOCKEND  ---      ---       LVL=0

      00FF46F7H   BLOCK     CODE     ---       LVL=0
      00000418H   SYMBOL    EDATA    ---       index
      REG=3       REGSYM    ---      ---       type_is_aperture
      00FF46FFH   BLOCK     CODE     NEAR LAB  LVL=1
      0000041CH   SYMBOL    EDATA    BYTE      tmp
      0000041DH   SYMBOL    EDATA    BYTE      return_state
      0000041EH   SYMBOL    EDATA    WORD      loop_count
      ---         BLOCKEND  ---      ---       LVL=1
      00FF46F7H   LINE      CODE     ---       #352
      00FF46FFH   LINE      CODE     ---       #353
      00FF46FFH   LINE      CODE     ---       #354
      00FF4704H   LINE      CODE     ---       #355
      00FF4708H   LINE      CODE     ---       #356
      00FF470EH   LINE      CODE     ---       #358
      00FF470EH   LINE      CODE     ---       #360
      00FF4719H   LINE      CODE     ---       #361
      00FF4724H   LINE      CODE     ---       #362
      00FF472DH   LINE      CODE     ---       #364
      00FF4738H   LINE      CODE     ---       #365
      00FF474CH   LINE      CODE     ---       #366
      00FF475BH   LINE      CODE     ---       #367
      00FF4766H   LINE      CODE     ---       #368
      00FF4771H   LINE      CODE     ---       #370
      00FF477CH   LINE      CODE     ---       #372
      00FF4787H   LINE      CODE     ---       #373
      00FF4791H   LINE      CODE     ---       #375
      00FF4796H   LINE      CODE     ---       #376
      00FF4798H   LINE      CODE     ---       #378
      00FF47ACH   LINE      CODE     ---       #379
      00FF47B6H   LINE      CODE     ---       #380
      00FF47C0H   LINE      CODE     ---       #382
      00FF47C6H   LINE      CODE     ---       #383
      00FF47C8H   LINE      CODE     ---       #384
      00FF47CFH   LINE      CODE     ---       #387
      00FF47D8H   LINE      CODE     ---       #389
      00FF47D8H   LINE      CODE     ---       #390
      00FF47D8H   LINE      CODE     ---       #391
      00FF47E3H   LINE      CODE     ---       #392
      00FF47F7H   LINE      CODE     ---       #394
L251 LINKER/LOCATER V4.66.93.0                                                        07/20/2024  17:24:57  PAGE 92


      00FF4804H   LINE      CODE     ---       #395
      00FF480EH   LINE      CODE     ---       #397
      00FF4818H   LINE      CODE     ---       #398
      00FF4823H   LINE      CODE     ---       #399
      00FF4837H   LINE      CODE     ---       #400
      00FF4843H   LINE      CODE     ---       #401
      00FF484EH   LINE      CODE     ---       #402
      00FF4858H   LINE      CODE     ---       #404
      00FF4862H   LINE      CODE     ---       #405
      00FF486CH   LINE      CODE     ---       #406
      00FF486CH   LINE      CODE     ---       #408
      00FF4870H   LINE      CODE     ---       #409
      ---         BLOCKEND  ---      ---       LVL=0

      00FF6597H   BLOCK     CODE     ---       LVL=0
      WR30        REGSYM    ---      WORD      timeout_period_mclks
      R5          REGSYM    ---      BYTE      vcsel_period_pclks
      00FF6599H   BLOCK     CODE     NEAR LAB  LVL=1
      DR24        REGSYM    ---      DWORD     macro_period_ns
      ---         BLOCKEND  ---      ---       LVL=1
      00FF6597H   LINE      CODE     ---       #419
      00FF6599H   LINE      CODE     ---       #420
      00FF6599H   LINE      CODE     ---       #421
      00FF65BAH   LINE      CODE     ---       #423
      ---         BLOCKEND  ---      ---       LVL=0

      00FF6612H   BLOCK     CODE     ---       LVL=0
      DR28        REGSYM    ---      DWORD     timeout_period_us
      R3          REGSYM    ---      BYTE      vcsel_period_pclks
      00FF6614H   BLOCK     CODE     NEAR LAB  LVL=1
      DR8         REGSYM    ---      DWORD     macro_period_ns
      ---         BLOCKEND  ---      ---       LVL=1
      00FF6612H   LINE      CODE     ---       #434
      00FF6614H   LINE      CODE     ---       #435
      00FF6614H   LINE      CODE     ---       #436
      00FF6635H   LINE      CODE     ---       #438
      ---         BLOCKEND  ---      ---       LVL=0

      00FF6C28H   BLOCK     CODE     ---       LVL=0
      WR4         REGSYM    ---      WORD      reg_val
      00FF6C28H   LINE      CODE     ---       #448
      00FF6C2AH   LINE      CODE     ---       #451
      00FF6C37H   LINE      CODE     ---       #453
      ---         BLOCKEND  ---      ---       LVL=0

      00FF672EH   BLOCK     CODE     ---       LVL=0
      WR2         REGSYM    ---      WORD      timeout_mclks
      00FF6730H   BLOCK     CODE     NEAR LAB  LVL=1
      DR8         REGSYM    ---      DWORD     ls_byte
      WR4         REGSYM    ---      WORD      ms_byte
      WR6         REGSYM    ---      WORD      return_data
      ---         BLOCKEND  ---      ---       LVL=1
      00FF672EH   LINE      CODE     ---       #462
      00FF6730H   LINE      CODE     ---       #463
      00FF6730H   LINE      CODE     ---       #464
      00FF6730H   LINE      CODE     ---       #465
      00FF6734H   LINE      CODE     ---       #466
      00FF6734H   LINE      CODE     ---       #468
      00FF673AH   LINE      CODE     ---       #471
      00FF6740H   LINE      CODE     ---       #472
      00FF6742H   LINE      CODE     ---       #474
      00FF674BH   LINE      CODE     ---       #475
      00FF674DH   LINE      CODE     ---       #476
      00FF6757H   LINE      CODE     ---       #477
      00FF6761H   LINE      CODE     ---       #478
L251 LINKER/LOCATER V4.66.93.0                                                        07/20/2024  17:24:57  PAGE 93


      00FF6761H   LINE      CODE     ---       #479
      00FF6761H   LINE      CODE     ---       #480
      ---         BLOCKEND  ---      ---       LVL=0

      00FF6100H   BLOCK     CODE     ---       LVL=0
      REG=3       REGSYM    ---      ---       enables
      00FF6104H   BLOCK     CODE     NEAR LAB  LVL=1
      0000043BH   SYMBOL    EDATA    BYTE      sequence_config
      ---         BLOCKEND  ---      ---       LVL=1
      00FF6100H   LINE      CODE     ---       #489
      00FF6104H   LINE      CODE     ---       #490
      00FF6104H   LINE      CODE     ---       #491
      00FF6109H   LINE      CODE     ---       #492
      00FF611AH   LINE      CODE     ---       #494
      00FF6124H   LINE      CODE     ---       #495
      00FF6130H   LINE      CODE     ---       #496
      00FF613EH   LINE      CODE     ---       #497
      00FF614AH   LINE      CODE     ---       #498
      00FF6155H   LINE      CODE     ---       #499
      ---         BLOCKEND  ---      ---       LVL=0

      00FF62F2H   BLOCK     CODE     ---       LVL=0
      WR6         REGSYM    ---      INT       type
      00000441H   SYMBOL    EDATA    BYTE      data_buffer
      00FF62F2H   LINE      CODE     ---       #508
      00FF62F2H   LINE      CODE     ---       #509
      00FF62F2H   LINE      CODE     ---       #510
      00FF62F7H   LINE      CODE     ---       #511
      00FF62FBH   LINE      CODE     ---       #513
      00FF6308H   LINE      CODE     ---       #514
      00FF6308H   LINE      CODE     ---       #515
      00FF630AH   LINE      CODE     ---       #516
      00FF6310H   LINE      CODE     ---       #518
      00FF6324H   LINE      CODE     ---       #519
      00FF6332H   LINE      CODE     ---       #520
      00FF6334H   LINE      CODE     ---       #523
      00FF633AH   LINE      CODE     ---       #524
      00FF633AH   LINE      CODE     ---       #525
      00FF633EH   LINE      CODE     ---       #526
      ---         BLOCKEND  ---      ---       LVL=0

      00FF5180H   BLOCK     CODE     ---       LVL=0
      0000043BH   SYMBOL    EDATA    ---       enables
      REG=3       REGSYM    ---      ---       timeouts
      00FF5188H   BLOCK     CODE     NEAR LAB  LVL=1
      0000043FH   SYMBOL    EDATA    ---       reg_buffer
      WR6         REGSYM    ---      WORD      reg16_buffer
      ---         BLOCKEND  ---      ---       LVL=1
      00FF5180H   LINE      CODE     ---       #536
      00FF5188H   LINE      CODE     ---       #537
      00FF5188H   LINE      CODE     ---       #539
      00FF5188H   LINE      CODE     ---       #541
      00FF5192H   LINE      CODE     ---       #543
      00FF51A6H   LINE      CODE     ---       #544
      00FF51B2H   LINE      CODE     ---       #545
      00FF51C0H   LINE      CODE     ---       #547
      00FF51D4H   LINE      CODE     ---       #548
      00FF51E0H   LINE      CODE     ---       #549
      00FF51E7H   LINE      CODE     ---       #550
      00FF51F5H   LINE      CODE     ---       #552
      00FF5202H   LINE      CODE     ---       #554
      00FF5216H   LINE      CODE     ---       #555
      00FF5222H   LINE      CODE     ---       #556
      00FF5229H   LINE      CODE     ---       #558
      00FF5233H   LINE      CODE     ---       #560
L251 LINKER/LOCATER V4.66.93.0                                                        07/20/2024  17:24:57  PAGE 94


      00FF5245H   LINE      CODE     ---       #561
      00FF5245H   LINE      CODE     ---       #563
      00FF5258H   LINE      CODE     ---       #564
      ---         BLOCKEND  ---      ---       LVL=0

      00FF5C8EH   BLOCK     CODE     ---       LVL=0
      R10         REGSYM    ---      BYTE      vhv_init_byte
      00FF5C92H   BLOCK     CODE     NEAR LAB  LVL=1
      R15         REGSYM    ---      BYTE      return_state
      00000418H   SYMBOL    EDATA    BYTE      data_buffer
      00000419H   SYMBOL    EDATA    WORD      loop_count
      ---         BLOCKEND  ---      ---       LVL=1
      00FF5C8EH   LINE      CODE     ---       #573
      00FF5C92H   LINE      CODE     ---       #574
      00FF5C92H   LINE      CODE     ---       #575
      00FF5C94H   LINE      CODE     ---       #576
      00FF5C99H   LINE      CODE     ---       #577
      00FF5C9FH   LINE      CODE     ---       #578
      00FF5C9FH   LINE      CODE     ---       #580
      00FF5CA9H   LINE      CODE     ---       #581
      00FF5CA9H   LINE      CODE     ---       #582
      00FF5CABH   LINE      CODE     ---       #584
      00FF5CB5H   LINE      CODE     ---       #586
      00FF5CB8H   LINE      CODE     ---       #587
      00FF5CBAH   LINE      CODE     ---       #588
      00FF5CBAH   LINE      CODE     ---       #589
      00FF5CCCH   LINE      CODE     ---       #591
      00FF5CE0H   LINE      CODE     ---       #592
      00FF5CE8H   LINE      CODE     ---       #594
      00FF5CECH   LINE      CODE     ---       #596
      00FF5CECH   LINE      CODE     ---       #597
      00FF5CECH   LINE      CODE     ---       #598
      00FF5CF7H   LINE      CODE     ---       #599
      00FF5D00H   LINE      CODE     ---       #600
      00FF5D00H   LINE      CODE     ---       #602
      00FF5D02H   LINE      CODE     ---       #603
      ---         BLOCKEND  ---      ---       LVL=0

      00FF4FBCH   BLOCK     CODE     ---       LVL=0
      DR12        REGSYM    ---      DWORD     budget_us
      00FF4FC0H   BLOCK     CODE     NEAR LAB  LVL=1
      00000418H   SYMBOL    EDATA    BYTE      return_state
      00000419H   SYMBOL    EDATA    ---       data_buffer
      WR6         REGSYM    ---      WORD      dat
      0000041CH   SYMBOL    EDATA    DWORD     used_budget_us
      DR4         REGSYM    ---      DWORD     final_range_timeout_us
      WR6         REGSYM    ---      WORD      final_range_timeout_mclks
      00000420H   SYMBOL    EDATA    ---       enables
      00000425H   SYMBOL    EDATA    ---       timeouts
      ---         BLOCKEND  ---      ---       LVL=1
      00FF4FBCH   LINE      CODE     ---       #616
      00FF4FC0H   LINE      CODE     ---       #617
      00FF4FC0H   LINE      CODE     ---       #618
      00FF4FC5H   LINE      CODE     ---       #620
      00FF4FC5H   LINE      CODE     ---       #628
      00FF4FC5H   LINE      CODE     ---       #630
      00FF4FCBH   LINE      CODE     ---       #632
      00FF4FCBH   LINE      CODE     ---       #633
      00FF4FCEH   LINE      CODE     ---       #634
      00FF4FCEH   LINE      CODE     ---       #636
      00FF4FD6H   LINE      CODE     ---       #637
      00FF4FDDH   LINE      CODE     ---       #638
      00FF4FE8H   LINE      CODE     ---       #640
      00FF4FEEH   LINE      CODE     ---       #642
      00FF4FFEH   LINE      CODE     ---       #643
L251 LINKER/LOCATER V4.66.93.0                                                        07/20/2024  17:24:57  PAGE 95


      00FF4FFEH   LINE      CODE     ---       #645
      00FF5004H   LINE      CODE     ---       #647
      00FF5010H   LINE      CODE     ---       #648
      00FF5012H   LINE      CODE     ---       #649
      00FF5018H   LINE      CODE     ---       #651
      00FF502AH   LINE      CODE     ---       #652
      00FF502AH   LINE      CODE     ---       #654
      00FF5030H   LINE      CODE     ---       #656
      00FF5042H   LINE      CODE     ---       #657
      00FF5042H   LINE      CODE     ---       #659
      00FF5048H   LINE      CODE     ---       #664
      00FF5054H   LINE      CODE     ---       #665
      00FF505CH   LINE      CODE     ---       #668
      00FF5062H   LINE      CODE     ---       #669
      00FF5064H   LINE      CODE     ---       #670
      00FF5064H   LINE      CODE     ---       #675
      00FF5068H   LINE      CODE     ---       #676
      00FF506FH   LINE      CODE     ---       #680
      00FF5075H   LINE      CODE     ---       #682
      00FF507BH   LINE      CODE     ---       #683
      00FF507BH   LINE      CODE     ---       #685
      00FF507EH   LINE      CODE     ---       #686
      00FF5084H   LINE      CODE     ---       #687
      00FF5088H   LINE      CODE     ---       #688
      00FF508CH   LINE      CODE     ---       #689
      00FF5099H   LINE      CODE     ---       #690
      00FF5099H   LINE      CODE     ---       #692
      00FF509DH   LINE      CODE     ---       #693
      ---         BLOCKEND  ---      ---       LVL=0

      00FF5D7BH   BLOCK     CODE     ---       LVL=0
      00FF5D7DH   BLOCK     CODE     NEAR LAB  LVL=1
      00000418H   SYMBOL    EDATA    ---       enables
      0000041DH   SYMBOL    EDATA    ---       timeouts
      DR12        REGSYM    ---      DWORD     budget_us
      ---         BLOCKEND  ---      ---       LVL=1
      00FF5D7BH   LINE      CODE     ---       #702
      00FF5D7DH   LINE      CODE     ---       #703
      00FF5D7DH   LINE      CODE     ---       #708
      00FF5D81H   LINE      CODE     ---       #710
      00FF5D88H   LINE      CODE     ---       #711
      00FF5D93H   LINE      CODE     ---       #713
      00FF5D99H   LINE      CODE     ---       #715
      00FF5DA5H   LINE      CODE     ---       #716
      00FF5DA5H   LINE      CODE     ---       #718
      00FF5DABH   LINE      CODE     ---       #720
      00FF5DB7H   LINE      CODE     ---       #721
      00FF5DB9H   LINE      CODE     ---       #722
      00FF5DBFH   LINE      CODE     ---       #724
      00FF5DC9H   LINE      CODE     ---       #725
      00FF5DC9H   LINE      CODE     ---       #727
      00FF5DCFH   LINE      CODE     ---       #729
      00FF5DD9H   LINE      CODE     ---       #730
      00FF5DD9H   LINE      CODE     ---       #732
      00FF5DDFH   LINE      CODE     ---       #734
      00FF5DE9H   LINE      CODE     ---       #735
      00FF5DE9H   LINE      CODE     ---       #737
      00FF5DEBH   LINE      CODE     ---       #738
      ---         BLOCKEND  ---      ---       LVL=0

      00FF69B0H   BLOCK     CODE     ---       LVL=0
      DR4         REGSYM    ---      FLOAT     limit_mcps
      00000418H   SYMBOL    EDATA    ---       data_buffer
      WR6         REGSYM    ---      WORD      limit_mcps_16bit
      00FF69B0H   LINE      CODE     ---       #751
L251 LINKER/LOCATER V4.66.93.0                                                        07/20/2024  17:24:57  PAGE 96


      00FF69B0H   LINE      CODE     ---       #752
      00FF69B0H   LINE      CODE     ---       #754
      00FF69BCH   LINE      CODE     ---       #758
      00FF69C2H   LINE      CODE     ---       #759
      00FF69C6H   LINE      CODE     ---       #760
      00FF69CAH   LINE      CODE     ---       #762
      ---         BLOCKEND  ---      ---       LVL=0

      00FF5DEEH   BLOCK     CODE     ---       LVL=0
      00FF5DF0H   BLOCK     CODE     NEAR LAB  LVL=1
      000003FAH   SYMBOL    EDATA    ---       reg_databuffer
      WR14        REGSYM    ---      WORD      distance
      ---         BLOCKEND  ---      ---       LVL=1
      00FF5DEEH   LINE      CODE     ---       #774
      00FF5DF0H   LINE      CODE     ---       #775
      00FF5DF0H   LINE      CODE     ---       #778
      00FF5E04H   LINE      CODE     ---       #779
      00FF5E0CH   LINE      CODE     ---       #781
      00FF5E11H   LINE      CODE     ---       #782
      00FF5E13H   LINE      CODE     ---       #786
      00FF5E27H   LINE      CODE     ---       #787
      00FF5E35H   LINE      CODE     ---       #788
      00FF5E3BH   LINE      CODE     ---       #790
      00FF5E41H   LINE      CODE     ---       #791
      00FF5E45H   LINE      CODE     ---       #793
      00FF5E54H   LINE      CODE     ---       #794
      00FF5E58H   LINE      CODE     ---       #796
      00FF5E58H   LINE      CODE     ---       #797
      ---         BLOCKEND  ---      ---       LVL=0

      00FF229EH   BLOCK     CODE     ---       LVL=0
      00FF22A2H   BLOCK     CODE     NEAR LAB  LVL=1
      00000406H   SYMBOL    EDATA    DWORD     measurement_timing_budget_us
      0000040AH   SYMBOL    EDATA    BYTE      stop_variable
      R15         REGSYM    ---      BYTE      return_state
      R14         REGSYM    ---      BYTE      reg_data_buffer
      0000040BH   SYMBOL    EDATA    ---       ref_spad_map
      00000411H   SYMBOL    EDATA    ---       data_buffer
      R13         REGSYM    ---      BYTE      i
      ---         BLOCKEND  ---      ---       LVL=1
      00FF229EH   LINE      CODE     ---       #808
      00FF22A2H   LINE      CODE     ---       #809
      00FF22A2H   LINE      CODE     ---       #810
      00FF22A2H   LINE      CODE     ---       #811
      00FF22A7H   LINE      CODE     ---       #812
      00FF22A9H   LINE      CODE     ---       #813
      00FF22A9H   LINE      CODE     ---       #816
      00FF22A9H   LINE      CODE     ---       #818
      00FF22B4H   LINE      CODE     ---       #819
      00FF22C0H   LINE      CODE     ---       #823
      00FF22C0H   LINE      CODE     ---       #832
      00FF22CAH   LINE      CODE     ---       #833
      00FF22D7H   LINE      CODE     ---       #835
      00FF22E1H   LINE      CODE     ---       #837
      00FF22ECH   LINE      CODE     ---       #838
      00FF22F7H   LINE      CODE     ---       #839
      00FF2300H   LINE      CODE     ---       #841
      00FF2314H   LINE      CODE     ---       #843
      00FF231EH   LINE      CODE     ---       #844
      00FF2328H   LINE      CODE     ---       #845
      00FF2332H   LINE      CODE     ---       #848
      00FF233CH   LINE      CODE     ---       #849
      00FF2349H   LINE      CODE     ---       #851
      00FF2352H   LINE      CODE     ---       #852
      00FF235DH   LINE      CODE     ---       #856
L251 LINKER/LOCATER V4.66.93.0                                                        07/20/2024  17:24:57  PAGE 97


      00FF236AH   LINE      CODE     ---       #858
      00FF236DH   LINE      CODE     ---       #863
      00FF2378H   LINE      CODE     ---       #864
      00FF237BH   LINE      CODE     ---       #865
      00FF237BH   LINE      CODE     ---       #868
      00FF238FH   LINE      CODE     ---       #870
      00FF239AH   LINE      CODE     ---       #871
      00FF23A4H   LINE      CODE     ---       #872
      00FF23AFH   LINE      CODE     ---       #873
      00FF23B9H   LINE      CODE     ---       #874
      00FF23C4H   LINE      CODE     ---       #876
      00FF23D5H   LINE      CODE     ---       #877
      00FF23D7H   LINE      CODE     ---       #879
      00FF23E9H   LINE      CODE     ---       #884
      00FF2417H   LINE      CODE     ---       #885
      00FF2419H   LINE      CODE     ---       #886
      00FF243CH   LINE      CODE     ---       #888
      00FF2445H   LINE      CODE     ---       #889
      00FF244CH   LINE      CODE     ---       #892
      00FF2452H   LINE      CODE     ---       #893
      00FF2455H   LINE      CODE     ---       #895
      00FF245FH   LINE      CODE     ---       #896
      00FF2466H   LINE      CODE     ---       #897
      00FF2473H   LINE      CODE     ---       #900
      00FF247EH   LINE      CODE     ---       #901
      00FF2487H   LINE      CODE     ---       #902
      00FF2491H   LINE      CODE     ---       #903
      00FF249BH   LINE      CODE     ---       #904
      00FF24A5H   LINE      CODE     ---       #905
      00FF24AFH   LINE      CODE     ---       #906
      00FF24BAH   LINE      CODE     ---       #907
      00FF24C5H   LINE      CODE     ---       #908
      00FF24CFH   LINE      CODE     ---       #909
      00FF24DAH   LINE      CODE     ---       #910
      00FF24E5H   LINE      CODE     ---       #911
      00FF24EFH   LINE      CODE     ---       #912
      00FF24FAH   LINE      CODE     ---       #913
      00FF2504H   LINE      CODE     ---       #914
      00FF250FH   LINE      CODE     ---       #915
      00FF2519H   LINE      CODE     ---       #916
      00FF2524H   LINE      CODE     ---       #917
      00FF252FH   LINE      CODE     ---       #918
      00FF253AH   LINE      CODE     ---       #919
      00FF2545H   LINE      CODE     ---       #920
      00FF254FH   LINE      CODE     ---       #921
      00FF2559H   LINE      CODE     ---       #922
      00FF2564H   LINE      CODE     ---       #923
      00FF256EH   LINE      CODE     ---       #924
      00FF2579H   LINE      CODE     ---       #925
      00FF2584H   LINE      CODE     ---       #926
      00FF258FH   LINE      CODE     ---       #927
      00FF2599H   LINE      CODE     ---       #928
      00FF25A3H   LINE      CODE     ---       #929
      00FF25ADH   LINE      CODE     ---       #930
      00FF25B7H   LINE      CODE     ---       #931
      00FF25C2H   LINE      CODE     ---       #932
      00FF25CDH   LINE      CODE     ---       #933
      00FF25D8H   LINE      CODE     ---       #934
      00FF25E3H   LINE      CODE     ---       #935
      00FF25EEH   LINE      CODE     ---       #936
      00FF25F8H   LINE      CODE     ---       #937
      00FF2602H   LINE      CODE     ---       #938
      00FF260DH   LINE      CODE     ---       #939
      00FF2617H   LINE      CODE     ---       #940
      00FF2622H   LINE      CODE     ---       #941
L251 LINKER/LOCATER V4.66.93.0                                                        07/20/2024  17:24:57  PAGE 98


      00FF262DH   LINE      CODE     ---       #942
      00FF2638H   LINE      CODE     ---       #943
      00FF2642H   LINE      CODE     ---       #944
      00FF264DH   LINE      CODE     ---       #945
      00FF2658H   LINE      CODE     ---       #946
      00FF2663H   LINE      CODE     ---       #947
      00FF266EH   LINE      CODE     ---       #948
      00FF2679H   LINE      CODE     ---       #949
      00FF2684H   LINE      CODE     ---       #950
      00FF268FH   LINE      CODE     ---       #951
      00FF2699H   LINE      CODE     ---       #952
      00FF26A4H   LINE      CODE     ---       #953
      00FF26AFH   LINE      CODE     ---       #954
      00FF26BAH   LINE      CODE     ---       #955
      00FF26C5H   LINE      CODE     ---       #956
      00FF26D0H   LINE      CODE     ---       #957
      00FF26DBH   LINE      CODE     ---       #958
      00FF26E6H   LINE      CODE     ---       #959
      00FF26F0H   LINE      CODE     ---       #960
      00FF26FAH   LINE      CODE     ---       #961
      00FF2705H   LINE      CODE     ---       #962
      00FF2710H   LINE      CODE     ---       #963
      00FF271BH   LINE      CODE     ---       #964
      00FF2725H   LINE      CODE     ---       #965
      00FF2730H   LINE      CODE     ---       #966
      00FF273BH   LINE      CODE     ---       #967
      00FF2746H   LINE      CODE     ---       #968
      00FF2750H   LINE      CODE     ---       #969
      00FF275AH   LINE      CODE     ---       #970
      00FF2765H   LINE      CODE     ---       #971
      00FF2770H   LINE      CODE     ---       #972
      00FF277AH   LINE      CODE     ---       #973
      00FF2785H   LINE      CODE     ---       #974
      00FF2790H   LINE      CODE     ---       #975
      00FF279BH   LINE      CODE     ---       #976
      00FF27A6H   LINE      CODE     ---       #977
      00FF27B0H   LINE      CODE     ---       #978
      00FF27BAH   LINE      CODE     ---       #979
      00FF27C4H   LINE      CODE     ---       #982
      00FF27CFH   LINE      CODE     ---       #983
      00FF27D9H   LINE      CODE     ---       #984
      00FF27E6H   LINE      CODE     ---       #985
      00FF27F1H   LINE      CODE     ---       #987
      00FF27F8H   LINE      CODE     ---       #992
      00FF2803H   LINE      CODE     ---       #993
      00FF280AH   LINE      CODE     ---       #996
      00FF2815H   LINE      CODE     ---       #997
      00FF281CH   LINE      CODE     ---       #999
      00FF281CH   LINE      CODE     ---       #1000
      00FF281EH   LINE      CODE     ---       #1001
      00FF281EH   LINE      CODE     ---       #1002
      00FF2829H   LINE      CODE     ---       #1003
      00FF282FH   LINE      CODE     ---       #1005
      00FF2832H   LINE      CODE     ---       #1006
      00FF2834H   LINE      CODE     ---       #1007
      00FF2834H   LINE      CODE     ---       #1008
      00FF283FH   LINE      CODE     ---       #1010
      00FF2846H   LINE      CODE     ---       #1012
      00FF2851H   LINE      CODE     ---       #1013
      00FF285CH   LINE      CODE     ---       #1014
      00FF2865H   LINE      CODE     ---       #1015
      00FF2871H   LINE      CODE     ---       #1016
      00FF287BH   LINE      CODE     ---       #1017
      00FF2885H   LINE      CODE     ---       #1018
      00FF288FH   LINE      CODE     ---       #1020
L251 LINKER/LOCATER V4.66.93.0                                                        07/20/2024  17:24:57  PAGE 99


      00FF2899H   LINE      CODE     ---       #1021
      00FF2899H   LINE      CODE     ---       #1023
      00FF289BH   LINE      CODE     ---       #1024
      ---         BLOCKEND  ---      ---       LVL=0

      ---         MODULE    ---      ---       Element
      00FF64D9H   PUBLIC    CODE     ---       Elem_Up_Down
      00FF4BF1H   PUBLIC    CODE     ---       Elem_Barrier
      00FF3FE3H   PUBLIC    CODE     ---       Elem_Circle
      000006E7H   PUBLIC    EDATA    FLOAT     Dis_Bar
      000006EBH   PUBLIC    EDATA    CHAR      Special_Elem
      000006ECH   PUBLIC    EDATA    CHAR      Barrier_Flag1
      000006EDH   PUBLIC    EDATA    INT       Circle_Delay2
      000006EFH   PUBLIC    EDATA    CHAR      Barrier_Flag2
      000006F0H   PUBLIC    EDATA    CHAR      Barrier_Flag3
      000006F1H   PUBLIC    EDATA    FLOAT     Circle_Flag1
      000006F5H   PUBLIC    EDATA    FLOAT     Circle_Flag2
      000006F9H   PUBLIC    EDATA    CHAR      Circle_Flag3
      000006FAH   PUBLIC    EDATA    CHAR      Barrier_Executed
      000006FBH   PUBLIC    EDATA    CHAR      Down_Flag
      000006FCH   PUBLIC    EDATA    FLOAT     Sum_Angle_Bar
      00000700H   PUBLIC    EDATA    INT       circle_Delay1
      000000D0H   SFRSYM    DATA     BYTE      PSW
      000000B7H   SFRSYM    DATA     BYTE      IPH
      00000088H   SFRSYM    DATA     BYTE      TCON
      00000098H   SFRSYM    DATA     BYTE      SCON
      000000BCH   SFRSYM    DATA     BYTE      ADC_CONTR
      000000DEH   SFRSYM    DATA     BYTE      ADCCFG
      000000B8H   SFRSYM    DATA     BYTE      IP
      000000A8H   SFRSYM    DATA     BYTE      IE
      000000F8H   SFRSYM    DATA     BYTE      P7
      000000E8H   SFRSYM    DATA     BYTE      P6
      000000C8H   SFRSYM    DATA     BYTE      P5
      000000C0H   SFRSYM    DATA     BYTE      P4
      000000B0H   SFRSYM    DATA     BYTE      P3
      000000A0H   SFRSYM    DATA     BYTE      P2
      00000090H   SFRSYM    DATA     BYTE      P1
      00000080H   SFRSYM    DATA     BYTE      P0

      00FF64D9H   BLOCK     CODE     ---       LVL=0
      DR28        REGSYM    ---      FLOAT     Angle
      00FF64DBH   BLOCK     CODE     NEAR LAB  LVL=1
      00000702H   SYMBOL    EDATA    CHAR      Elem_Over
      ---         BLOCKEND  ---      ---       LVL=1
      00FF64D9H   LINE      CODE     ---       #31
      00FF64DBH   LINE      CODE     ---       #32
      00FF64DBH   LINE      CODE     ---       #34
      00FF64E6H   LINE      CODE     ---       #35
      00FF64F1H   LINE      CODE     ---       #36
      00FF64FEH   LINE      CODE     ---       #38
      00FF6504H   LINE      CODE     ---       #39
      00FF650AH   LINE      CODE     ---       #41
      00FF6510H   LINE      CODE     ---       #42
      00FF6519H   LINE      CODE     ---       #43
      00FF6519H   LINE      CODE     ---       #46
      ---         BLOCKEND  ---      ---       LVL=0

      00FF4BF1H   BLOCK     CODE     ---       LVL=0
      DR28        REGSYM    ---      FLOAT     Gyro_Z
      DR24        REGSYM    ---      FLOAT     Speed
      00FF4BF1H   LINE      CODE     ---       #105
      00FF4BF3H   LINE      CODE     ---       #107
      00FF4C07H   LINE      CODE     ---       #110
      00FF4C0EH   LINE      CODE     ---       #112
      00FF4C26H   LINE      CODE     ---       #113
L251 LINKER/LOCATER V4.66.93.0                                                        07/20/2024  17:24:57  PAGE 100


      00FF4C33H   LINE      CODE     ---       #114
      00FF4C3FH   LINE      CODE     ---       #116
      00FF4C3FH   LINE      CODE     ---       #117
      00FF4C5FH   LINE      CODE     ---       #119
      00FF4C64H   LINE      CODE     ---       #120
      00FF4C6AH   LINE      CODE     ---       #121
      00FF4C6AH   LINE      CODE     ---       #122
      00FF4C71H   LINE      CODE     ---       #124
      00FF4C87H   LINE      CODE     ---       #125
      00FF4C94H   LINE      CODE     ---       #126
      00FF4CB2H   LINE      CODE     ---       #128
      00FF4CB8H   LINE      CODE     ---       #129
      00FF4CBAH   LINE      CODE     ---       #131
      00FF4CC6H   LINE      CODE     ---       #132
      00FF4CC6H   LINE      CODE     ---       #159
      00FF4CCDH   LINE      CODE     ---       #161
      00FF4CD3H   LINE      CODE     ---       #162
      00FF4CD7H   LINE      CODE     ---       #163
      00FF4CDCH   LINE      CODE     ---       #164
      00FF4CE0H   LINE      CODE     ---       #165
      00FF4CE6H   LINE      CODE     ---       #167
      00FF4CEBH   LINE      CODE     ---       #168
      ---         BLOCKEND  ---      ---       LVL=0

      00FF3FE3H   BLOCK     CODE     ---       LVL=0
      DR24        REGSYM    ---      FLOAT     Speed
      DR28        REGSYM    ---      FLOAT     Gyro_Z
      00FF3FE9H   BLOCK     CODE     NEAR LAB  LVL=1
      00000703H   SYMBOL    EDATA    CHAR      Elem_Over
      00000704H   SYMBOL    EDATA    FLOAT     Sum_Dis1
      00000708H   SYMBOL    EDATA    FLOAT     Sum_Angle_C1
      ---         BLOCKEND  ---      ---       LVL=1
      00FF3FE3H   LINE      CODE     ---       #173
      00FF3FE9H   LINE      CODE     ---       #174
      00FF3FE9H   LINE      CODE     ---       #178
      00FF3FF3H   LINE      CODE     ---       #180
      00FF3FF9H   LINE      CODE     ---       #181
      00FF3FFDH   LINE      CODE     ---       #182
      00FF4003H   LINE      CODE     ---       #184
      00FF400CH   LINE      CODE     ---       #185
      00FF401DH   LINE      CODE     ---       #186
      00FF4022H   LINE      CODE     ---       #187
      00FF4035H   LINE      CODE     ---       #189
      00FF4035H   LINE      CODE     ---       #190
      00FF403DH   LINE      CODE     ---       #191
      00FF4040H   LINE      CODE     ---       #192
      00FF4040H   LINE      CODE     ---       #194
      00FF4054H   LINE      CODE     ---       #196
      00FF405EH   LINE      CODE     ---       #197
      00FF4074H   LINE      CODE     ---       #198
      00FF408AH   LINE      CODE     ---       #200
      00FF40A2H   LINE      CODE     ---       #202
      00FF40CBH   LINE      CODE     ---       #204
      00FF40CFH   LINE      CODE     ---       #205
      00FF40CFH   LINE      CODE     ---       #206
      00FF40D1H   LINE      CODE     ---       #207
      00FF40F4H   LINE      CODE     ---       #209
      00FF40FEH   LINE      CODE     ---       #210
      00FF4106H   LINE      CODE     ---       #211
      00FF4106H   LINE      CODE     ---       #213
      00FF4113H   LINE      CODE     ---       #215
      00FF412DH   LINE      CODE     ---       #217
      00FF4135H   LINE      CODE     ---       #218
      00FF4137H   LINE      CODE     ---       #219
      00FF4151H   LINE      CODE     ---       #221
L251 LINKER/LOCATER V4.66.93.0                                                        07/20/2024  17:24:57  PAGE 101


      00FF415DH   LINE      CODE     ---       #222
      00FF415FH   LINE      CODE     ---       #225
      00FF416AH   LINE      CODE     ---       #227
      00FF4188H   LINE      CODE     ---       #229
      00FF41B3H   LINE      CODE     ---       #231
      00FF41BBH   LINE      CODE     ---       #232
      00FF41C1H   LINE      CODE     ---       #233
      00FF41C5H   LINE      CODE     ---       #234
      00FF41C9H   LINE      CODE     ---       #235
      00FF41CDH   LINE      CODE     ---       #236
      00FF41D3H   LINE      CODE     ---       #238
      00FF41D9H   LINE      CODE     ---       #239
      00FF41E2H   LINE      CODE     ---       #240
      00FF41E2H   LINE      CODE     ---       #242
      00FF41E2H   LINE      CODE     ---       #243
      00FF41E4H   LINE      CODE     ---       #246
      00FF41EAH   LINE      CODE     ---       #247
      00FF41EEH   LINE      CODE     ---       #248
      00FF41F2H   LINE      CODE     ---       #249
      00FF41F2H   LINE      CODE     ---       #250
      ---         BLOCKEND  ---      ---       LVL=0

      ---         MODULE    ---      ---       Buzzer
      00FF6C17H   PUBLIC    CODE     ---       Buzzer_Init
      00000767H   PUBLIC    EDATA    WORD      x10_ms
      000000D0H   SFRSYM    DATA     BYTE      PSW
      000000B7H   SFRSYM    DATA     BYTE      IPH
      00000088H   SFRSYM    DATA     BYTE      TCON
      00000098H   SFRSYM    DATA     BYTE      SCON
      000000BCH   SFRSYM    DATA     BYTE      ADC_CONTR
      000000DEH   SFRSYM    DATA     BYTE      ADCCFG
      000000B8H   SFRSYM    DATA     BYTE      IP
      000000A8H   SFRSYM    DATA     BYTE      IE
      000000F8H   SFRSYM    DATA     BYTE      P7
      000000E8H   SFRSYM    DATA     BYTE      P6
      000000C8H   SFRSYM    DATA     BYTE      P5
      000000C0H   SFRSYM    DATA     BYTE      P4
      000000B0H   SFRSYM    DATA     BYTE      P3
      000000A0H   SFRSYM    DATA     BYTE      P2
      00000090H   SFRSYM    DATA     BYTE      P1
      00000080H   SFRSYM    DATA     BYTE      P0

      00FF6C17H   BLOCK     CODE     ---       LVL=0
      00FF6C17H   LINE      CODE     ---       #12
      00FF6C17H   LINE      CODE     ---       #14
      ---         BLOCKEND  ---      ---       LVL=0

      ---         MODULE    ---      ---       Key
      00FF69FCH   PUBLIC    CODE     ---       Key_Init
      00FF5D05H   PUBLIC    CODE     ---       GetKey_Value
      00000762H   PUBLIC    EDATA    CHAR      Mode
      00000763H   PUBLIC    EDATA    CHAR      clear_Num
      000000D0H   SFRSYM    DATA     BYTE      PSW
      000000B7H   SFRSYM    DATA     BYTE      IPH
      000000F8H.3 SFRSYM    DATA     BIT       P73
      000000F8H.2 SFRSYM    DATA     BIT       P72
      000000F8H.1 SFRSYM    DATA     BIT       P71
      000000F8H.0 SFRSYM    DATA     BIT       P70
      00000088H   SFRSYM    DATA     BYTE      TCON
      00000098H   SFRSYM    DATA     BYTE      SCON
      000000BCH   SFRSYM    DATA     BYTE      ADC_CONTR
      000000DEH   SFRSYM    DATA     BYTE      ADCCFG
      000000B8H   SFRSYM    DATA     BYTE      IP
      000000A8H   SFRSYM    DATA     BYTE      IE
      000000F8H   SFRSYM    DATA     BYTE      P7
L251 LINKER/LOCATER V4.66.93.0                                                        07/20/2024  17:24:57  PAGE 102


      000000E8H   SFRSYM    DATA     BYTE      P6
      000000C8H   SFRSYM    DATA     BYTE      P5
      000000C0H   SFRSYM    DATA     BYTE      P4
      000000B0H   SFRSYM    DATA     BYTE      P3
      000000A0H   SFRSYM    DATA     BYTE      P2
      00000090H   SFRSYM    DATA     BYTE      P1
      00000080H   SFRSYM    DATA     BYTE      P0

      00FF69FCH   BLOCK     CODE     ---       LVL=0
      00FF69FCH   LINE      CODE     ---       #12
      00FF69FCH   LINE      CODE     ---       #15
      00FF6A05H   LINE      CODE     ---       #16
      00FF6A0EH   LINE      CODE     ---       #17
      00FF6A17H   LINE      CODE     ---       #18
      ---         BLOCKEND  ---      ---       LVL=0

      00FF5D05H   BLOCK     CODE     ---       LVL=0
      R7          REGSYM    ---      BYTE      mode
      00FF5D07H   BLOCK     CODE     NEAR LAB  LVL=1
      00000764H   SYMBOL    EDATA    BYTE      key_up
      ---         BLOCKEND  ---      ---       LVL=1
      00FF5D05H   LINE      CODE     ---       #30
      00FF5D07H   LINE      CODE     ---       #31
      00FF5D07H   LINE      CODE     ---       #33
      00FF5D0BH   LINE      CODE     ---       #34
      00FF5D11H   LINE      CODE     ---       #35
      00FF5D2FH   LINE      CODE     ---       #38
      00FF5D34H   LINE      CODE     ---       #39
      00FF5D3CH   LINE      CODE     ---       #40
      00FF5D45H   LINE      CODE     ---       #41
      00FF5D4EH   LINE      CODE     ---       #42
      00FF5D57H   LINE      CODE     ---       #43
      00FF5D57H   LINE      CODE     ---       #44
      00FF5D73H   LINE      CODE     ---       #45
      00FF5D79H   LINE      CODE     ---       #46
      00FF5D7AH   LINE      CODE     ---       #47
      ---         BLOCKEND  ---      ---       LVL=0

      ---         MODULE    ---      ---       UI
      00FF6D21H   PUBLIC    CODE     ---       ui_show
      00FF6497H   PUBLIC    CODE     ---       oled_all_static_state
      00FF4DE4H   PUBLIC    CODE     ---       value_name_init
      00FF6412H   PUBLIC    CODE     ---       oled_show
      00FF5748H   PUBLIC    CODE     ---       refresh_value
      00FF6CE9H   PUBLIC    CODE     ---       ui_init
      00000008H   PUBLIC    EDATA    CHAR      page
      00000009H   PUBLIC    EDATA    ---       value
      00000079H   PUBLIC    EDATA    ---       value_name
      000000D0H   SFRSYM    DATA     BYTE      PSW
      000000B7H   SFRSYM    DATA     BYTE      IPH
      00000088H   SFRSYM    DATA     BYTE      TCON
      00000098H   SFRSYM    DATA     BYTE      SCON
      000000BCH   SFRSYM    DATA     BYTE      ADC_CONTR
      000000DEH   SFRSYM    DATA     BYTE      ADCCFG
      000000B8H   SFRSYM    DATA     BYTE      IP
      000000A8H   SFRSYM    DATA     BYTE      IE
      000000F8H   SFRSYM    DATA     BYTE      P7
      000000E8H   SFRSYM    DATA     BYTE      P6
      000000C8H   SFRSYM    DATA     BYTE      P5
      000000C0H   SFRSYM    DATA     BYTE      P4
      000000B0H   SFRSYM    DATA     BYTE      P3
      000000A0H   SFRSYM    DATA     BYTE      P2
      00000090H   SFRSYM    DATA     BYTE      P1
      00000080H   SFRSYM    DATA     BYTE      P0

L251 LINKER/LOCATER V4.66.93.0                                                        07/20/2024  17:24:57  PAGE 103


      00FF4DE4H   BLOCK     CODE     ---       LVL=0
      00FF4DE4H   LINE      CODE     ---       #23
      00FF4DE4H   LINE      CODE     ---       #26
      00FF4DF3H   LINE      CODE     ---       #27
      00FF4E02H   LINE      CODE     ---       #28
      00FF4E11H   LINE      CODE     ---       #29
      00FF4E20H   LINE      CODE     ---       #33
      00FF4E2FH   LINE      CODE     ---       #34
      00FF4E3EH   LINE      CODE     ---       #35
      00FF4E4DH   LINE      CODE     ---       #36
      00FF4E5CH   LINE      CODE     ---       #40
      00FF4E6BH   LINE      CODE     ---       #41
      00FF4E7AH   LINE      CODE     ---       #42
      00FF4E89H   LINE      CODE     ---       #43
      00FF4E98H   LINE      CODE     ---       #46
      00FF4EA7H   LINE      CODE     ---       #47
      00FF4EB6H   LINE      CODE     ---       #48
      00FF4EC5H   LINE      CODE     ---       #49
      ---         BLOCKEND  ---      ---       LVL=0

      00FF5748H   BLOCK     CODE     ---       LVL=0
      00FF5748H   LINE      CODE     ---       #53
      00FF5748H   LINE      CODE     ---       #56
      00FF574EH   LINE      CODE     ---       #58
      00FF5756H   LINE      CODE     ---       #59
      00FF575EH   LINE      CODE     ---       #60
      00FF5766H   LINE      CODE     ---       #61
      00FF576EH   LINE      CODE     ---       #62
      00FF576FH   LINE      CODE     ---       #63
      00FF5772H   LINE      CODE     ---       #66
      00FF577AH   LINE      CODE     ---       #67
      00FF5782H   LINE      CODE     ---       #68
      00FF578AH   LINE      CODE     ---       #69
      00FF5792H   LINE      CODE     ---       #70
      00FF5793H   LINE      CODE     ---       #71
      00FF5796H   LINE      CODE     ---       #74
      00FF579EH   LINE      CODE     ---       #75
      00FF57A6H   LINE      CODE     ---       #76
      00FF57AEH   LINE      CODE     ---       #77
      00FF57B6H   LINE      CODE     ---       #78
      00FF57B7H   LINE      CODE     ---       #79
      00FF57BAH   LINE      CODE     ---       #82
      00FF57C2H   LINE      CODE     ---       #83
      00FF57CFH   LINE      CODE     ---       #84
      00FF57D7H   LINE      CODE     ---       #85
      00FF57DDH   LINE      CODE     ---       #86
      ---         BLOCKEND  ---      ---       LVL=0
      WR30        REGSYM    ---      INT       pages
      WR8         REGSYM    ---      INT       y
      DR24        REGSYM    ---      FLOAT     value_new

      00FF6497H   BLOCK     CODE     ---       LVL=0
      00FF6499H   BLOCK     CODE     NEAR LAB  LVL=1
      R14         REGSYM    ---      BYTE      i
      R15         REGSYM    ---      BYTE      j
      ---         BLOCKEND  ---      ---       LVL=1
      00FF6497H   LINE      CODE     ---       #97
      00FF6499H   LINE      CODE     ---       #98
      00FF6499H   LINE      CODE     ---       #106
      00FF649BH   LINE      CODE     ---       #108
      00FF64A1H   LINE      CODE     ---       #109
      00FF64C0H   LINE      CODE     ---       #110
      00FF64CFH   LINE      CODE     ---       #111
      00FF64D6H   LINE      CODE     ---       #112
      ---         BLOCKEND  ---      ---       LVL=0
L251 LINKER/LOCATER V4.66.93.0                                                        07/20/2024  17:24:57  PAGE 104



      00FF6412H   BLOCK     CODE     ---       LVL=0
      00FF6414H   BLOCK     CODE     NEAR LAB  LVL=1
      R14         REGSYM    ---      BYTE      i
      R15         REGSYM    ---      BYTE      j
      ---         BLOCKEND  ---      ---       LVL=1
      00FF6412H   LINE      CODE     ---       #115
      00FF6414H   LINE      CODE     ---       #116
      00FF6414H   LINE      CODE     ---       #118
      00FF6417H   LINE      CODE     ---       #119
      00FF6419H   LINE      CODE     ---       #121
      00FF641FH   LINE      CODE     ---       #122
      00FF644BH   LINE      CODE     ---       #123
      00FF6452H   LINE      CODE     ---       #124
      ---         BLOCKEND  ---      ---       LVL=0

      00FF6CE9H   BLOCK     CODE     ---       LVL=0
      00FF6CE9H   LINE      CODE     ---       #127
      00FF6CE9H   LINE      CODE     ---       #129
      00FF6CECH   LINE      CODE     ---       #130
      00FF6CEFH   LINE      CODE     ---       #131
      ---         BLOCKEND  ---      ---       LVL=0

      00FF6D21H   BLOCK     CODE     ---       LVL=0
      00FF6D21H   LINE      CODE     ---       #134
      00FF6D21H   LINE      CODE     ---       #136
      00FF6D24H   LINE      CODE     ---       #137
      ---         BLOCKEND  ---      ---       LVL=0

      ---         MODULE    ---      ---       HCSR04
      00000720H   PUBLIC    EDATA    INT       time
      000000D0H   SFRSYM    DATA     BYTE      PSW
      000000B7H   SFRSYM    DATA     BYTE      IPH
      000000B0H.3 SFRSYM    DATA     BIT       P33
      00000088H   SFRSYM    DATA     BYTE      TCON
      000000B0H.2 SFRSYM    DATA     BIT       P32
      00000098H   SFRSYM    DATA     BYTE      SCON
      000000BCH   SFRSYM    DATA     BYTE      ADC_CONTR
      000000DEH   SFRSYM    DATA     BYTE      ADCCFG
      000000B8H   SFRSYM    DATA     BYTE      IP
      000000A8H   SFRSYM    DATA     BYTE      IE
      000000F8H   SFRSYM    DATA     BYTE      P7
      000000E8H   SFRSYM    DATA     BYTE      P6
      000000C8H   SFRSYM    DATA     BYTE      P5
      000000C0H   SFRSYM    DATA     BYTE      P4
      000000B0H   SFRSYM    DATA     BYTE      P3
      000000A0H   SFRSYM    DATA     BYTE      P2
      00000090H   SFRSYM    DATA     BYTE      P1
      00000080H   SFRSYM    DATA     BYTE      P0
      00000722H   SYMBOL    EDATA    FLOAT     Distance_mm
      00000726H   SYMBOL    EDATA    FLOAT     time_end
      0000072AH   SYMBOL    EDATA    INT       i
      0000072CH   SYMBOL    EDATA    INT       j

      ---         MODULE    ---      ---       ?C?FPADD
      00FF0EB4H   PUBLIC    CODE     ---       ?C?FPADD
      00FF0EB1H   PUBLIC    CODE     ---       ?C?FPSUB

      ---         MODULE    ---      ---       ?C?FPMUL
      00FF0F6CH   PUBLIC    CODE     ---       ?C?FPMUL

      ---         MODULE    ---      ---       ?C?FPDIV
      00FF100CH   PUBLIC    CODE     ---       ?C?FPDIV

      ---         MODULE    ---      ---       ?C?FPCMP
L251 LINKER/LOCATER V4.66.93.0                                                        07/20/2024  17:24:57  PAGE 105


      00FF108FH   PUBLIC    CODE     ---       ?C?FPCMP
      00FF108DH   PUBLIC    CODE     ---       ?C?FPCMP3

      ---         MODULE    ---      ---       ?C?FPNEG
      00FF10D3H   PUBLIC    CODE     ---       ?C?FPNEG

      ---         MODULE    ---      ---       ?C?FCAST
      00FF10EBH   PUBLIC    CODE     NEAR LAB  ?C?FCASTC
      00FF10E6H   PUBLIC    CODE     NEAR LAB  ?C?FCASTI
      00FF10E1H   PUBLIC    CODE     NEAR LAB  ?C?FCASTL

      ---         MODULE    ---      ---       ?C?CASTF
      00FF111EH   PUBLIC    CODE     NEAR LAB  ?C?CASTF

      ---         MODULE    ---      ---       PRINTF
      00000440H   PUBLIC    EDATA    ---       ?PRINTF?BYTE
      00FF115BH   PUBLIC    CODE     NEAR LAB  PRINTF

      ---         MODULE    ---      ---       SQRT?_
      00FF1187H   PUBLIC    CODE     ---       SQRT?_

      ---         MODULE    ---      ---       ASIN?_
      00FF1217H   PUBLIC    CODE     ---       ASIN?_

      ---         MODULE    ---      ---       atan2
      00FF6389H   PUBLIC    CODE     ---       atan2?_

      ---         MODULE    ---      ---       ?C?FPGETOPN
      00FF1237H   PUBLIC    CODE     ---       ?C?FPGETOPN2
      00FF1274H   PUBLIC    CODE     ---       ?C?FPNANRESULT
      00FF127CH   PUBLIC    CODE     ---       ?C?FPOVERFLOW
      00FF1250H   PUBLIC    CODE     ---       ?C?FPRESULT
      00FF1266H   PUBLIC    CODE     ---       ?C?FPRESULT2
      00FF1279H   PUBLIC    CODE     ---       ?C?FPUNDERFLOW

      ---         MODULE    ---      ---       ?C?PRNFMT
      00FF12B5H   PUBLIC    CODE     ---       ?C?PRNFMT

      ---         MODULE    ---      ---       ATAN?_
      00FF16E4H   PUBLIC    CODE     ---       ATAN?_

      ---         MODULE    ---      ---       ?C?FPCONVERT
      00FF17C4H   PUBLIC    CODE     ---       ?C?FPCONVERT
      00FF187CH   PUBLIC    CODE     ---       ?C?FPROUND

      ---         MODULE    ---      ---       ?C?FPSERIES
      00FF18BFH   PUBLIC    CODE     ---       ?C?FP2SERIES
      00FF18C8H   PUBLIC    CODE     ---       ?C?FPSERIES

      ---         MODULE    ---      ---       ?C?FTNPWR
      00FF191CH   PUBLIC    CODE     ---       ?C?FTNPWR

      ---         MODULE    ---      ---       ?C_START
      00FF0000H   PUBLIC    CODE     ---       ?C?STARTUP
      00FF0000H   PUBLIC    CODE     ---       ?C_STARTUP

      ---         MODULE    ---      ---       ?C?INITEDATA
      00FF652DH   PUBLIC    CODE     ---       ?C?INITEDATA

      ---         MODULE    ---      ---       ?C?SIDIV
      00FF1953H   PUBLIC    CODE     ---       ?C?SIDIV

      ---         MODULE    ---      ---       ?C?LMUL
      00FF1985H   PUBLIC    CODE     ---       ?C?LMUL

L251 LINKER/LOCATER V4.66.93.0                                                        07/20/2024  17:24:57  PAGE 106


      ---         MODULE    ---      ---       ?C?LIMUL
      00FF1996H   PUBLIC    CODE     ---       ?C?LIMUL

      ---         MODULE    ---      ---       ?C?ULDIV
      00FF19A1H   PUBLIC    CODE     NEAR LAB  ?C?ULDIV
      00FF199FH   PUBLIC    CODE     NEAR LAB  ?C?ULIDIV

      ---         MODULE    ---      ---       ?C?SLDIV
      00FF19F2H   PUBLIC    CODE     NEAR LAB  ?C?SLDIV

      ---         MODULE    ---      ---       ABS
      00FF6C38H   PUBLIC    CODE     ---       abs?_

      ---         MODULE    ---      ---       STRCPY?_
      00FF6BBEH   PUBLIC    CODE     NEAR LAB  STRCPY?_

      ---         MODULE    ---      ---       memcpy
      00FF69D7H   PUBLIC    CODE     ---       memcpy?_

      ---         MODULE    ---      ---       memset
      00FF6B04H   PUBLIC    CODE     ---       memset?_

      ---         MODULE    ---      ---       ?C?INITEDATA_END
      00FF6EE8H   PUBLIC    HCONST   WORD      ?C?INITEDATA_END

Program Size: data=8.0 edata+hdata=2145 xdata=0 const=732 code=27918
L251 RUN COMPLETE.  0 WARNING(S),  0 ERROR(S)
